
/Users/chipmc/Documents/Maker/Particle/Utilities/JSON-Parser-Test/target/4.2.0/boron/JSON-Parser-Test.elf:     file format elf32-littlearm

Sections:
Idx Name          Size      VMA       LMA       File off  Algn
  0 .module_info  00000018  000b4000  000b4000  00004000  2**0
                  CONTENTS, ALLOC, LOAD, READONLY, DATA
  1 .dynalib      00000004  000b4018  000b4018  00004018  2**2
                  CONTENTS, ALLOC, LOAD, READONLY, DATA
  2 .text         00006f94  000b401c  000b401c  0000401c  2**2
                  CONTENTS, ALLOC, LOAD, READONLY, CODE
  3 .note.gnu.build-id 00000024  000bafb0  000bafb0  0000afb0  2**2
                  CONTENTS, ALLOC, LOAD, READONLY, DATA
  4 .backup       00000004  2003f400  000bafd4  0000f400  2**2
                  CONTENTS, ALLOC, LOAD, DATA
  5 .data         00000088  2003b6b4  000bafd8  0001b6b4  2**2
                  CONTENTS, ALLOC, LOAD, DATA
  6 .bss          000030b4  2003b73c  2003b73c  0002b73c  2**2
                  ALLOC
  7 .module_info_suffix 00000028  000bb060  000bb060  0002b060  2**0
                  CONTENTS, ALLOC, LOAD, READONLY, DATA
  8 .module_info_crc 00000004  000bb088  000bb088  0002b088  2**0
                  CONTENTS, ALLOC, LOAD, READONLY, DATA
  9 .debug_info   0015ecb2  00000000  00000000  0002b08c  2**0
                  CONTENTS, READONLY, DEBUGGING, OCTETS
 10 .debug_abbrev 000171cd  00000000  00000000  00189d3e  2**0
                  CONTENTS, READONLY, DEBUGGING, OCTETS
 11 .debug_loc    000480e2  00000000  00000000  001a0f0b  2**0
                  CONTENTS, READONLY, DEBUGGING, OCTETS
 12 .debug_aranges 00003478  00000000  00000000  001e8fed  2**0
                  CONTENTS, READONLY, DEBUGGING, OCTETS
 13 .debug_ranges 0000c7a8  00000000  00000000  001ec465  2**0
                  CONTENTS, READONLY, DEBUGGING, OCTETS
 14 .debug_macro  0003efb0  00000000  00000000  001f8c0d  2**0
                  CONTENTS, READONLY, DEBUGGING, OCTETS
 15 .debug_line   0004f01b  00000000  00000000  00237bbd  2**0
                  CONTENTS, READONLY, DEBUGGING, OCTETS
 16 .debug_str    00142893  00000000  00000000  00286bd8  2**0
                  CONTENTS, READONLY, DEBUGGING, OCTETS
 17 .debug_frame  00009ac8  00000000  00000000  003c946c  2**2
                  CONTENTS, READONLY, DEBUGGING, OCTETS

Disassembly of section .text:

000b401c <module_user_pre_init>:
/**
 * Initializes this user module. Returns the start of the heap.
 */
void* module_user_pre_init() {

    if ( (&link_global_data_start!=&link_global_data_initial_values) && (link_global_data_size != 0))
   b401c:	4809      	ldr	r0, [pc, #36]	; (b4044 <module_user_pre_init+0x28>)
   b401e:	490a      	ldr	r1, [pc, #40]	; (b4048 <module_user_pre_init+0x2c>)
   b4020:	4288      	cmp	r0, r1
void* module_user_pre_init() {
   b4022:	b508      	push	{r3, lr}
    if ( (&link_global_data_start!=&link_global_data_initial_values) && (link_global_data_size != 0))
   b4024:	d005      	beq.n	b4032 <module_user_pre_init+0x16>
   b4026:	4a09      	ldr	r2, [pc, #36]	; (b404c <module_user_pre_init+0x30>)
   b4028:	4282      	cmp	r2, r0
   b402a:	d002      	beq.n	b4032 <module_user_pre_init+0x16>
    {
        memcpy(&link_global_data_start, &link_global_data_initial_values, link_global_data_size);
   b402c:	1a12      	subs	r2, r2, r0
   b402e:	f005 fc4f 	bl	b98d0 <memcpy>
    }

    memset(&link_bss_location, 0, link_bss_size );
   b4032:	4807      	ldr	r0, [pc, #28]	; (b4050 <module_user_pre_init+0x34>)
   b4034:	4a07      	ldr	r2, [pc, #28]	; (b4054 <module_user_pre_init+0x38>)
   b4036:	2100      	movs	r1, #0
   b4038:	1a12      	subs	r2, r2, r0
   b403a:	f005 fc71 	bl	b9920 <memset>
    return &link_global_data_start;
}
   b403e:	4801      	ldr	r0, [pc, #4]	; (b4044 <module_user_pre_init+0x28>)
   b4040:	bd08      	pop	{r3, pc}
   b4042:	bf00      	nop
   b4044:	2003b6b4 	.word	0x2003b6b4
   b4048:	000bafd8 	.word	0x000bafd8
   b404c:	2003b73c 	.word	0x2003b73c
   b4050:	2003b73c 	.word	0x2003b73c
   b4054:	2003e7ed 	.word	0x2003e7ed

000b4058 <module_user_init>:
extern constructor_ptr_t link_constructors_location[];
extern constructor_ptr_t link_constructors_end;
#define link_constructors_size   ((unsigned long)&link_constructors_end  -  (unsigned long)&link_constructors_location )

void module_user_init()
{
   b4058:	b570      	push	{r4, r5, r6, lr}
    module_user_init_hook();

    // invoke constructors
    for (size_t ctor_num=0; ctor_num < link_constructors_size/sizeof(constructor_ptr_t); ctor_num++ )
   b405a:	4e07      	ldr	r6, [pc, #28]	; (b4078 <module_user_init+0x20>)
   b405c:	4c07      	ldr	r4, [pc, #28]	; (b407c <module_user_init+0x24>)
    module_user_init_hook();
   b405e:	f005 f9b3 	bl	b93c8 <module_user_init_hook>
    for (size_t ctor_num=0; ctor_num < link_constructors_size/sizeof(constructor_ptr_t); ctor_num++ )
   b4062:	1ba4      	subs	r4, r4, r6
   b4064:	08a4      	lsrs	r4, r4, #2
   b4066:	2500      	movs	r5, #0
   b4068:	42ac      	cmp	r4, r5
   b406a:	d100      	bne.n	b406e <module_user_init+0x16>
    {
        link_constructors_location[ctor_num]();
    }
}
   b406c:	bd70      	pop	{r4, r5, r6, pc}
        link_constructors_location[ctor_num]();
   b406e:	f856 3b04 	ldr.w	r3, [r6], #4
   b4072:	4798      	blx	r3
    for (size_t ctor_num=0; ctor_num < link_constructors_size/sizeof(constructor_ptr_t); ctor_num++ )
   b4074:	3501      	adds	r5, #1
   b4076:	e7f7      	b.n	b4068 <module_user_init+0x10>
   b4078:	000baf80 	.word	0x000baf80
   b407c:	000bafa8 	.word	0x000bafa8

000b4080 <module_user_setup>:

/**
 * Export these functions with a fuller name so they don't clash with the setup/loop wrappers in the system module.
 */
void module_user_setup() {
    setup();
   b4080:	f000 bd6a 	b.w	b4b58 <setup>

000b4084 <module_user_loop>:
}

void module_user_loop() {
   b4084:	b508      	push	{r3, lr}
    loop();
   b4086:	f000 ff69 	bl	b4f5c <loop>
    _post_loop();
}
   b408a:	e8bd 4008 	ldmia.w	sp!, {r3, lr}
    _post_loop();
   b408e:	f005 b953 	b.w	b9338 <_post_loop>

000b4092 <_Znwj>:
 * Implement C++ new/delete operators using the heap
 */

void *operator new(size_t size)
{
	return malloc(size);
   b4092:	f002 bf91 	b.w	b6fb8 <malloc>

000b4096 <_Znaj>:
   b4096:	f002 bf8f 	b.w	b6fb8 <malloc>

000b409a <_ZdlPvj>:
	free(p);
}

void operator delete(void *p, size_t size)
{
	free(p);
   b409a:	f002 bf95 	b.w	b6fc8 <free>
	...

000b40a0 <__cxa_pure_virtual>:
int __wrap_printf(const char* fmt, ...) {
    return -1;
}

/* Default implementation for call made to pure virtual function. */
void __cxa_pure_virtual() {
   b40a0:	b508      	push	{r3, lr}
  PANIC(PureVirtualCall,"Call on pure virtual");
   b40a2:	4a03      	ldr	r2, [pc, #12]	; (b40b0 <__cxa_pure_virtual+0x10>)
   b40a4:	4903      	ldr	r1, [pc, #12]	; (b40b4 <__cxa_pure_virtual+0x14>)
   b40a6:	200c      	movs	r0, #12
   b40a8:	f002 fe8a 	bl	b6dc0 <panic_>
  while (1);
   b40ac:	e7fe      	b.n	b40ac <__cxa_pure_virtual+0xc>
   b40ae:	bf00      	nop
   b40b0:	000b6b81 	.word	0x000b6b81
   b40b4:	000b9cf0 	.word	0x000b9cf0

000b40b8 <__cxa_guard_acquire>:

/* Provide default implemenation for __cxa_guard_acquire() and
 * __cxa_guard_release(). Note: these must be revisited if a multitasking
 * OS is ported to this platform. */
__extension__ typedef int __guard __attribute__((mode (__DI__)));
int __cxa_guard_acquire(__guard *g) {return !*(char *)(g);};
   b40b8:	7800      	ldrb	r0, [r0, #0]
   b40ba:	fab0 f080 	clz	r0, r0
   b40be:	0940      	lsrs	r0, r0, #5
   b40c0:	4770      	bx	lr

000b40c2 <__cxa_guard_release>:
void __cxa_guard_release (__guard *g) {*(char *)g = 1;};
   b40c2:	2301      	movs	r3, #1
   b40c4:	7003      	strb	r3, [r0, #0]
   b40c6:	4770      	bx	lr

000b40c8 <_ZN5spark10LogHandler5writeEPKcj>:
    }
}

inline void spark::LogHandler::write(const char *data, size_t size) {
    // Default implementation does nothing
}
   b40c8:	4770      	bx	lr

000b40ca <_ZN5spark16StreamLogHandler5writeEPKcj>:
inline Print* spark::StreamLogHandler::stream() const {
    return stream_;
}

inline void spark::StreamLogHandler::write(const char *data, size_t size) {
    stream_->write((const uint8_t*)data, size);
   b40ca:	6a00      	ldr	r0, [r0, #32]
   b40cc:	6803      	ldr	r3, [r0, #0]
   b40ce:	68db      	ldr	r3, [r3, #12]
   b40d0:	4718      	bx	r3
	...

000b40d4 <_ZN16JsonParserStaticILj3072ELj550EED1Ev>:
 *
 * @param MAX_TOKENS The maximum number of tokens you expect. Each object has a token and two for each key/value pair.
 * Each array is a token and one for each element in the array.
 */
template <size_t BUFFER_SIZE, size_t MAX_TOKENS>
class JsonParserStatic : public JsonParser {
   b40d4:	b510      	push	{r4, lr}
   b40d6:	4b03      	ldr	r3, [pc, #12]	; (b40e4 <_ZN16JsonParserStaticILj3072ELj550EED1Ev+0x10>)
   b40d8:	6003      	str	r3, [r0, #0]
   b40da:	4604      	mov	r4, r0
   b40dc:	f001 f808 	bl	b50f0 <_ZN10JsonParserD1Ev>
   b40e0:	4620      	mov	r0, r4
   b40e2:	bd10      	pop	{r4, pc}
   b40e4:	000ba898 	.word	0x000ba898

000b40e8 <_ZN16JsonParserStaticILj3072ELj550EED0Ev>:
   b40e8:	b510      	push	{r4, lr}
   b40ea:	4604      	mov	r4, r0
   b40ec:	f7ff fff2 	bl	b40d4 <_ZN16JsonParserStaticILj3072ELj550EED1Ev>
   b40f0:	4620      	mov	r0, r4
   b40f2:	f642 618c 	movw	r1, #11916	; 0x2e8c
   b40f6:	f7ff ffd0 	bl	b409a <_ZdlPvj>
   b40fa:	4620      	mov	r0, r4
   b40fc:	bd10      	pop	{r4, pc}

000b40fe <_ZNK10JsonParser13getValueByKeyIiEEbPKN21JsonParserGeneratorRK9jsmntok_tEPKcRT_.isra.0>:
	bool getValueByKey(const JsonParserGeneratorRK::jsmntok_t *container, const char *name, T &result) const {
   b40fe:	b537      	push	{r0, r1, r2, r4, r5, lr}
   b4100:	461d      	mov	r5, r3
		if (getValueTokenByKey(container, name, value)) {
   b4102:	ab01      	add	r3, sp, #4
	bool getValueByKey(const JsonParserGeneratorRK::jsmntok_t *container, const char *name, T &result) const {
   b4104:	4604      	mov	r4, r0
		if (getValueTokenByKey(container, name, value)) {
   b4106:	f001 f9d9 	bl	b54bc <_ZNK10JsonParser18getValueTokenByKeyEPKN21JsonParserGeneratorRK9jsmntok_tEPKcRS3_>
   b410a:	b120      	cbz	r0, b4116 <_ZNK10JsonParser13getValueByKeyIiEEbPKN21JsonParserGeneratorRK9jsmntok_tEPKcRT_.isra.0+0x18>
			return getTokenValue(value, result);
   b410c:	9901      	ldr	r1, [sp, #4]
   b410e:	462a      	mov	r2, r5
   b4110:	4620      	mov	r0, r4
   b4112:	f001 f8e5 	bl	b52e0 <_ZNK10JsonParser13getTokenValueEPKN21JsonParserGeneratorRK9jsmntok_tERi>
	}
   b4116:	b003      	add	sp, #12
   b4118:	bd30      	pop	{r4, r5, pc}
	...

000b411c <_ZN5spark16SerialLogHandlerD1Ev>:
            StreamLogHandler(Serial, level, filters) {
        Serial.begin(baud);
        LogManager::instance()->addHandler(this);
    }

    virtual ~SerialLogHandler() {
   b411c:	4b0a      	ldr	r3, [pc, #40]	; (b4148 <_ZN5spark16SerialLogHandlerD1Ev+0x2c>)
   b411e:	b510      	push	{r4, lr}
   b4120:	4604      	mov	r4, r0
   b4122:	6003      	str	r3, [r0, #0]
        LogManager::instance()->removeHandler(this);
   b4124:	f003 ff6c 	bl	b8000 <_ZN5spark10LogManager8instanceEv>
   b4128:	4621      	mov	r1, r4
   b412a:	f004 f9a4 	bl	b8476 <_ZN5spark10LogManager13removeHandlerEPNS_10LogHandlerE>
        Serial.end();
   b412e:	f005 f8bb 	bl	b92a8 <_Z16_fetch_usbserialv>
   b4132:	f005 f8ad 	bl	b9290 <_ZN9USBSerial3endEv>
    virtual ~LogHandler() = default;
   b4136:	4620      	mov	r0, r4
   b4138:	4b04      	ldr	r3, [pc, #16]	; (b414c <_ZN5spark16SerialLogHandlerD1Ev+0x30>)
   b413a:	f840 3b04 	str.w	r3, [r0], #4
   b413e:	f004 f835 	bl	b81ac <_ZN5spark6detail9LogFilterD1Ev>
    }
   b4142:	4620      	mov	r0, r4
   b4144:	bd10      	pop	{r4, pc}
   b4146:	bf00      	nop
   b4148:	000ba880 	.word	0x000ba880
   b414c:	000ba868 	.word	0x000ba868

000b4150 <_ZN5spark16SerialLogHandlerD0Ev>:
    virtual ~SerialLogHandler() {
   b4150:	b510      	push	{r4, lr}
   b4152:	4604      	mov	r4, r0
    }
   b4154:	f7ff ffe2 	bl	b411c <_ZN5spark16SerialLogHandlerD1Ev>
   b4158:	4620      	mov	r0, r4
   b415a:	2124      	movs	r1, #36	; 0x24
   b415c:	f7ff ff9d 	bl	b409a <_ZdlPvj>
   b4160:	4620      	mov	r0, r4
   b4162:	bd10      	pop	{r4, pc}

000b4164 <_ZNK5spark6Logger4infoEPKcz>:
    va_start(args, fmt);
    log(LOG_LEVEL_TRACE, fmt, args);
    va_end(args);
}

inline void spark::Logger::info(const char *fmt, ...) const {
   b4164:	b40e      	push	{r1, r2, r3}
   b4166:	b500      	push	{lr}
   b4168:	b08c      	sub	sp, #48	; 0x30
   b416a:	aa0d      	add	r2, sp, #52	; 0x34
}

inline void spark::Logger::log(LogLevel level, const char *fmt, va_list args) const {
    LogAttributes attr;
    attr.size = sizeof(LogAttributes);
    attr.flags = 0;
   b416c:	f04f 0c20 	mov.w	ip, #32
inline void spark::Logger::info(const char *fmt, ...) const {
   b4170:	f852 1b04 	ldr.w	r1, [r2], #4
    va_start(args, fmt);
   b4174:	9203      	str	r2, [sp, #12]
    log_message_v(level, name_, &attr, nullptr, fmt, args);
   b4176:	e9cd 1200 	strd	r1, r2, [sp]
    attr.flags = 0;
   b417a:	2300      	movs	r3, #0
    log_message_v(level, name_, &attr, nullptr, fmt, args);
   b417c:	6801      	ldr	r1, [r0, #0]
   b417e:	aa04      	add	r2, sp, #16
   b4180:	201e      	movs	r0, #30
    attr.flags = 0;
   b4182:	e9cd c304 	strd	ip, r3, [sp, #16]
    log_message_v(level, name_, &attr, nullptr, fmt, args);
   b4186:	f002 fe23 	bl	b6dd0 <log_message_v>
}
   b418a:	b00c      	add	sp, #48	; 0x30
   b418c:	f85d eb04 	ldr.w	lr, [sp], #4
   b4190:	b003      	add	sp, #12
   b4192:	4770      	bx	lr

000b4194 <_Z10printTokenR10JsonParserPKN21JsonParserGeneratorRK9jsmntok_tE.part.0>:
	}

	Log.info("Total tokens=%d (%4.2f%% full) storage=%d (%4.2f%% full)", tokenCount, (100*((float)tokenCount/(float)jp.getMaxTokens())), storageSize, (100*((float)storageSize/(float)jp.getBufferLen())));
}

void printToken(JsonParser &jp, const JsonParserGeneratorRK::jsmntok_t *tok) {
   b4194:	b5f0      	push	{r4, r5, r6, r7, lr}
		typeName = "UNDEFINED";
		break;

	case JsonParserGeneratorRK::JSMN_OBJECT:
		typeName = "OBJECT";
		memcpy(tempBuf, jp.getBuffer() + tok->start, tok->end - tok->start);
   b4196:	e9d1 5601 	ldrd	r5, r6, [r1, #4]
void printToken(JsonParser &jp, const JsonParserGeneratorRK::jsmntok_t *tok) {
   b419a:	f2ad 4d14 	subw	sp, sp, #1044	; 0x414
   b419e:	460c      	mov	r4, r1
		memcpy(tempBuf, jp.getBuffer() + tok->start, tok->end - tok->start);
   b41a0:	6841      	ldr	r1, [r0, #4]
   b41a2:	ab04      	add	r3, sp, #16
   b41a4:	1b77      	subs	r7, r6, r5
   b41a6:	463a      	mov	r2, r7
   b41a8:	4429      	add	r1, r5
   b41aa:	4618      	mov	r0, r3
   b41ac:	f005 fb90 	bl	b98d0 <memcpy>
		tempBuf[tok->end - tok->start] = 0;
		Log.info("type=%s start=%d end=%d tokens=%d - %s", typeName, tok->start, tok->end, tok->size, tempBuf);
   b41b0:	68e3      	ldr	r3, [r4, #12]
   b41b2:	4907      	ldr	r1, [pc, #28]	; (b41d0 <_Z10printTokenR10JsonParserPKN21JsonParserGeneratorRK9jsmntok_tE.part.0+0x3c>)
		tempBuf[tok->end - tok->start] = 0;
   b41b4:	2200      	movs	r2, #0
   b41b6:	55c2      	strb	r2, [r0, r7]
		Log.info("type=%s start=%d end=%d tokens=%d - %s", typeName, tok->start, tok->end, tok->size, tempBuf);
   b41b8:	e9cd 6300 	strd	r6, r3, [sp]
   b41bc:	9002      	str	r0, [sp, #8]
   b41be:	4a05      	ldr	r2, [pc, #20]	; (b41d4 <_Z10printTokenR10JsonParserPKN21JsonParserGeneratorRK9jsmntok_tE.part.0+0x40>)
   b41c0:	4805      	ldr	r0, [pc, #20]	; (b41d8 <_Z10printTokenR10JsonParserPKN21JsonParserGeneratorRK9jsmntok_tE.part.0+0x44>)
   b41c2:	462b      	mov	r3, r5
   b41c4:	f7ff ffce 	bl	b4164 <_ZNK5spark6Logger4infoEPKcz>
	case JsonParserGeneratorRK::JSMN_PRIMITIVE:
		typeName = "PRIMITIVE";
		break;
	}

}
   b41c8:	f20d 4d14 	addw	sp, sp, #1044	; 0x414
   b41cc:	bdf0      	pop	{r4, r5, r6, r7, pc}
   b41ce:	bf00      	nop
   b41d0:	000b9d0c 	.word	0x000b9d0c
   b41d4:	000b9d05 	.word	0x000b9d05
   b41d8:	2003e6b0 	.word	0x2003e6b0

000b41dc <_ZN10JsonWriter11insertValueEi>:
	 * @brief Inserts an integer value.
	 *
	 * You would normally use insertKeyValue() or insertArrayValue() instead of calling this directly
	 * as those functions take care of inserting the separators between items.
	 */
	void insertValue(int value) { insertsprintf("%d", value); }
   b41dc:	460a      	mov	r2, r1
   b41de:	4901      	ldr	r1, [pc, #4]	; (b41e4 <_ZN10JsonWriter11insertValueEi+0x8>)
   b41e0:	f001 b9f1 	b.w	b55c6 <_ZN10JsonWriter13insertsprintfEPKcz>
   b41e4:	000ba665 	.word	0x000ba665

000b41e8 <_Z7getTypei>:
byte getType(int nodeNumber) {
   b41e8:	b513      	push	{r0, r1, r4, lr}
   b41ea:	4604      	mov	r4, r0
	jp.getValueTokenByKey(jp.getOuterObject(), "nodes", nodesArrayContainer);
   b41ec:	480c      	ldr	r0, [pc, #48]	; (b4220 <_Z7getTypei+0x38>)
   b41ee:	f000 fffc 	bl	b51ea <_ZNK10JsonParser14getOuterObjectEv>
   b41f2:	4a0c      	ldr	r2, [pc, #48]	; (b4224 <_Z7getTypei+0x3c>)
   b41f4:	4601      	mov	r1, r0
   b41f6:	ab01      	add	r3, sp, #4
   b41f8:	4809      	ldr	r0, [pc, #36]	; (b4220 <_Z7getTypei+0x38>)
   b41fa:	f001 f95f 	bl	b54bc <_ZNK10JsonParser18getValueTokenByKeyEPKN21JsonParserGeneratorRK9jsmntok_tEPKcRS3_>
	nodeObjectContainer = jp.getTokenByIndex(nodesArrayContainer, nodeNumber-1);
   b41fe:	9901      	ldr	r1, [sp, #4]
   b4200:	4807      	ldr	r0, [pc, #28]	; (b4220 <_Z7getTypei+0x38>)
   b4202:	1e62      	subs	r2, r4, #1
   b4204:	f001 f813 	bl	b522e <_ZNK10JsonParser15getTokenByIndexEPKN21JsonParserGeneratorRK9jsmntok_tEj>
	if(nodeObjectContainer == NULL) return false;								// Ran out of entries
   b4208:	b138      	cbz	r0, b421a <_Z7getTypei+0x32>
	jp.getValueByKey(nodeObjectContainer, "type", type);
   b420a:	4601      	mov	r1, r0
   b420c:	4a06      	ldr	r2, [pc, #24]	; (b4228 <_Z7getTypei+0x40>)
   b420e:	4804      	ldr	r0, [pc, #16]	; (b4220 <_Z7getTypei+0x38>)
   b4210:	466b      	mov	r3, sp
   b4212:	f7ff ff74 	bl	b40fe <_ZNK10JsonParser13getValueByKeyIiEEbPKN21JsonParserGeneratorRK9jsmntok_tEPKcRT_.isra.0>
	return type;
   b4216:	f89d 0000 	ldrb.w	r0, [sp]
}
   b421a:	b002      	add	sp, #8
   b421c:	bd10      	pop	{r4, pc}
   b421e:	bf00      	nop
   b4220:	2003b774 	.word	0x2003b774
   b4224:	000b9d33 	.word	0x000b9d33
   b4228:	000b9d39 	.word	0x000b9d39

000b422c <_Z10printTokenR10JsonParserPKN21JsonParserGeneratorRK9jsmntok_tE>:
	switch(tok->type) {
   b422c:	780b      	ldrb	r3, [r1, #0]
   b422e:	2b01      	cmp	r3, #1
   b4230:	d101      	bne.n	b4236 <_Z10printTokenR10JsonParserPKN21JsonParserGeneratorRK9jsmntok_tE+0xa>
   b4232:	f7ff bfaf 	b.w	b4194 <_Z10printTokenR10JsonParserPKN21JsonParserGeneratorRK9jsmntok_tE.part.0>
}
   b4236:	4770      	bx	lr

000b4238 <_Z14decompressDatahPhS_>:
        bitOffset += bitSizes[i];
    }
    return compressedData;
}

void decompressData(uint8_t compressedData, uint8_t data[], uint8_t bitSizes[]) {
   b4238:	b5f0      	push	{r4, r5, r6, r7, lr}
   b423a:	3901      	subs	r1, #1
   b423c:	1e55      	subs	r5, r2, #1
    uint8_t bitOffset = 0;
   b423e:	2400      	movs	r4, #0
   b4240:	3203      	adds	r2, #3
    for (uint8_t i = 0; i < 4; ++i) {
        data[i] = (compressedData >> bitOffset) & ((1 << bitSizes[i]) - 1);
   b4242:	2701      	movs	r7, #1
   b4244:	f815 3f01 	ldrb.w	r3, [r5, #1]!
   b4248:	fa07 f303 	lsl.w	r3, r7, r3
   b424c:	fa40 f604 	asr.w	r6, r0, r4
   b4250:	3b01      	subs	r3, #1
   b4252:	4033      	ands	r3, r6
   b4254:	f801 3f01 	strb.w	r3, [r1, #1]!
        bitOffset += bitSizes[i];
   b4258:	782b      	ldrb	r3, [r5, #0]
    for (uint8_t i = 0; i < 4; ++i) {
   b425a:	42aa      	cmp	r2, r5
        bitOffset += bitSizes[i];
   b425c:	441c      	add	r4, r3
   b425e:	b2e4      	uxtb	r4, r4
    for (uint8_t i = 0; i < 4; ++i) {
   b4260:	d1f0      	bne.n	b4244 <_Z14decompressDatahPhS_+0xc>
    }
}
   b4262:	bdf0      	pop	{r4, r5, r6, r7, pc}

000b4264 <_ZNSt14__shared_countILN9__gnu_cxx12_Lock_policyE0EED1Ev>:
      explicit __shared_count(const __weak_count<_Lp>& __r);

      // Does not throw if __r._M_get_use_count() == 0, caller must check.
      explicit __shared_count(const __weak_count<_Lp>& __r, std::nothrow_t);

      ~__shared_count() noexcept
   b4264:	b538      	push	{r3, r4, r5, lr}
      {
	if (_M_pi != nullptr)
   b4266:	6804      	ldr	r4, [r0, #0]
      ~__shared_count() noexcept
   b4268:	4605      	mov	r5, r0
	if (_M_pi != nullptr)
   b426a:	b17c      	cbz	r4, b428c <_ZNSt14__shared_countILN9__gnu_cxx12_Lock_policyE0EED1Ev+0x28>
      if (--_M_use_count == 0)
   b426c:	6863      	ldr	r3, [r4, #4]
   b426e:	3b01      	subs	r3, #1
   b4270:	6063      	str	r3, [r4, #4]
   b4272:	b95b      	cbnz	r3, b428c <_ZNSt14__shared_countILN9__gnu_cxx12_Lock_policyE0EED1Ev+0x28>
          _M_dispose();
   b4274:	6823      	ldr	r3, [r4, #0]
   b4276:	4620      	mov	r0, r4
   b4278:	689b      	ldr	r3, [r3, #8]
   b427a:	4798      	blx	r3
          if (--_M_weak_count == 0)
   b427c:	68a3      	ldr	r3, [r4, #8]
   b427e:	3b01      	subs	r3, #1
   b4280:	60a3      	str	r3, [r4, #8]
   b4282:	b91b      	cbnz	r3, b428c <_ZNSt14__shared_countILN9__gnu_cxx12_Lock_policyE0EED1Ev+0x28>
            _M_destroy();
   b4284:	6823      	ldr	r3, [r4, #0]
   b4286:	4620      	mov	r0, r4
   b4288:	68db      	ldr	r3, [r3, #12]
   b428a:	4798      	blx	r3
	  _M_pi->_M_release();
      }
   b428c:	4628      	mov	r0, r5
   b428e:	bd38      	pop	{r3, r4, r5, pc}

000b4290 <_Z11printTokensR10JsonParserb>:
void printTokens(JsonParser &jp, bool verbose) {
   b4290:	e92d 43f0 	stmdb	sp!, {r4, r5, r6, r7, r8, r9, lr}
   b4294:	ed2d 8b02 	vpush	{d8}
   b4298:	4604      	mov	r4, r0
   b429a:	f6ad 4d2c 	subw	sp, sp, #3116	; 0xc2c
	if (verbose) Log.info("printing tokens");
   b429e:	460e      	mov	r6, r1
   b42a0:	b119      	cbz	r1, b42aa <_Z11printTokensR10JsonParserb+0x1a>
   b42a2:	493b      	ldr	r1, [pc, #236]	; (b4390 <_Z11printTokensR10JsonParserb+0x100>)
   b42a4:	483b      	ldr	r0, [pc, #236]	; (b4394 <_Z11printTokensR10JsonParserb+0x104>)
   b42a6:	f7ff ff5d 	bl	b4164 <_ZNK5spark6Logger4infoEPKcz>
	JsonParserGeneratorRK::jsmntok_t *getTokens() { return tokens; };
   b42aa:	e9d4 5905 	ldrd	r5, r9, [r4, #20]
	memcpy(tempBuf, jp.getBuffer() + tok->start, tok->end - tok->start);
   b42ae:	e9d5 3201 	ldrd	r3, r2, [r5, #4]
   b42b2:	6861      	ldr	r1, [r4, #4]
   b42b4:	1ad2      	subs	r2, r2, r3
   b42b6:	4419      	add	r1, r3
   b42b8:	a809      	add	r0, sp, #36	; 0x24
   b42ba:	f005 fb09 	bl	b98d0 <memcpy>
	tempBuf[tok->end - tok->start] = 0;
   b42be:	e9d5 2301 	ldrd	r2, r3, [r5, #4]
   b42c2:	a909      	add	r1, sp, #36	; 0x24
   b42c4:	1a9b      	subs	r3, r3, r2
   b42c6:	2200      	movs	r2, #0
   b42c8:	54ca      	strb	r2, [r1, r3]
	storageSize += tok->end;
   b42ca:	f8d5 8008 	ldr.w	r8, [r5, #8]
	if (verbose) Log.info("Outer object start=%d end=%d tokens=%d - %s", tok->start, tok->end, tok->size, tempBuf);
   b42ce:	b146      	cbz	r6, b42e2 <_Z11printTokensR10JsonParserb+0x52>
   b42d0:	9101      	str	r1, [sp, #4]
   b42d2:	68eb      	ldr	r3, [r5, #12]
   b42d4:	9300      	str	r3, [sp, #0]
   b42d6:	686a      	ldr	r2, [r5, #4]
   b42d8:	492f      	ldr	r1, [pc, #188]	; (b4398 <_Z11printTokensR10JsonParserb+0x108>)
   b42da:	482e      	ldr	r0, [pc, #184]	; (b4394 <_Z11printTokensR10JsonParserb+0x104>)
   b42dc:	4643      	mov	r3, r8
   b42de:	f7ff ff41 	bl	b4164 <_ZNK5spark6Logger4infoEPKcz>
	sniprintf(tempBuf, sizeof(tempBuf), "test %s", charlike);
   b42e2:	4b2e      	ldr	r3, [pc, #184]	; (b439c <_Z11printTokensR10JsonParserb+0x10c>)
   b42e4:	4a2e      	ldr	r2, [pc, #184]	; (b43a0 <_Z11printTokensR10JsonParserb+0x110>)
   b42e6:	f640 4104 	movw	r1, #3076	; 0xc04
   b42ea:	a809      	add	r0, sp, #36	; 0x24
   b42ec:	f002 fe8c 	bl	b7008 <sniprintf>
inline particle::Flags<TagT, ValueT>::Flags(Flag<TagT, ValueT> flag) :
        val_(flag.value()) {
}

template<typename TagT, typename ValueT>
inline particle::Flags<TagT, ValueT>::Flags(ValueT val) :
   b42f0:	4b2c      	ldr	r3, [pc, #176]	; (b43a4 <_Z11printTokensR10JsonParserb+0x114>)
        return publish(eventName, eventData, DEFAULT_CLOUD_EVENT_TTL, flags1, flags2);
    }

    inline particle::Future<bool> publish(const char *eventName, const char *eventData, int ttl, PublishFlags flags1, PublishFlags flags2 = PublishFlags())
    {
        return publish_event(eventName, eventData, ttl, flags1 | flags2);
   b42f2:	492d      	ldr	r1, [pc, #180]	; (b43a8 <_Z11printTokensR10JsonParserb+0x118>)
   b42f4:	781b      	ldrb	r3, [r3, #0]
   b42f6:	f88d 3000 	strb.w	r3, [sp]
   b42fa:	aa09      	add	r2, sp, #36	; 0x24
   b42fc:	233c      	movs	r3, #60	; 0x3c
   b42fe:	a807      	add	r0, sp, #28
   b4300:	f003 f892 	bl	b7428 <_ZN10CloudClass13publish_eventEPKcS1_iN8particle5FlagsI15PublishFlagTypehEE>
	  __r._M_ptr = 0;
	}

      __shared_ptr(const __shared_ptr&) noexcept = default;
      __shared_ptr& operator=(const __shared_ptr&) noexcept = default;
      ~__shared_ptr() = default;
   b4304:	a808      	add	r0, sp, #32
   b4306:	f7ff ffad 	bl	b4264 <_ZNSt14__shared_countILN9__gnu_cxx12_Lock_policyE0EED1Ev>
   b430a:	6965      	ldr	r5, [r4, #20]
	int tokenCount = 0;
   b430c:	2700      	movs	r7, #0
	for(JsonParserGeneratorRK::jsmntok_t *tok = jp.getTokens(); tok < tokensEnd; tok++) {
   b430e:	454d      	cmp	r5, r9
   b4310:	d20b      	bcs.n	b432a <_Z11printTokensR10JsonParserb+0x9a>
		if (tok->start > 0) {
   b4312:	686b      	ldr	r3, [r5, #4]
   b4314:	2b00      	cmp	r3, #0
			tokenCount += tok->size;
   b4316:	bfc4      	itt	gt
   b4318:	68eb      	ldrgt	r3, [r5, #12]
   b431a:	18ff      	addgt	r7, r7, r3
		if (verbose) {
   b431c:	b11e      	cbz	r6, b4326 <_Z11printTokensR10JsonParserb+0x96>
			printToken(jp, tok);
   b431e:	4629      	mov	r1, r5
   b4320:	4620      	mov	r0, r4
   b4322:	f7ff ff83 	bl	b422c <_Z10printTokenR10JsonParserPKN21JsonParserGeneratorRK9jsmntok_tE>
	for(JsonParserGeneratorRK::jsmntok_t *tok = jp.getTokens(); tok < tokensEnd; tok++) {
   b4326:	3510      	adds	r5, #16
   b4328:	e7f1      	b.n	b430e <_Z11printTokensR10JsonParserb+0x7e>
	Log.info("Total tokens=%d (%4.2f%% full) storage=%d (%4.2f%% full)", tokenCount, (100*((float)tokenCount/(float)jp.getMaxTokens())), storageSize, (100*((float)storageSize/(float)jp.getBufferLen())));
   b432a:	ee07 8a90 	vmov	s15, r8
   b432e:	eef8 6ae7 	vcvt.f32.s32	s13, s15
   b4332:	edd4 7a02 	vldr	s15, [r4, #8]
   b4336:	ed9f 8a1d 	vldr	s16, [pc, #116]	; b43ac <_Z11printTokensR10JsonParserb+0x11c>
   b433a:	eef8 7a67 	vcvt.f32.u32	s15, s15
   b433e:	ee86 7aa7 	vdiv.f32	s14, s13, s15
   b4342:	ee67 7a08 	vmul.f32	s15, s14, s16
   b4346:	ee17 0a90 	vmov	r0, s15
   b434a:	f005 fa5b 	bl	b9804 <__aeabi_f2d>
   b434e:	ee07 7a90 	vmov	s15, r7
   b4352:	eef8 6ae7 	vcvt.f32.s32	s13, s15
   b4356:	edd4 7a07 	vldr	s15, [r4, #28]
   b435a:	f8cd 8008 	str.w	r8, [sp, #8]
   b435e:	eef8 7a67 	vcvt.f32.u32	s15, s15
   b4362:	e9cd 0104 	strd	r0, r1, [sp, #16]
   b4366:	ee86 7aa7 	vdiv.f32	s14, s13, s15
   b436a:	ee67 7a08 	vmul.f32	s15, s14, s16
   b436e:	ee17 0a90 	vmov	r0, s15
   b4372:	f005 fa47 	bl	b9804 <__aeabi_f2d>
   b4376:	463a      	mov	r2, r7
   b4378:	e9cd 0100 	strd	r0, r1, [sp]
   b437c:	490c      	ldr	r1, [pc, #48]	; (b43b0 <_Z11printTokensR10JsonParserb+0x120>)
   b437e:	4805      	ldr	r0, [pc, #20]	; (b4394 <_Z11printTokensR10JsonParserb+0x104>)
   b4380:	f7ff fef0 	bl	b4164 <_ZNK5spark6Logger4infoEPKcz>
}
   b4384:	f60d 4d2c 	addw	sp, sp, #3116	; 0xc2c
   b4388:	ecbd 8b02 	vpop	{d8}
   b438c:	e8bd 83f0 	ldmia.w	sp!, {r4, r5, r6, r7, r8, r9, pc}
   b4390:	000b9d3e 	.word	0x000b9d3e
   b4394:	2003e6b0 	.word	0x2003e6b0
   b4398:	000b9d4e 	.word	0x000b9d4e
   b439c:	000b9d7a 	.word	0x000b9d7a
   b43a0:	000b9d7f 	.word	0x000b9d7f
   b43a4:	2003b76c 	.word	0x2003b76c
   b43a8:	000b9d87 	.word	0x000b9d87
   b43ac:	42c80000 	.word	0x42c80000
   b43b0:	000b9d8c 	.word	0x000b9d8c

000b43b4 <_Z22parseJoinPayloadValueshhRhS_S_S_>:
bool parseJoinPayloadValues(uint8_t sensorType, uint8_t compressedJoinPayload, uint8_t& payload1, uint8_t& payload2, uint8_t& payload3, uint8_t& payload4) {
   b43b4:	b570      	push	{r4, r5, r6, lr}
   b43b6:	4604      	mov	r4, r0
   b43b8:	b086      	sub	sp, #24
   b43ba:	461d      	mov	r5, r3
    switch (sensorType) {
   b43bc:	2c13      	cmp	r4, #19
    uint8_t data[4] = {0};
   b43be:	f04f 0300 	mov.w	r3, #0
    uint8_t bitSizes[4] = {0};
   b43c2:	e9cd 3302 	strd	r3, r3, [sp, #8]
bool parseJoinPayloadValues(uint8_t sensorType, uint8_t compressedJoinPayload, uint8_t& payload1, uint8_t& payload2, uint8_t& payload3, uint8_t& payload4) {
   b43c6:	4608      	mov	r0, r1
   b43c8:	4616      	mov	r6, r2
    switch (sensorType) {
   b43ca:	d81c      	bhi.n	b4406 <_Z22parseJoinPayloadValueshhRhS_S_S_+0x52>
   b43cc:	2c09      	cmp	r4, #9
   b43ce:	d83c      	bhi.n	b444a <_Z22parseJoinPayloadValueshhRhS_S_S_+0x96>
   b43d0:	1e63      	subs	r3, r4, #1
   b43d2:	2b08      	cmp	r3, #8
   b43d4:	d922      	bls.n	b441c <_Z22parseJoinPayloadValueshhRhS_S_S_+0x68>
            Log.info("Unknown sensor type in parseJoinPayloadValues %d", sensorType);
   b43d6:	4921      	ldr	r1, [pc, #132]	; (b445c <_Z22parseJoinPayloadValueshhRhS_S_S_+0xa8>)
   b43d8:	4821      	ldr	r0, [pc, #132]	; (b4460 <_Z22parseJoinPayloadValueshhRhS_S_S_+0xac>)
   b43da:	4622      	mov	r2, r4
   b43dc:	f7ff fec2 	bl	b4164 <_ZNK5spark6Logger4infoEPKcz>
    static void sleep(Spark_Sleep_TypeDef sleepMode, long seconds=0) __attribute__ ((deprecated("Please use System.sleep() instead.")))
    { SystemClass::sleep(sleepMode, seconds); }
    static void sleep(uint16_t wakeUpPin, InterruptMode edgeTriggerMode, long seconds=0) __attribute__ ((deprecated("Please use System.sleep() instead.")))
    { SystemClass::sleep(wakeUpPin, edgeTriggerMode, seconds); }

    static bool connected(void) { return spark_cloud_flag_connected(); }
   b43e0:	f002 fd6a 	bl	b6eb8 <spark_cloud_flag_connected>
            if (Particle.connected()) Particle.publish("Alert", "Unknown sensor type in parseJoinPayloadValues", PRIVATE);
   b43e4:	b168      	cbz	r0, b4402 <_Z22parseJoinPayloadValueshhRhS_S_S_+0x4e>
   b43e6:	4b1f      	ldr	r3, [pc, #124]	; (b4464 <_Z22parseJoinPayloadValueshhRhS_S_S_+0xb0>)
        return publish_event(eventName, eventData, ttl, flags1 | flags2);
   b43e8:	4a1f      	ldr	r2, [pc, #124]	; (b4468 <_Z22parseJoinPayloadValueshhRhS_S_S_+0xb4>)
   b43ea:	781b      	ldrb	r3, [r3, #0]
   b43ec:	491f      	ldr	r1, [pc, #124]	; (b446c <_Z22parseJoinPayloadValueshhRhS_S_S_+0xb8>)
   b43ee:	f88d 3000 	strb.w	r3, [sp]
   b43f2:	a804      	add	r0, sp, #16
   b43f4:	233c      	movs	r3, #60	; 0x3c
   b43f6:	f003 f817 	bl	b7428 <_ZN10CloudClass13publish_eventEPKcS1_iN8particle5FlagsI15PublishFlagTypehEE>
   b43fa:	a805      	add	r0, sp, #20
   b43fc:	f7ff ff32 	bl	b4264 <_ZNSt14__shared_countILN9__gnu_cxx12_Lock_policyE0EED1Ev>
            return false;
   b4400:	2000      	movs	r0, #0
}
   b4402:	b006      	add	sp, #24
   b4404:	bd70      	pop	{r4, r5, r6, pc}
    switch (sensorType) {
   b4406:	f1a4 0314 	sub.w	r3, r4, #20
   b440a:	2b09      	cmp	r3, #9
   b440c:	d8e3      	bhi.n	b43d6 <_Z22parseJoinPayloadValueshhRhS_S_S_+0x22>
            bitSizes[0] = 6; // space (6 bits)
   b440e:	2306      	movs	r3, #6
   b4410:	f88d 300c 	strb.w	r3, [sp, #12]
            bitSizes[1] = 1; // placement (1 bit)
   b4414:	2301      	movs	r3, #1
   b4416:	f88d 300d 	strb.w	r3, [sp, #13]
        } break;
   b441a:	e002      	b.n	b4422 <_Z22parseJoinPayloadValueshhRhS_S_S_+0x6e>
            bitSizes[0] = 1; // 2-Way (1 bit)
   b441c:	2301      	movs	r3, #1
   b441e:	f88d 300c 	strb.w	r3, [sp, #12]
    decompressData(compressedJoinPayload, data, bitSizes);
   b4422:	aa03      	add	r2, sp, #12
   b4424:	a902      	add	r1, sp, #8
   b4426:	f7ff ff07 	bl	b4238 <_Z14decompressDatahPhS_>
    payload1 = data[0];
   b442a:	f89d 3008 	ldrb.w	r3, [sp, #8]
   b442e:	7033      	strb	r3, [r6, #0]
    payload2 = data[1];
   b4430:	f89d 3009 	ldrb.w	r3, [sp, #9]
   b4434:	702b      	strb	r3, [r5, #0]
    payload3 = data[2];
   b4436:	9b0a      	ldr	r3, [sp, #40]	; 0x28
   b4438:	f89d 200a 	ldrb.w	r2, [sp, #10]
   b443c:	701a      	strb	r2, [r3, #0]
    payload4 = data[3];
   b443e:	9b0b      	ldr	r3, [sp, #44]	; 0x2c
   b4440:	f89d 200b 	ldrb.w	r2, [sp, #11]
   b4444:	701a      	strb	r2, [r3, #0]
    return true;
   b4446:	2001      	movs	r0, #1
   b4448:	e7db      	b.n	b4402 <_Z22parseJoinPayloadValueshhRhS_S_S_+0x4e>
            bitSizes[0] = 6; // space (6 bits)
   b444a:	2306      	movs	r3, #6
   b444c:	f88d 300c 	strb.w	r3, [sp, #12]
            bitSizes[1] = 1; // placement (1 bit)
   b4450:	2301      	movs	r3, #1
   b4452:	f88d 300d 	strb.w	r3, [sp, #13]
            bitSizes[2] = 1; // multi (1 bit)
   b4456:	f88d 300e 	strb.w	r3, [sp, #14]
        } break;
   b445a:	e7e2      	b.n	b4422 <_Z22parseJoinPayloadValueshhRhS_S_S_+0x6e>
   b445c:	000b9dc5 	.word	0x000b9dc5
   b4460:	2003e6b0 	.word	0x2003e6b0
   b4464:	2003b76c 	.word	0x2003b76c
   b4468:	000b9df6 	.word	0x000b9df6
   b446c:	000b9e24 	.word	0x000b9e24

000b4470 <_ZN5spark6VectorINS_17LogCategoryFilterENS_16DefaultAllocatorEED1Ev>:
inline spark::Vector<T, AllocatorT>::Vector(Vector<T, AllocatorT>&& vector) : Vector() {
    swap(*this, vector);
}

template<typename T, typename AllocatorT>
inline spark::Vector<T, AllocatorT>::~Vector() {
   b4470:	b570      	push	{r4, r5, r6, lr}
    destruct(data_, data_ + size_);
   b4472:	e9d0 5300 	ldrd	r5, r3, [r0]
   b4476:	2614      	movs	r6, #20
inline spark::Vector<T, AllocatorT>::~Vector() {
   b4478:	4604      	mov	r4, r0
    destruct(data_, data_ + size_);
   b447a:	fb06 5603 	mla	r6, r6, r3, r5
        for (; p != end; ++p) {
   b447e:	42ae      	cmp	r6, r5
   b4480:	d004      	beq.n	b448c <_ZN5spark6VectorINS_17LogCategoryFilterENS_16DefaultAllocatorEED1Ev+0x1c>
class LogCategoryFilter {
   b4482:	4628      	mov	r0, r5
   b4484:	f004 fd12 	bl	b8eac <_ZN6StringD1Ev>
   b4488:	3514      	adds	r5, #20
   b448a:	e7f8      	b.n	b447e <_ZN5spark6VectorINS_17LogCategoryFilterENS_16DefaultAllocatorEED1Ev+0xe>
    ::free(ptr);
   b448c:	6820      	ldr	r0, [r4, #0]
   b448e:	f002 fd9b 	bl	b6fc8 <free>
    AllocatorT::free(data_);
}
   b4492:	4620      	mov	r0, r4
   b4494:	bd70      	pop	{r4, r5, r6, pc}

000b4496 <_ZNK10JsonParser13getValueByKeyImEEbPKN21JsonParserGeneratorRK9jsmntok_tEPKcRT_>:
	bool getValueByKey(const JsonParserGeneratorRK::jsmntok_t *container, const char *name, T &result) const {
   b4496:	b537      	push	{r0, r1, r2, r4, r5, lr}
   b4498:	461d      	mov	r5, r3
		if (getValueTokenByKey(container, name, value)) {
   b449a:	ab01      	add	r3, sp, #4
	bool getValueByKey(const JsonParserGeneratorRK::jsmntok_t *container, const char *name, T &result) const {
   b449c:	4604      	mov	r4, r0
		if (getValueTokenByKey(container, name, value)) {
   b449e:	f001 f80d 	bl	b54bc <_ZNK10JsonParser18getValueTokenByKeyEPKN21JsonParserGeneratorRK9jsmntok_tEPKcRS3_>
   b44a2:	b120      	cbz	r0, b44ae <_ZNK10JsonParser13getValueByKeyImEEbPKN21JsonParserGeneratorRK9jsmntok_tEPKcRT_+0x18>
			return getTokenValue(value, result);
   b44a4:	9901      	ldr	r1, [sp, #4]
   b44a6:	462a      	mov	r2, r5
   b44a8:	4620      	mov	r0, r4
   b44aa:	f000 ff2b 	bl	b5304 <_ZNK10JsonParser13getTokenValueEPKN21JsonParserGeneratorRK9jsmntok_tERm>
	}
   b44ae:	b003      	add	sp, #12
   b44b0:	bd30      	pop	{r4, r5, pc}
	...

000b44b4 <_Z13printNodeDatab>:
int printNodeData(bool publish) {
   b44b4:	e92d 4ff0 	stmdb	sp!, {r4, r5, r6, r7, r8, r9, sl, fp, lr}
   b44b8:	4607      	mov	r7, r0
   b44ba:	f5ad 7d37 	sub.w	sp, sp, #732	; 0x2dc
	jp.getValueTokenByKey(jp.getOuterObject(), "nodes", nodesArrayContainer);
   b44be:	4878      	ldr	r0, [pc, #480]	; (b46a0 <_Z13printNodeDatab+0x1ec>)
		nodeObjectContainer = jp.getTokenByIndex(nodesArrayContainer, i);
   b44c0:	4d77      	ldr	r5, [pc, #476]	; (b46a0 <_Z13printNodeDatab+0x1ec>)
		jp.getValueByKey(nodeObjectContainer, "uID", uniqueID);
   b44c2:	f8df a21c 	ldr.w	sl, [pc, #540]	; b46e0 <_Z13printNodeDatab+0x22c>
		jp.getValueByKey(nodeObjectContainer, "node", nodeNumber);
   b44c6:	f8df b21c 	ldr.w	fp, [pc, #540]	; b46e4 <_Z13printNodeDatab+0x230>
	jp.getValueTokenByKey(jp.getOuterObject(), "nodes", nodesArrayContainer);
   b44ca:	f000 fe8e 	bl	b51ea <_ZNK10JsonParser14getOuterObjectEv>
   b44ce:	4a75      	ldr	r2, [pc, #468]	; (b46a4 <_Z13printNodeDatab+0x1f0>)
   b44d0:	4601      	mov	r1, r0
   b44d2:	ab14      	add	r3, sp, #80	; 0x50
   b44d4:	4872      	ldr	r0, [pc, #456]	; (b46a0 <_Z13printNodeDatab+0x1ec>)
   b44d6:	f000 fff1 	bl	b54bc <_ZNK10JsonParser18getValueTokenByKeyEPKN21JsonParserGeneratorRK9jsmntok_tEPKcRS3_>
	for (int i=0; i<100; i++) {												// Iterate through the array looking for a match
   b44da:	2600      	movs	r6, #0
		nodeObjectContainer = jp.getTokenByIndex(nodesArrayContainer, i);
   b44dc:	9914      	ldr	r1, [sp, #80]	; 0x50
   b44de:	4632      	mov	r2, r6
   b44e0:	4628      	mov	r0, r5
   b44e2:	f000 fea4 	bl	b522e <_ZNK10JsonParser15getTokenByIndexEPKN21JsonParserGeneratorRK9jsmntok_tEj>
		if(nodeObjectContainer == NULL) {
   b44e6:	4604      	mov	r4, r0
   b44e8:	2800      	cmp	r0, #0
   b44ea:	f000 80ab 	beq.w	b4644 <_Z13printNodeDatab+0x190>
		jp.getValueByKey(nodeObjectContainer, "uID", uniqueID);
   b44ee:	4601      	mov	r1, r0
   b44f0:	ab0d      	add	r3, sp, #52	; 0x34
   b44f2:	4652      	mov	r2, sl
   b44f4:	4628      	mov	r0, r5
   b44f6:	f7ff ffce 	bl	b4496 <_ZNK10JsonParser13getValueByKeyImEEbPKN21JsonParserGeneratorRK9jsmntok_tEPKcRT_>
		jp.getValueByKey(nodeObjectContainer, "node", nodeNumber);
   b44fa:	ab0c      	add	r3, sp, #48	; 0x30
   b44fc:	465a      	mov	r2, fp
   b44fe:	4621      	mov	r1, r4
   b4500:	4628      	mov	r0, r5
   b4502:	f7ff fdfc 	bl	b40fe <_ZNK10JsonParser13getValueByKeyIiEEbPKN21JsonParserGeneratorRK9jsmntok_tEPKcRT_.isra.0>
		jp.getValueByKey(nodeObjectContainer, "type", sensorType);
   b4506:	4a68      	ldr	r2, [pc, #416]	; (b46a8 <_Z13printNodeDatab+0x1f4>)
   b4508:	ab0e      	add	r3, sp, #56	; 0x38
   b450a:	4621      	mov	r1, r4
   b450c:	4628      	mov	r0, r5
   b450e:	f7ff fdf6 	bl	b40fe <_ZNK10JsonParser13getValueByKeyIiEEbPKN21JsonParserGeneratorRK9jsmntok_tEPKcRT_.isra.0>
		jp.getValueByKey(nodeObjectContainer, "p", compressedJoinPayload);
   b4512:	4a66      	ldr	r2, [pc, #408]	; (b46ac <_Z13printNodeDatab+0x1f8>)
   b4514:	ab0f      	add	r3, sp, #60	; 0x3c
   b4516:	4621      	mov	r1, r4
   b4518:	4628      	mov	r0, r5
   b451a:	f7ff fdf0 	bl	b40fe <_ZNK10JsonParser13getValueByKeyIiEEbPKN21JsonParserGeneratorRK9jsmntok_tEPKcRT_.isra.0>
		jp.getValueByKey(nodeObjectContainer, "p1", uncompressedJoinPayload1);
   b451e:	4a64      	ldr	r2, [pc, #400]	; (b46b0 <_Z13printNodeDatab+0x1fc>)
   b4520:	ab10      	add	r3, sp, #64	; 0x40
   b4522:	4621      	mov	r1, r4
   b4524:	4628      	mov	r0, r5
   b4526:	f7ff fdea 	bl	b40fe <_ZNK10JsonParser13getValueByKeyIiEEbPKN21JsonParserGeneratorRK9jsmntok_tEPKcRT_.isra.0>
		jp.getValueByKey(nodeObjectContainer, "p2", uncompressedJoinPayload2);
   b452a:	4a62      	ldr	r2, [pc, #392]	; (b46b4 <_Z13printNodeDatab+0x200>)
   b452c:	ab11      	add	r3, sp, #68	; 0x44
   b452e:	4621      	mov	r1, r4
   b4530:	4628      	mov	r0, r5
   b4532:	f7ff fde4 	bl	b40fe <_ZNK10JsonParser13getValueByKeyIiEEbPKN21JsonParserGeneratorRK9jsmntok_tEPKcRT_.isra.0>
		jp.getValueByKey(nodeObjectContainer, "pend", pendingAlertCode);
   b4536:	4a60      	ldr	r2, [pc, #384]	; (b46b8 <_Z13printNodeDatab+0x204>)
   b4538:	ab12      	add	r3, sp, #72	; 0x48
   b453a:	4621      	mov	r1, r4
   b453c:	4628      	mov	r0, r5
   b453e:	f7ff fdde 	bl	b40fe <_ZNK10JsonParser13getValueByKeyIiEEbPKN21JsonParserGeneratorRK9jsmntok_tEPKcRT_.isra.0>
		parseJoinPayloadValues(sensorType, compressedJoinPayload, payload1, payload2, payload3, payload4);
   b4542:	f10d 092f 	add.w	r9, sp, #47	; 0x2f
		jp.getValueByKey(nodeObjectContainer, "cont", pendingAlertContext);
   b4546:	4a5d      	ldr	r2, [pc, #372]	; (b46bc <_Z13printNodeDatab+0x208>)
   b4548:	ab13      	add	r3, sp, #76	; 0x4c
   b454a:	4621      	mov	r1, r4
   b454c:	4628      	mov	r0, r5
		parseJoinPayloadValues(sensorType, compressedJoinPayload, payload1, payload2, payload3, payload4);
   b454e:	f10d 082e 	add.w	r8, sp, #46	; 0x2e
		jp.getValueByKey(nodeObjectContainer, "cont", pendingAlertContext);
   b4552:	f7ff fdd4 	bl	b40fe <_ZNK10JsonParser13getValueByKeyIiEEbPKN21JsonParserGeneratorRK9jsmntok_tEPKcRT_.isra.0>
		parseJoinPayloadValues(sensorType, compressedJoinPayload, payload1, payload2, payload3, payload4);
   b4556:	aa0b      	add	r2, sp, #44	; 0x2c
   b4558:	f89d 103c 	ldrb.w	r1, [sp, #60]	; 0x3c
   b455c:	f89d 0038 	ldrb.w	r0, [sp, #56]	; 0x38
   b4560:	f8cd 9004 	str.w	r9, [sp, #4]
   b4564:	f8cd 8000 	str.w	r8, [sp]
   b4568:	f10d 032d 	add.w	r3, sp, #45	; 0x2d
   b456c:	f7ff ff22 	bl	b43b4 <_Z22parseJoinPayloadValueshhRhS_S_S_>
		switch (sensorType) {
   b4570:	9a0e      	ldr	r2, [sp, #56]	; 0x38
   b4572:	2a13      	cmp	r2, #19
   b4574:	dc1a      	bgt.n	b45ac <_Z13printNodeDatab+0xf8>
   b4576:	2a09      	cmp	r2, #9
   b4578:	dc1c      	bgt.n	b45b4 <_Z13printNodeDatab+0x100>
   b457a:	1e53      	subs	r3, r2, #1
   b457c:	2b08      	cmp	r3, #8
   b457e:	d973      	bls.n	b4668 <_Z13printNodeDatab+0x1b4>
				Log.info("Unknown sensor type in printNodeData %d", sensorType);
   b4580:	494f      	ldr	r1, [pc, #316]	; (b46c0 <_Z13printNodeDatab+0x20c>)
   b4582:	4850      	ldr	r0, [pc, #320]	; (b46c4 <_Z13printNodeDatab+0x210>)
   b4584:	f7ff fdee 	bl	b4164 <_ZNK5spark6Logger4infoEPKcz>
    static bool connected(void) { return spark_cloud_flag_connected(); }
   b4588:	f002 fc96 	bl	b6eb8 <spark_cloud_flag_connected>
				if (Particle.connected()) Particle.publish("Alert", "Unknown sensor type in printNodeData", PRIVATE);
   b458c:	2800      	cmp	r0, #0
   b458e:	d03c      	beq.n	b460a <_Z13printNodeDatab+0x156>
   b4590:	4b4d      	ldr	r3, [pc, #308]	; (b46c8 <_Z13printNodeDatab+0x214>)
        return publish_event(eventName, eventData, ttl, flags1 | flags2);
   b4592:	4a4e      	ldr	r2, [pc, #312]	; (b46cc <_Z13printNodeDatab+0x218>)
   b4594:	781b      	ldrb	r3, [r3, #0]
   b4596:	f88d 3000 	strb.w	r3, [sp]
   b459a:	a816      	add	r0, sp, #88	; 0x58
   b459c:	494c      	ldr	r1, [pc, #304]	; (b46d0 <_Z13printNodeDatab+0x21c>)
   b459e:	233c      	movs	r3, #60	; 0x3c
   b45a0:	f002 ff42 	bl	b7428 <_ZN10CloudClass13publish_eventEPKcS1_iN8particle5FlagsI15PublishFlagTypehEE>
   b45a4:	a817      	add	r0, sp, #92	; 0x5c
   b45a6:	f7ff fe5d 	bl	b4264 <_ZNSt14__shared_countILN9__gnu_cxx12_Lock_policyE0EED1Ev>
   b45aa:	e02e      	b.n	b460a <_Z13printNodeDatab+0x156>
		switch (sensorType) {
   b45ac:	f1a2 0314 	sub.w	r3, r2, #20
   b45b0:	2b09      	cmp	r3, #9
   b45b2:	e7e4      	b.n	b457e <_Z13printNodeDatab+0xca>
				jp.getValueByKey(nodeObjectContainer, "p1", occupancyNet);
   b45b4:	4a3e      	ldr	r2, [pc, #248]	; (b46b0 <_Z13printNodeDatab+0x1fc>)
   b45b6:	ab15      	add	r3, sp, #84	; 0x54
   b45b8:	4621      	mov	r1, r4
   b45ba:	4628      	mov	r0, r5
   b45bc:	f7ff fd9f 	bl	b40fe <_ZNK10JsonParser13getValueByKeyIiEEbPKN21JsonParserGeneratorRK9jsmntok_tEPKcRT_.isra.0>
				jp.getValueByKey(nodeObjectContainer, "p2", occupancyGross);
   b45c0:	4a3c      	ldr	r2, [pc, #240]	; (b46b4 <_Z13printNodeDatab+0x200>)
   b45c2:	ab16      	add	r3, sp, #88	; 0x58
   b45c4:	4621      	mov	r1, r4
   b45c6:	4628      	mov	r0, r5
   b45c8:	f7ff fd99 	bl	b40fe <_ZNK10JsonParser13getValueByKeyIiEEbPKN21JsonParserGeneratorRK9jsmntok_tEPKcRT_.isra.0>
				snprintf(data, sizeof(data), "Node %d, uniqueID %lu, type %d, occupancyNet %d, occupancyGross %d, payload (%d/%d/%d/%d) with pending alert %d and alert context %d", nodeNumber, uniqueID, sensorType, occupancyNet, occupancyGross, payload1, payload2, payload3, payload4, pendingAlertCode, pendingAlertContext);
   b45cc:	9b13      	ldr	r3, [sp, #76]	; 0x4c
   b45ce:	9309      	str	r3, [sp, #36]	; 0x24
   b45d0:	9b12      	ldr	r3, [sp, #72]	; 0x48
   b45d2:	9308      	str	r3, [sp, #32]
   b45d4:	f899 3000 	ldrb.w	r3, [r9]
   b45d8:	9307      	str	r3, [sp, #28]
   b45da:	f898 3000 	ldrb.w	r3, [r8]
   b45de:	9306      	str	r3, [sp, #24]
   b45e0:	f89d 302d 	ldrb.w	r3, [sp, #45]	; 0x2d
   b45e4:	9305      	str	r3, [sp, #20]
   b45e6:	f89d 302c 	ldrb.w	r3, [sp, #44]	; 0x2c
   b45ea:	9304      	str	r3, [sp, #16]
   b45ec:	9b16      	ldr	r3, [sp, #88]	; 0x58
   b45ee:	9303      	str	r3, [sp, #12]
   b45f0:	9b15      	ldr	r3, [sp, #84]	; 0x54
   b45f2:	9302      	str	r3, [sp, #8]
   b45f4:	9b0e      	ldr	r3, [sp, #56]	; 0x38
   b45f6:	9301      	str	r3, [sp, #4]
   b45f8:	9b0d      	ldr	r3, [sp, #52]	; 0x34
   b45fa:	9300      	str	r3, [sp, #0]
   b45fc:	4a35      	ldr	r2, [pc, #212]	; (b46d4 <_Z13printNodeDatab+0x220>)
   b45fe:	9b0c      	ldr	r3, [sp, #48]	; 0x30
   b4600:	f240 216e 	movw	r1, #622	; 0x26e
   b4604:	a81a      	add	r0, sp, #104	; 0x68
   b4606:	f002 fcf7 	bl	b6ff8 <snprintf>
		Log.info(data);
   b460a:	482e      	ldr	r0, [pc, #184]	; (b46c4 <_Z13printNodeDatab+0x210>)
   b460c:	a91a      	add	r1, sp, #104	; 0x68
   b460e:	f7ff fda9 	bl	b4164 <_ZNK5spark6Logger4infoEPKcz>
    static bool connected(void) { return spark_cloud_flag_connected(); }
   b4612:	f002 fc51 	bl	b6eb8 <spark_cloud_flag_connected>
		if (Particle.connected() && publish) {
   b4616:	b188      	cbz	r0, b463c <_Z13printNodeDatab+0x188>
   b4618:	b187      	cbz	r7, b463c <_Z13printNodeDatab+0x188>
   b461a:	4b2b      	ldr	r3, [pc, #172]	; (b46c8 <_Z13printNodeDatab+0x214>)
        return publish_event(eventName, eventData, ttl, flags1 | flags2);
   b461c:	492e      	ldr	r1, [pc, #184]	; (b46d8 <_Z13printNodeDatab+0x224>)
   b461e:	781b      	ldrb	r3, [r3, #0]
   b4620:	f88d 3000 	strb.w	r3, [sp]
   b4624:	aa1a      	add	r2, sp, #104	; 0x68
   b4626:	233c      	movs	r3, #60	; 0x3c
   b4628:	a816      	add	r0, sp, #88	; 0x58
   b462a:	f002 fefd 	bl	b7428 <_ZN10CloudClass13publish_eventEPKcS1_iN8particle5FlagsI15PublishFlagTypehEE>
   b462e:	a817      	add	r0, sp, #92	; 0x5c
   b4630:	f7ff fe18 	bl	b4264 <_ZNSt14__shared_countILN9__gnu_cxx12_Lock_policyE0EED1Ev>
			delay(1000);
   b4634:	f44f 707a 	mov.w	r0, #1000	; 0x3e8
   b4638:	f002 fd1e 	bl	b7078 <delay>
	for (int i=0; i<100; i++) {												// Iterate through the array looking for a match
   b463c:	3601      	adds	r6, #1
   b463e:	2e64      	cmp	r6, #100	; 0x64
   b4640:	f47f af4c 	bne.w	b44dc <_Z13printNodeDatab+0x28>
	Log.info(nodeDatabase.get_nodeIDJson());  // See the raw JSON string
   b4644:	f001 fc94 	bl	b5f70 <_ZN10nodeIDData8instanceEv>
   b4648:	4601      	mov	r1, r0
   b464a:	a816      	add	r0, sp, #88	; 0x58
   b464c:	f001 fcb4 	bl	b5fb8 <_ZNK10nodeIDData14get_nodeIDJsonEv>
   b4650:	9916      	ldr	r1, [sp, #88]	; 0x58
   b4652:	481c      	ldr	r0, [pc, #112]	; (b46c4 <_Z13printNodeDatab+0x210>)
   b4654:	f7ff fd86 	bl	b4164 <_ZNK5spark6Logger4infoEPKcz>
   b4658:	a816      	add	r0, sp, #88	; 0x58
   b465a:	f004 fc27 	bl	b8eac <_ZN6StringD1Ev>
}
   b465e:	980c      	ldr	r0, [sp, #48]	; 0x30
   b4660:	f50d 7d37 	add.w	sp, sp, #732	; 0x2dc
   b4664:	e8bd 8ff0 	ldmia.w	sp!, {r4, r5, r6, r7, r8, r9, sl, fp, pc}
				snprintf(data, sizeof(data), "Node %d, uniqueID %lu, type %d, payload (%d/%d/%d/%d) with pending alert %d and alert context %d", nodeNumber, uniqueID, sensorType, payload1, payload2, payload3, payload4, pendingAlertCode, pendingAlertContext);
   b4668:	9b13      	ldr	r3, [sp, #76]	; 0x4c
   b466a:	9307      	str	r3, [sp, #28]
   b466c:	9b12      	ldr	r3, [sp, #72]	; 0x48
   b466e:	9306      	str	r3, [sp, #24]
   b4670:	f899 3000 	ldrb.w	r3, [r9]
   b4674:	9305      	str	r3, [sp, #20]
   b4676:	f898 3000 	ldrb.w	r3, [r8]
   b467a:	9304      	str	r3, [sp, #16]
   b467c:	f89d 302d 	ldrb.w	r3, [sp, #45]	; 0x2d
   b4680:	9303      	str	r3, [sp, #12]
   b4682:	f89d 302c 	ldrb.w	r3, [sp, #44]	; 0x2c
   b4686:	e9cd 2301 	strd	r2, r3, [sp, #4]
   b468a:	9b0d      	ldr	r3, [sp, #52]	; 0x34
   b468c:	9300      	str	r3, [sp, #0]
   b468e:	4a13      	ldr	r2, [pc, #76]	; (b46dc <_Z13printNodeDatab+0x228>)
   b4690:	9b0c      	ldr	r3, [sp, #48]	; 0x30
   b4692:	f240 216e 	movw	r1, #622	; 0x26e
   b4696:	a81a      	add	r0, sp, #104	; 0x68
   b4698:	f002 fcae 	bl	b6ff8 <snprintf>
			} break;
   b469c:	e7b5      	b.n	b460a <_Z13printNodeDatab+0x156>
   b469e:	bf00      	nop
   b46a0:	2003b774 	.word	0x2003b774
   b46a4:	000b9d33 	.word	0x000b9d33
   b46a8:	000b9d39 	.word	0x000b9d39
   b46ac:	000bac98 	.word	0x000bac98
   b46b0:	000b9e33 	.word	0x000b9e33
   b46b4:	000b9e36 	.word	0x000b9e36
   b46b8:	000b9e39 	.word	0x000b9e39
   b46bc:	000b9e3e 	.word	0x000b9e3e
   b46c0:	000b9f29 	.word	0x000b9f29
   b46c4:	2003e6b0 	.word	0x2003e6b0
   b46c8:	2003b76c 	.word	0x2003b76c
   b46cc:	000b9f51 	.word	0x000b9f51
   b46d0:	000b9e24 	.word	0x000b9e24
   b46d4:	000b9e43 	.word	0x000b9e43
   b46d8:	000b9f76 	.word	0x000b9f76
   b46dc:	000b9ec8 	.word	0x000b9ec8
   b46e0:	000b9e2a 	.word	0x000b9e2a
   b46e4:	000b9e2e 	.word	0x000b9e2e

000b46e8 <_ZN10JsonWriter14insertKeyValueIiEEvPKcT_>:
	 *
	 * Uses templates so you can pass any type object that's supported by insertValue() overloads,
	 * for example: bool, int, float, double, const char *.
	 */
	template<class T>
	void insertKeyValue(const char *key, T value) {
   b46e8:	b537      	push	{r0, r1, r2, r4, r5, lr}
   b46ea:	4604      	mov	r4, r0
   b46ec:	4615      	mov	r5, r2
   b46ee:	9101      	str	r1, [sp, #4]
		insertCheckSeparator();
   b46f0:	f001 f808 	bl	b5704 <_ZN10JsonWriter20insertCheckSeparatorEv>
	void insertValue(const char *value) { insertString(value, true); }
   b46f4:	2201      	movs	r2, #1
   b46f6:	9901      	ldr	r1, [sp, #4]
   b46f8:	4620      	mov	r0, r4
   b46fa:	f000 ff71 	bl	b55e0 <_ZN10JsonWriter12insertStringEPKcb>
		insertValue(key);
		insertChar(':');
   b46fe:	4620      	mov	r0, r4
   b4700:	213a      	movs	r1, #58	; 0x3a
   b4702:	f000 ff21 	bl	b5548 <_ZN10JsonWriter10insertCharEc>
		insertValue(value);
   b4706:	4629      	mov	r1, r5
   b4708:	4620      	mov	r0, r4
   b470a:	f7ff fd67 	bl	b41dc <_ZN10JsonWriter11insertValueEi>
	}
   b470e:	b003      	add	sp, #12
   b4710:	bd30      	pop	{r4, r5, pc}

000b4712 <_ZN5spark6VectorINS_17LogCategoryFilterENS_16DefaultAllocatorEE4moveIS1_Li0EEEvPS1_S5_S5_>:
        if (dest > p && dest < end) {
   b4712:	4288      	cmp	r0, r1
    static void move(T* dest, T* p, T* end) {
   b4714:	b5f8      	push	{r3, r4, r5, r6, r7, lr}
   b4716:	4604      	mov	r4, r0
   b4718:	460d      	mov	r5, r1
   b471a:	4616      	mov	r6, r2
        if (dest > p && dest < end) {
   b471c:	d916      	bls.n	b474c <_ZN5spark6VectorINS_17LogCategoryFilterENS_16DefaultAllocatorEE4moveIS1_Li0EEEvPS1_S5_S5_+0x3a>
   b471e:	4290      	cmp	r0, r2
   b4720:	d215      	bcs.n	b474e <_ZN5spark6VectorINS_17LogCategoryFilterENS_16DefaultAllocatorEE4moveIS1_Li0EEEvPS1_S5_S5_+0x3c>
            --end;
   b4722:	f1a2 0614 	sub.w	r6, r2, #20
            dest += end - p - 1;
   b4726:	1a75      	subs	r5, r6, r1
   b4728:	f1a1 0714 	sub.w	r7, r1, #20
   b472c:	442c      	add	r4, r5
            for (; end != p; --end, --dest) {
   b472e:	42b7      	cmp	r7, r6
   b4730:	d01c      	beq.n	b476c <_ZN5spark6VectorINS_17LogCategoryFilterENS_16DefaultAllocatorEE4moveIS1_Li0EEEvPS1_S5_S5_+0x5a>
                new(dest) T(std::move(*end));
   b4732:	b12c      	cbz	r4, b4740 <_ZN5spark6VectorINS_17LogCategoryFilterENS_16DefaultAllocatorEE4moveIS1_Li0EEEvPS1_S5_S5_+0x2e>
   b4734:	4631      	mov	r1, r6
   b4736:	4620      	mov	r0, r4
   b4738:	f004 fc35 	bl	b8fa6 <_ZN6StringC1EOS_>
   b473c:	7c33      	ldrb	r3, [r6, #16]
   b473e:	7423      	strb	r3, [r4, #16]
   b4740:	4630      	mov	r0, r6
   b4742:	f004 fbb3 	bl	b8eac <_ZN6StringD1Ev>
            for (; end != p; --end, --dest) {
   b4746:	3e14      	subs	r6, #20
   b4748:	3c14      	subs	r4, #20
   b474a:	e7f0      	b.n	b472e <_ZN5spark6VectorINS_17LogCategoryFilterENS_16DefaultAllocatorEE4moveIS1_Li0EEEvPS1_S5_S5_+0x1c>
        } else if (dest != p) {
   b474c:	d00e      	beq.n	b476c <_ZN5spark6VectorINS_17LogCategoryFilterENS_16DefaultAllocatorEE4moveIS1_Li0EEEvPS1_S5_S5_+0x5a>
            for (; p != end; ++p, ++dest) {
   b474e:	42b5      	cmp	r5, r6
   b4750:	d00c      	beq.n	b476c <_ZN5spark6VectorINS_17LogCategoryFilterENS_16DefaultAllocatorEE4moveIS1_Li0EEEvPS1_S5_S5_+0x5a>
                new(dest) T(std::move(*p));
   b4752:	b12c      	cbz	r4, b4760 <_ZN5spark6VectorINS_17LogCategoryFilterENS_16DefaultAllocatorEE4moveIS1_Li0EEEvPS1_S5_S5_+0x4e>
   b4754:	4629      	mov	r1, r5
   b4756:	4620      	mov	r0, r4
   b4758:	f004 fc25 	bl	b8fa6 <_ZN6StringC1EOS_>
   b475c:	7c2b      	ldrb	r3, [r5, #16]
   b475e:	7423      	strb	r3, [r4, #16]
   b4760:	4628      	mov	r0, r5
   b4762:	f004 fba3 	bl	b8eac <_ZN6StringD1Ev>
            for (; p != end; ++p, ++dest) {
   b4766:	3514      	adds	r5, #20
   b4768:	3414      	adds	r4, #20
   b476a:	e7f0      	b.n	b474e <_ZN5spark6VectorINS_17LogCategoryFilterENS_16DefaultAllocatorEE4moveIS1_Li0EEEvPS1_S5_S5_+0x3c>
    }
   b476c:	bdf8      	pop	{r3, r4, r5, r6, r7, pc}

000b476e <_ZN5spark6VectorINS_17LogCategoryFilterENS_16DefaultAllocatorEEC1ERKS3_>:
inline spark::Vector<T, AllocatorT>::Vector(const Vector<T, AllocatorT>& vector) : Vector() {
   b476e:	e92d 41f0 	stmdb	sp!, {r4, r5, r6, r7, r8, lr}
        capacity_(0) {
   b4772:	2300      	movs	r3, #0
   b4774:	e9c0 3300 	strd	r3, r3, [r0]
   b4778:	6083      	str	r3, [r0, #8]
    if (vector.size_ > 0 && realloc(vector.size_)) {
   b477a:	684f      	ldr	r7, [r1, #4]
   b477c:	429f      	cmp	r7, r3
inline spark::Vector<T, AllocatorT>::Vector(const Vector<T, AllocatorT>& vector) : Vector() {
   b477e:	4604      	mov	r4, r0
   b4780:	460e      	mov	r6, r1
    if (vector.size_ > 0 && realloc(vector.size_)) {
   b4782:	dd23      	ble.n	b47cc <_ZN5spark6VectorINS_17LogCategoryFilterENS_16DefaultAllocatorEEC1ERKS3_+0x5e>
            d = (T*)AllocatorT::malloc(n * sizeof(T));
   b4784:	f04f 0814 	mov.w	r8, #20
    return ::malloc(size);
   b4788:	fb08 f007 	mul.w	r0, r8, r7
   b478c:	f002 fc14 	bl	b6fb8 <malloc>
            if (!d) {
   b4790:	4605      	mov	r5, r0
   b4792:	b1d8      	cbz	r0, b47cc <_ZN5spark6VectorINS_17LogCategoryFilterENS_16DefaultAllocatorEEC1ERKS3_+0x5e>
            move(d, data_, data_ + size_);
   b4794:	e9d4 1200 	ldrd	r1, r2, [r4]
   b4798:	fb08 1202 	mla	r2, r8, r2, r1
   b479c:	f7ff ffb9 	bl	b4712 <_ZN5spark6VectorINS_17LogCategoryFilterENS_16DefaultAllocatorEE4moveIS1_Li0EEEvPS1_S5_S5_>
    ::free(ptr);
   b47a0:	6820      	ldr	r0, [r4, #0]
   b47a2:	f002 fc11 	bl	b6fc8 <free>
        data_ = d;
   b47a6:	6025      	str	r5, [r4, #0]
        capacity_ = n;
   b47a8:	60a7      	str	r7, [r4, #8]
        copy(data_, vector.data_, vector.data_ + vector.size_);
   b47aa:	e9d6 7300 	ldrd	r7, r3, [r6]
   b47ae:	fb08 7803 	mla	r8, r8, r3, r7
        for (; it != end; ++it, ++dest) {
   b47b2:	45b8      	cmp	r8, r7
   b47b4:	d008      	beq.n	b47c8 <_ZN5spark6VectorINS_17LogCategoryFilterENS_16DefaultAllocatorEEC1ERKS3_+0x5a>
   b47b6:	4639      	mov	r1, r7
   b47b8:	4628      	mov	r0, r5
   b47ba:	f004 fc0e 	bl	b8fda <_ZN6StringC1ERKS_>
   b47be:	7c3b      	ldrb	r3, [r7, #16]
   b47c0:	742b      	strb	r3, [r5, #16]
   b47c2:	3714      	adds	r7, #20
   b47c4:	3514      	adds	r5, #20
   b47c6:	e7f4      	b.n	b47b2 <_ZN5spark6VectorINS_17LogCategoryFilterENS_16DefaultAllocatorEEC1ERKS3_+0x44>
        size_ = vector.size_;
   b47c8:	6873      	ldr	r3, [r6, #4]
   b47ca:	6063      	str	r3, [r4, #4]
}
   b47cc:	4620      	mov	r0, r4
   b47ce:	e8bd 81f0 	ldmia.w	sp!, {r4, r5, r6, r7, r8, pc}
	...

000b47d4 <_GLOBAL__sub_I_LogHandler>:
	mod.finish();

	nodeDatabase.set_nodeIDJson(jp.getBuffer());									// This should backup the nodeID database - now updated to persistent storage

	return true;
}
   b47d4:	b5f0      	push	{r4, r5, r6, r7, lr}
        val_(val) {
   b47d6:	4b2d      	ldr	r3, [pc, #180]	; (b488c <_GLOBAL__sub_I_LogHandler+0xb8>)
        filter_(level, filters) {
   b47d8:	4d2d      	ldr	r5, [pc, #180]	; (b4890 <_GLOBAL__sub_I_LogHandler+0xbc>)
   b47da:	b08f      	sub	sp, #60	; 0x3c
   b47dc:	2201      	movs	r2, #1
   b47de:	701a      	strb	r2, [r3, #0]
        capacity_(0) {
   b47e0:	2400      	movs	r4, #0
   b47e2:	e9cd 4402 	strd	r4, r4, [sp, #8]
   b47e6:	9404      	str	r4, [sp, #16]
            StreamLogHandler(Serial, level, filters) {
   b47e8:	f004 fd5e 	bl	b92a8 <_Z16_fetch_usbserialv>
   b47ec:	a902      	add	r1, sp, #8
   b47ee:	4606      	mov	r6, r0
   b47f0:	a805      	add	r0, sp, #20
   b47f2:	f7ff ffbc 	bl	b476e <_ZN5spark6VectorINS_17LogCategoryFilterENS_16DefaultAllocatorEEC1ERKS3_>
   b47f6:	462f      	mov	r7, r5
        stream_(&stream) {
   b47f8:	a905      	add	r1, sp, #20
   b47fa:	a808      	add	r0, sp, #32
   b47fc:	f7ff ffb7 	bl	b476e <_ZN5spark6VectorINS_17LogCategoryFilterENS_16DefaultAllocatorEEC1ERKS3_>
        filter_(level, filters) {
   b4800:	4b24      	ldr	r3, [pc, #144]	; (b4894 <_GLOBAL__sub_I_LogHandler+0xc0>)
   b4802:	f847 3b04 	str.w	r3, [r7], #4
   b4806:	a908      	add	r1, sp, #32
   b4808:	a80b      	add	r0, sp, #44	; 0x2c
   b480a:	f7ff ffb0 	bl	b476e <_ZN5spark6VectorINS_17LogCategoryFilterENS_16DefaultAllocatorEEC1ERKS3_>
   b480e:	aa0b      	add	r2, sp, #44	; 0x2c
   b4810:	211e      	movs	r1, #30
   b4812:	4638      	mov	r0, r7
   b4814:	f003 ff12 	bl	b863c <_ZN5spark6detail9LogFilterC1E8LogLevelNS_6VectorINS_17LogCategoryFilterENS_16DefaultAllocatorEEE>
   b4818:	a80b      	add	r0, sp, #44	; 0x2c
   b481a:	f7ff fe29 	bl	b4470 <_ZN5spark6VectorINS_17LogCategoryFilterENS_16DefaultAllocatorEED1Ev>
        stream_(&stream) {
   b481e:	a808      	add	r0, sp, #32
   b4820:	f7ff fe26 	bl	b4470 <_ZN5spark6VectorINS_17LogCategoryFilterENS_16DefaultAllocatorEED1Ev>
   b4824:	4b1c      	ldr	r3, [pc, #112]	; (b4898 <_GLOBAL__sub_I_LogHandler+0xc4>)
   b4826:	602b      	str	r3, [r5, #0]
   b4828:	a805      	add	r0, sp, #20
   b482a:	622e      	str	r6, [r5, #32]
   b482c:	f7ff fe20 	bl	b4470 <_ZN5spark6VectorINS_17LogCategoryFilterENS_16DefaultAllocatorEED1Ev>
   b4830:	4b1a      	ldr	r3, [pc, #104]	; (b489c <_GLOBAL__sub_I_LogHandler+0xc8>)
   b4832:	602b      	str	r3, [r5, #0]
        Serial.begin();
   b4834:	f004 fd38 	bl	b92a8 <_Z16_fetch_usbserialv>
   b4838:	f44f 5116 	mov.w	r1, #9600	; 0x2580
   b483c:	f004 fd24 	bl	b9288 <_ZN9USBSerial5beginEl>
        LogManager::instance()->addHandler(this);
   b4840:	f003 fbde 	bl	b8000 <_ZN5spark10LogManager8instanceEv>
   b4844:	4629      	mov	r1, r5
   b4846:	f003 fdcf 	bl	b83e8 <_ZN5spark10LogManager10addHandlerEPNS_10LogHandlerE>
SerialLogHandler LogHandler;
   b484a:	a802      	add	r0, sp, #8
   b484c:	f7ff fe10 	bl	b4470 <_ZN5spark6VectorINS_17LogCategoryFilterENS_16DefaultAllocatorEED1Ev>

class SystemSleepResult {
public:
    SystemSleepResult()
            : wakeupSource_(nullptr),
              error_(SYSTEM_ERROR_NONE) {
   b4850:	4b13      	ldr	r3, [pc, #76]	; (b48a0 <_GLOBAL__sub_I_LogHandler+0xcc>)
    SleepResult() {}
   b4852:	4a14      	ldr	r2, [pc, #80]	; (b48a4 <_GLOBAL__sub_I_LogHandler+0xd0>)
   b4854:	609a      	str	r2, [r3, #8]
              error_(SYSTEM_ERROR_NONE) {
   b4856:	e9c3 4400 	strd	r4, r4, [r3]

class SystemClass {
public:

    SystemClass(System_Mode_TypeDef mode = DEFAULT) {
        set_system_mode(mode);
   b485a:	2003      	movs	r0, #3
   b485c:	f002 fae8 	bl	b6e30 <set_system_mode>
	explicit JsonParserStatic() : JsonParser(staticBuffer, BUFFER_SIZE, staticTokens, MAX_TOKENS) {};
   b4860:	4b11      	ldr	r3, [pc, #68]	; (b48a8 <_GLOBAL__sub_I_LogHandler+0xd4>)
   b4862:	f240 2226 	movw	r2, #550	; 0x226
   b4866:	f6a3 442c 	subw	r4, r3, #3116	; 0xc2c
   b486a:	9200      	str	r2, [sp, #0]
   b486c:	f5a3 6140 	sub.w	r1, r3, #3072	; 0xc00
   b4870:	f44f 6240 	mov.w	r2, #3072	; 0xc00
   b4874:	4620      	mov	r0, r4
   b4876:	f000 fc9d 	bl	b51b4 <_ZN10JsonParserC1EPcjPN21JsonParserGeneratorRK9jsmntok_tEj>
   b487a:	4b0c      	ldr	r3, [pc, #48]	; (b48ac <_GLOBAL__sub_I_LogHandler+0xd8>)
String s;
   b487c:	490c      	ldr	r1, [pc, #48]	; (b48b0 <_GLOBAL__sub_I_LogHandler+0xdc>)
   b487e:	480d      	ldr	r0, [pc, #52]	; (b48b4 <_GLOBAL__sub_I_LogHandler+0xe0>)
   b4880:	6023      	str	r3, [r4, #0]
}
   b4882:	b00f      	add	sp, #60	; 0x3c
   b4884:	e8bd 40f0 	ldmia.w	sp!, {r4, r5, r6, r7, lr}
String s;
   b4888:	f004 bb5b 	b.w	b8f42 <_ZN6StringC1EPK19__FlashStringHelper>
   b488c:	2003b76c 	.word	0x2003b76c
   b4890:	2003b73c 	.word	0x2003b73c
   b4894:	000ba868 	.word	0x000ba868
   b4898:	000bacfc 	.word	0x000bacfc
   b489c:	000ba880 	.word	0x000ba880
   b48a0:	2003b760 	.word	0x2003b760
   b48a4:	ffff0000 	.word	0xffff0000
   b48a8:	2003c3a0 	.word	0x2003c3a0
   b48ac:	000ba898 	.word	0x000ba898
   b48b0:	000bacc7 	.word	0x000bacc7
   b48b4:	2003e604 	.word	0x2003e604

000b48b8 <_Z14findNodeNumberm>:
byte findNodeNumber(uint32_t uniqueID) {
   b48b8:	b5f0      	push	{r4, r5, r6, r7, lr}
   b48ba:	b097      	sub	sp, #92	; 0x5c
	int node = 0;
   b48bc:	2300      	movs	r3, #0
byte findNodeNumber(uint32_t uniqueID) {
   b48be:	4605      	mov	r5, r0
	jp.getValueTokenByKey(jp.getOuterObject(), "nodes", nodesArrayContainer);
   b48c0:	4842      	ldr	r0, [pc, #264]	; (b49cc <_Z14findNodeNumberm+0x114>)
	int node = 0;
   b48c2:	9304      	str	r3, [sp, #16]
	jp.getValueTokenByKey(jp.getOuterObject(), "nodes", nodesArrayContainer);
   b48c4:	f000 fc91 	bl	b51ea <_ZNK10JsonParser14getOuterObjectEv>
   b48c8:	4a41      	ldr	r2, [pc, #260]	; (b49d0 <_Z14findNodeNumberm+0x118>)
		nodeObjectContainer = jp.getTokenByIndex(nodesArrayContainer, i);
   b48ca:	4e40      	ldr	r6, [pc, #256]	; (b49cc <_Z14findNodeNumberm+0x114>)
		jp.getValueByKey(nodeObjectContainer, "uID", nodeUniqueID);			// Get the uniqueID and compare
   b48cc:	4f41      	ldr	r7, [pc, #260]	; (b49d4 <_Z14findNodeNumberm+0x11c>)
	jp.getValueTokenByKey(jp.getOuterObject(), "nodes", nodesArrayContainer);
   b48ce:	4601      	mov	r1, r0
   b48d0:	ab05      	add	r3, sp, #20
   b48d2:	483e      	ldr	r0, [pc, #248]	; (b49cc <_Z14findNodeNumberm+0x114>)
   b48d4:	f000 fdf2 	bl	b54bc <_ZNK10JsonParser18getValueTokenByKeyEPKN21JsonParserGeneratorRK9jsmntok_tEPKcRS3_>
	int index = 1;				// Start at one since node zero is the gateway
   b48d8:	2401      	movs	r4, #1
		nodeObjectContainer = jp.getTokenByIndex(nodesArrayContainer, i);
   b48da:	9905      	ldr	r1, [sp, #20]
   b48dc:	1e62      	subs	r2, r4, #1
   b48de:	4630      	mov	r0, r6
   b48e0:	f000 fca5 	bl	b522e <_ZNK10JsonParser15getTokenByIndexEPKN21JsonParserGeneratorRK9jsmntok_tEj>
		if(nodeObjectContainer == NULL) break;								// Ran out of entries - no match found
   b48e4:	4601      	mov	r1, r0
   b48e6:	b1d8      	cbz	r0, b4920 <_Z14findNodeNumberm+0x68>
		jp.getValueByKey(nodeObjectContainer, "uID", nodeUniqueID);			// Get the uniqueID and compare
   b48e8:	ab03      	add	r3, sp, #12
   b48ea:	9001      	str	r0, [sp, #4]
   b48ec:	463a      	mov	r2, r7
   b48ee:	4630      	mov	r0, r6
   b48f0:	f7ff fdd1 	bl	b4496 <_ZNK10JsonParser13getValueByKeyImEEbPKN21JsonParserGeneratorRK9jsmntok_tEPKcRT_>
		if (nodeUniqueID == uniqueID) {
   b48f4:	9b03      	ldr	r3, [sp, #12]
   b48f6:	9901      	ldr	r1, [sp, #4]
   b48f8:	42ab      	cmp	r3, r5
   b48fa:	d10e      	bne.n	b491a <_Z14findNodeNumberm+0x62>
			jp.getValueByKey(nodeObjectContainer, "node", node);		// A match!
   b48fc:	4a36      	ldr	r2, [pc, #216]	; (b49d8 <_Z14findNodeNumberm+0x120>)
   b48fe:	4833      	ldr	r0, [pc, #204]	; (b49cc <_Z14findNodeNumberm+0x114>)
   b4900:	ab04      	add	r3, sp, #16
   b4902:	f7ff fbfc 	bl	b40fe <_ZNK10JsonParser13getValueByKeyIiEEbPKN21JsonParserGeneratorRK9jsmntok_tEPKcRT_.isra.0>
			Log.info("Found the uniqueID, node of %d",node);
   b4906:	9a04      	ldr	r2, [sp, #16]
   b4908:	4934      	ldr	r1, [pc, #208]	; (b49dc <_Z14findNodeNumberm+0x124>)
   b490a:	4835      	ldr	r0, [pc, #212]	; (b49e0 <_Z14findNodeNumberm+0x128>)
   b490c:	f7ff fc2a 	bl	b4164 <_ZNK5spark6Logger4infoEPKcz>
			return node;
   b4910:	f89d 4010 	ldrb.w	r4, [sp, #16]
}
   b4914:	4620      	mov	r0, r4
   b4916:	b017      	add	sp, #92	; 0x5c
   b4918:	bdf0      	pop	{r4, r5, r6, r7, pc}
		index++;															// This will be the node number for the next node if no match is found
   b491a:	3401      	adds	r4, #1
	for (int i=0; i<50; i++) {												// Iterate through the array looking for a match
   b491c:	2c33      	cmp	r4, #51	; 0x33
   b491e:	d1dc      	bne.n	b48da <_Z14findNodeNumberm+0x22>
	JsonModifier mod(jp);
   b4920:	492a      	ldr	r1, [pc, #168]	; (b49cc <_Z14findNodeNumberm+0x114>)
   b4922:	a806      	add	r0, sp, #24
   b4924:	f000 ff12 	bl	b574c <_ZN12JsonModifierC1ER10JsonParser>
	Log.info("Did not find the uniqueID, new node of %d",index);
   b4928:	4622      	mov	r2, r4
   b492a:	492e      	ldr	r1, [pc, #184]	; (b49e4 <_Z14findNodeNumberm+0x12c>)
   b492c:	482c      	ldr	r0, [pc, #176]	; (b49e0 <_Z14findNodeNumberm+0x128>)
   b492e:	f7ff fc19 	bl	b4164 <_ZNK5spark6Logger4infoEPKcz>
	mod.startAppend(jp.getOuterArray());
   b4932:	4826      	ldr	r0, [pc, #152]	; (b49cc <_Z14findNodeNumberm+0x114>)
   b4934:	f000 fc4e 	bl	b51d4 <_ZNK10JsonParser13getOuterArrayEv>
   b4938:	4601      	mov	r1, r0
   b493a:	a806      	add	r0, sp, #24
   b493c:	f000 ff41 	bl	b57c2 <_ZN12JsonModifier11startAppendEPKN21JsonParserGeneratorRK9jsmntok_tE>
	bool startObject() { return startObjectOrArray('{', '}'); };
   b4940:	227d      	movs	r2, #125	; 0x7d
   b4942:	217b      	movs	r1, #123	; 0x7b
   b4944:	a806      	add	r0, sp, #24
   b4946:	f000 fee8 	bl	b571a <_ZN10JsonWriter18startObjectOrArrayEcc>
		mod.insertKeyValue("node", (int)index);
   b494a:	4622      	mov	r2, r4
   b494c:	4922      	ldr	r1, [pc, #136]	; (b49d8 <_Z14findNodeNumberm+0x120>)
   b494e:	a806      	add	r0, sp, #24
   b4950:	f7ff feca 	bl	b46e8 <_ZN10JsonWriter14insertKeyValueIiEEvPKcT_>
		insertCheckSeparator();
   b4954:	a806      	add	r0, sp, #24
   b4956:	f000 fed5 	bl	b5704 <_ZN10JsonWriter20insertCheckSeparatorEv>
	void insertValue(const char *value) { insertString(value, true); }
   b495a:	2201      	movs	r2, #1
   b495c:	a806      	add	r0, sp, #24
   b495e:	491d      	ldr	r1, [pc, #116]	; (b49d4 <_Z14findNodeNumberm+0x11c>)
   b4960:	f000 fe3e 	bl	b55e0 <_ZN10JsonWriter12insertStringEPKcb>
		insertChar(':');
   b4964:	a806      	add	r0, sp, #24
   b4966:	213a      	movs	r1, #58	; 0x3a
   b4968:	f000 fdee 	bl	b5548 <_ZN10JsonWriter10insertCharEc>
	void insertValue(unsigned long value) { insertsprintf("%lu", value); }
   b496c:	462a      	mov	r2, r5
   b496e:	a806      	add	r0, sp, #24
   b4970:	491d      	ldr	r1, [pc, #116]	; (b49e8 <_Z14findNodeNumberm+0x130>)
   b4972:	f000 fe28 	bl	b55c6 <_ZN10JsonWriter13insertsprintfEPKcz>
		mod.insertKeyValue("type", (int)sensorType_1);
   b4976:	4b1d      	ldr	r3, [pc, #116]	; (b49ec <_Z14findNodeNumberm+0x134>)
   b4978:	491d      	ldr	r1, [pc, #116]	; (b49f0 <_Z14findNodeNumberm+0x138>)
   b497a:	681a      	ldr	r2, [r3, #0]
   b497c:	a806      	add	r0, sp, #24
   b497e:	f7ff feb3 	bl	b46e8 <_ZN10JsonWriter14insertKeyValueIiEEvPKcT_>
		mod.insertKeyValue("p", 0);
   b4982:	a806      	add	r0, sp, #24
   b4984:	491b      	ldr	r1, [pc, #108]	; (b49f4 <_Z14findNodeNumberm+0x13c>)
   b4986:	2200      	movs	r2, #0
   b4988:	f7ff feae 	bl	b46e8 <_ZN10JsonWriter14insertKeyValueIiEEvPKcT_>
		mod.insertKeyValue("p1", 0);
   b498c:	a806      	add	r0, sp, #24
   b498e:	491a      	ldr	r1, [pc, #104]	; (b49f8 <_Z14findNodeNumberm+0x140>)
   b4990:	2200      	movs	r2, #0
   b4992:	f7ff fea9 	bl	b46e8 <_ZN10JsonWriter14insertKeyValueIiEEvPKcT_>
		mod.insertKeyValue("p2", 0);
   b4996:	a806      	add	r0, sp, #24
   b4998:	4918      	ldr	r1, [pc, #96]	; (b49fc <_Z14findNodeNumberm+0x144>)
   b499a:	2200      	movs	r2, #0
   b499c:	f7ff fea4 	bl	b46e8 <_ZN10JsonWriter14insertKeyValueIiEEvPKcT_>
		mod.insertKeyValue("pend", 0);	
   b49a0:	a806      	add	r0, sp, #24
   b49a2:	4917      	ldr	r1, [pc, #92]	; (b4a00 <_Z14findNodeNumberm+0x148>)
   b49a4:	2200      	movs	r2, #0
   b49a6:	f7ff fe9f 	bl	b46e8 <_ZN10JsonWriter14insertKeyValueIiEEvPKcT_>
		mod.insertKeyValue("cont", 0);
   b49aa:	4916      	ldr	r1, [pc, #88]	; (b4a04 <_Z14findNodeNumberm+0x14c>)
   b49ac:	2200      	movs	r2, #0
   b49ae:	a806      	add	r0, sp, #24
   b49b0:	f7ff fe9a 	bl	b46e8 <_ZN10JsonWriter14insertKeyValueIiEEvPKcT_>
		mod.finishObjectOrArray();
   b49b4:	a806      	add	r0, sp, #24
   b49b6:	f000 fdd5 	bl	b5564 <_ZN10JsonWriter19finishObjectOrArrayEv>
	mod.finish();
   b49ba:	a806      	add	r0, sp, #24
   b49bc:	f001 f95d 	bl	b5c7a <_ZN12JsonModifier6finishEv>
	JsonModifier mod(jp);
   b49c0:	a806      	add	r0, sp, #24
	return index;
   b49c2:	b2e4      	uxtb	r4, r4
	JsonModifier mod(jp);
   b49c4:	f000 fb80 	bl	b50c8 <_ZN12JsonModifierD1Ev>
   b49c8:	e7a4      	b.n	b4914 <_Z14findNodeNumberm+0x5c>
   b49ca:	bf00      	nop
   b49cc:	2003b774 	.word	0x2003b774
   b49d0:	000b9d33 	.word	0x000b9d33
   b49d4:	000b9e2a 	.word	0x000b9e2a
   b49d8:	000b9e2e 	.word	0x000b9e2e
   b49dc:	000b9f7f 	.word	0x000b9f7f
   b49e0:	2003e6b0 	.word	0x2003e6b0
   b49e4:	000b9f9e 	.word	0x000b9f9e
   b49e8:	000b9fc8 	.word	0x000b9fc8
   b49ec:	2003b6b4 	.word	0x2003b6b4
   b49f0:	000b9d39 	.word	0x000b9d39
   b49f4:	000bac98 	.word	0x000bac98
   b49f8:	000b9e33 	.word	0x000b9e33
   b49fc:	000b9e36 	.word	0x000b9e36
   b4a00:	000b9e39 	.word	0x000b9e39
   b4a04:	000b9e3e 	.word	0x000b9e3e

000b4a08 <_Z7setTypeii>:
bool setType(int nodeNumber, int newType) {
   b4a08:	b530      	push	{r4, r5, lr}
   b4a0a:	460d      	mov	r5, r1
   b4a0c:	b095      	sub	sp, #84	; 0x54
	if (nodeNumber == 0 || nodeNumber == 255) return false;
   b4a0e:	4604      	mov	r4, r0
   b4a10:	b1a8      	cbz	r0, b4a3e <_Z7setTypeii+0x36>
   b4a12:	28ff      	cmp	r0, #255	; 0xff
   b4a14:	d013      	beq.n	b4a3e <_Z7setTypeii+0x36>
	jp.getValueTokenByKey(jp.getOuterObject(), "nodes", nodesArrayContainer);
   b4a16:	4844      	ldr	r0, [pc, #272]	; (b4b28 <_Z7setTypeii+0x120>)
   b4a18:	f000 fbe7 	bl	b51ea <_ZNK10JsonParser14getOuterObjectEv>
   b4a1c:	4a43      	ldr	r2, [pc, #268]	; (b4b2c <_Z7setTypeii+0x124>)
   b4a1e:	4601      	mov	r1, r0
   b4a20:	ab02      	add	r3, sp, #8
   b4a22:	4841      	ldr	r0, [pc, #260]	; (b4b28 <_Z7setTypeii+0x120>)
   b4a24:	f000 fd4a 	bl	b54bc <_ZNK10JsonParser18getValueTokenByKeyEPKN21JsonParserGeneratorRK9jsmntok_tEPKcRS3_>
	nodeObjectContainer = jp.getTokenByIndex(nodesArrayContainer, nodeNumber-1);
   b4a28:	1e62      	subs	r2, r4, #1
   b4a2a:	9902      	ldr	r1, [sp, #8]
   b4a2c:	483e      	ldr	r0, [pc, #248]	; (b4b28 <_Z7setTypeii+0x120>)
   b4a2e:	f000 fbfe 	bl	b522e <_ZNK10JsonParser15getTokenByIndexEPKN21JsonParserGeneratorRK9jsmntok_tEj>
	if(nodeObjectContainer == NULL) { 
   b4a32:	4604      	mov	r4, r0
   b4a34:	b928      	cbnz	r0, b4a42 <_Z7setTypeii+0x3a>
		Log.info("Ran out of entries");
   b4a36:	493e      	ldr	r1, [pc, #248]	; (b4b30 <_Z7setTypeii+0x128>)
   b4a38:	483e      	ldr	r0, [pc, #248]	; (b4b34 <_Z7setTypeii+0x12c>)
   b4a3a:	f7ff fb93 	bl	b4164 <_ZNK5spark6Logger4infoEPKcz>
	if (nodeNumber == 0 || nodeNumber == 255) return false;
   b4a3e:	2000      	movs	r0, #0
   b4a40:	e070      	b.n	b4b24 <_Z7setTypeii+0x11c>
	JsonModifier mod(jp);
   b4a42:	4939      	ldr	r1, [pc, #228]	; (b4b28 <_Z7setTypeii+0x120>)
   b4a44:	a804      	add	r0, sp, #16
   b4a46:	f000 fe81 	bl	b574c <_ZN12JsonModifierC1ER10JsonParser>
	jp.getValueByKey(nodeObjectContainer, "uID", uniqueID);
   b4a4a:	4a3b      	ldr	r2, [pc, #236]	; (b4b38 <_Z7setTypeii+0x130>)
   b4a4c:	4836      	ldr	r0, [pc, #216]	; (b4b28 <_Z7setTypeii+0x120>)
   b4a4e:	ab01      	add	r3, sp, #4
   b4a50:	4621      	mov	r1, r4
   b4a52:	f7ff fd20 	bl	b4496 <_ZNK10JsonParser13getValueByKeyImEEbPKN21JsonParserGeneratorRK9jsmntok_tEPKcRT_>
	jp.getValueByKey(nodeObjectContainer, "type", type);
   b4a56:	4a39      	ldr	r2, [pc, #228]	; (b4b3c <_Z7setTypeii+0x134>)
   b4a58:	4833      	ldr	r0, [pc, #204]	; (b4b28 <_Z7setTypeii+0x120>)
   b4a5a:	466b      	mov	r3, sp
   b4a5c:	4621      	mov	r1, r4
   b4a5e:	f7ff fb4e 	bl	b40fe <_ZNK10JsonParser13getValueByKeyIiEEbPKN21JsonParserGeneratorRK9jsmntok_tEPKcRT_.isra.0>
	Log.info("Changing sensor type from %d to %d", type, newType);
   b4a62:	9a00      	ldr	r2, [sp, #0]
   b4a64:	4936      	ldr	r1, [pc, #216]	; (b4b40 <_Z7setTypeii+0x138>)
   b4a66:	4833      	ldr	r0, [pc, #204]	; (b4b34 <_Z7setTypeii+0x12c>)
   b4a68:	462b      	mov	r3, r5
   b4a6a:	f7ff fb7b 	bl	b4164 <_ZNK5spark6Logger4infoEPKcz>
	jp.getValueTokenByKey(nodeObjectContainer, "type", value);
   b4a6e:	4a33      	ldr	r2, [pc, #204]	; (b4b3c <_Z7setTypeii+0x134>)
   b4a70:	482d      	ldr	r0, [pc, #180]	; (b4b28 <_Z7setTypeii+0x120>)
   b4a72:	ab03      	add	r3, sp, #12
   b4a74:	4621      	mov	r1, r4
   b4a76:	f000 fd21 	bl	b54bc <_ZNK10JsonParser18getValueTokenByKeyEPKN21JsonParserGeneratorRK9jsmntok_tEPKcRS3_>
	mod.startModify(value);
   b4a7a:	9903      	ldr	r1, [sp, #12]
   b4a7c:	a804      	add	r0, sp, #16
   b4a7e:	f000 fe77 	bl	b5770 <_ZN12JsonModifier11startModifyEPKN21JsonParserGeneratorRK9jsmntok_tE>
	mod.insertValue((int)newType);
   b4a82:	4629      	mov	r1, r5
   b4a84:	a804      	add	r0, sp, #16
   b4a86:	f7ff fba9 	bl	b41dc <_ZN10JsonWriter11insertValueEi>
	jp.getValueTokenByKey(nodeObjectContainer, "p", value);
   b4a8a:	4a2e      	ldr	r2, [pc, #184]	; (b4b44 <_Z7setTypeii+0x13c>)
   b4a8c:	4826      	ldr	r0, [pc, #152]	; (b4b28 <_Z7setTypeii+0x120>)
   b4a8e:	ab03      	add	r3, sp, #12
   b4a90:	4621      	mov	r1, r4
   b4a92:	f000 fd13 	bl	b54bc <_ZNK10JsonParser18getValueTokenByKeyEPKN21JsonParserGeneratorRK9jsmntok_tEPKcRS3_>
	mod.startModify(value);
   b4a96:	9903      	ldr	r1, [sp, #12]
   b4a98:	a804      	add	r0, sp, #16
   b4a9a:	f000 fe69 	bl	b5770 <_ZN12JsonModifier11startModifyEPKN21JsonParserGeneratorRK9jsmntok_tE>
	mod.insertValue((int)0);
   b4a9e:	2100      	movs	r1, #0
   b4aa0:	a804      	add	r0, sp, #16
   b4aa2:	f7ff fb9b 	bl	b41dc <_ZN10JsonWriter11insertValueEi>
	jp.getValueTokenByKey(nodeObjectContainer, "p1", value);
   b4aa6:	4a28      	ldr	r2, [pc, #160]	; (b4b48 <_Z7setTypeii+0x140>)
   b4aa8:	481f      	ldr	r0, [pc, #124]	; (b4b28 <_Z7setTypeii+0x120>)
   b4aaa:	ab03      	add	r3, sp, #12
   b4aac:	4621      	mov	r1, r4
   b4aae:	f000 fd05 	bl	b54bc <_ZNK10JsonParser18getValueTokenByKeyEPKN21JsonParserGeneratorRK9jsmntok_tEPKcRS3_>
	mod.startModify(value);
   b4ab2:	9903      	ldr	r1, [sp, #12]
   b4ab4:	a804      	add	r0, sp, #16
   b4ab6:	f000 fe5b 	bl	b5770 <_ZN12JsonModifier11startModifyEPKN21JsonParserGeneratorRK9jsmntok_tE>
	mod.insertValue((int)0);
   b4aba:	2100      	movs	r1, #0
   b4abc:	a804      	add	r0, sp, #16
   b4abe:	f7ff fb8d 	bl	b41dc <_ZN10JsonWriter11insertValueEi>
	jp.getValueTokenByKey(nodeObjectContainer, "p2", value);
   b4ac2:	4a22      	ldr	r2, [pc, #136]	; (b4b4c <_Z7setTypeii+0x144>)
   b4ac4:	4818      	ldr	r0, [pc, #96]	; (b4b28 <_Z7setTypeii+0x120>)
   b4ac6:	ab03      	add	r3, sp, #12
   b4ac8:	4621      	mov	r1, r4
   b4aca:	f000 fcf7 	bl	b54bc <_ZNK10JsonParser18getValueTokenByKeyEPKN21JsonParserGeneratorRK9jsmntok_tEPKcRS3_>
	mod.startModify(value);
   b4ace:	9903      	ldr	r1, [sp, #12]
   b4ad0:	a804      	add	r0, sp, #16
   b4ad2:	f000 fe4d 	bl	b5770 <_ZN12JsonModifier11startModifyEPKN21JsonParserGeneratorRK9jsmntok_tE>
	mod.insertValue((int)0);
   b4ad6:	2100      	movs	r1, #0
   b4ad8:	a804      	add	r0, sp, #16
   b4ada:	f7ff fb7f 	bl	b41dc <_ZN10JsonWriter11insertValueEi>
	jp.getValueTokenByKey(nodeObjectContainer, "pend", value);
   b4ade:	4a1c      	ldr	r2, [pc, #112]	; (b4b50 <_Z7setTypeii+0x148>)
   b4ae0:	4811      	ldr	r0, [pc, #68]	; (b4b28 <_Z7setTypeii+0x120>)
   b4ae2:	ab03      	add	r3, sp, #12
   b4ae4:	4621      	mov	r1, r4
   b4ae6:	f000 fce9 	bl	b54bc <_ZNK10JsonParser18getValueTokenByKeyEPKN21JsonParserGeneratorRK9jsmntok_tEPKcRS3_>
	mod.startModify(value);
   b4aea:	9903      	ldr	r1, [sp, #12]
   b4aec:	a804      	add	r0, sp, #16
   b4aee:	f000 fe3f 	bl	b5770 <_ZN12JsonModifier11startModifyEPKN21JsonParserGeneratorRK9jsmntok_tE>
	mod.insertValue((int)0);
   b4af2:	2100      	movs	r1, #0
   b4af4:	a804      	add	r0, sp, #16
   b4af6:	f7ff fb71 	bl	b41dc <_ZN10JsonWriter11insertValueEi>
	jp.getValueTokenByKey(nodeObjectContainer, "cont", value);
   b4afa:	4a16      	ldr	r2, [pc, #88]	; (b4b54 <_Z7setTypeii+0x14c>)
   b4afc:	480a      	ldr	r0, [pc, #40]	; (b4b28 <_Z7setTypeii+0x120>)
   b4afe:	ab03      	add	r3, sp, #12
   b4b00:	4621      	mov	r1, r4
   b4b02:	f000 fcdb 	bl	b54bc <_ZNK10JsonParser18getValueTokenByKeyEPKN21JsonParserGeneratorRK9jsmntok_tEPKcRS3_>
	mod.startModify(value);
   b4b06:	9903      	ldr	r1, [sp, #12]
   b4b08:	a804      	add	r0, sp, #16
   b4b0a:	f000 fe31 	bl	b5770 <_ZN12JsonModifier11startModifyEPKN21JsonParserGeneratorRK9jsmntok_tE>
	mod.insertValue((int)0);
   b4b0e:	2100      	movs	r1, #0
   b4b10:	a804      	add	r0, sp, #16
   b4b12:	f7ff fb63 	bl	b41dc <_ZN10JsonWriter11insertValueEi>
	mod.finish();
   b4b16:	a804      	add	r0, sp, #16
   b4b18:	f001 f8af 	bl	b5c7a <_ZN12JsonModifier6finishEv>
	JsonModifier mod(jp);
   b4b1c:	a804      	add	r0, sp, #16
   b4b1e:	f000 fad3 	bl	b50c8 <_ZN12JsonModifierD1Ev>
	return true;
   b4b22:	2001      	movs	r0, #1
}
   b4b24:	b015      	add	sp, #84	; 0x54
   b4b26:	bd30      	pop	{r4, r5, pc}
   b4b28:	2003b774 	.word	0x2003b774
   b4b2c:	000b9d33 	.word	0x000b9d33
   b4b30:	000b9fef 	.word	0x000b9fef
   b4b34:	2003e6b0 	.word	0x2003e6b0
   b4b38:	000b9e2a 	.word	0x000b9e2a
   b4b3c:	000b9d39 	.word	0x000b9d39
   b4b40:	000b9fcc 	.word	0x000b9fcc
   b4b44:	000bac98 	.word	0x000bac98
   b4b48:	000b9e33 	.word	0x000b9e33
   b4b4c:	000b9e36 	.word	0x000b9e36
   b4b50:	000b9e39 	.word	0x000b9e39
   b4b54:	000b9e3e 	.word	0x000b9e3e

000b4b58 <setup>:
void setup() {
   b4b58:	b570      	push	{r4, r5, r6, lr}
   b4b5a:	ed2d 8b02 	vpush	{d8}
	delay(2000);                        // Give the serial port time to connect
   b4b5e:	f44f 60fa 	mov.w	r0, #2000	; 0x7d0
void setup() {
   b4b62:	b086      	sub	sp, #24
	delay(2000);                        // Give the serial port time to connect
   b4b64:	f002 fa88 	bl	b7078 <delay>
	nodeIDData::instance().setup();		// Initialize the nodeDatabase
   b4b68:	f001 fa02 	bl	b5f70 <_ZN10nodeIDData8instanceEv>
   b4b6c:	6803      	ldr	r3, [r0, #0]
   b4b6e:	681b      	ldr	r3, [r3, #0]
   b4b70:	4798      	blx	r3
	Log.info("Starting tests");
   b4b72:	498b      	ldr	r1, [pc, #556]	; (b4da0 <setup+0x248>)
   b4b74:	488b      	ldr	r0, [pc, #556]	; (b4da4 <setup+0x24c>)
   b4b76:	f7ff faf5 	bl	b4164 <_ZNK5spark6Logger4infoEPKcz>
	Log.info("First Test, we will clear the Node Database and load the sample data set");
   b4b7a:	498b      	ldr	r1, [pc, #556]	; (b4da8 <setup+0x250>)
   b4b7c:	4889      	ldr	r0, [pc, #548]	; (b4da4 <setup+0x24c>)
   b4b7e:	f7ff faf1 	bl	b4164 <_ZNK5spark6Logger4infoEPKcz>
	nodeDatabase.resetNodeIDs();	// Clear the Node Database
   b4b82:	f001 f9f5 	bl	b5f70 <_ZN10nodeIDData8instanceEv>
   b4b86:	f001 faa7 	bl	b60d8 <_ZN10nodeIDData12resetNodeIDsEv>
	printTokens(jp, false);
   b4b8a:	4888      	ldr	r0, [pc, #544]	; (b4dac <setup+0x254>)
   b4b8c:	2100      	movs	r1, #0
   b4b8e:	f7ff fb7f 	bl	b4290 <_Z11printTokensR10JsonParserb>
	Log.info("Now that the nodeDatabase is empty, we will load the sample data set");
   b4b92:	4987      	ldr	r1, [pc, #540]	; (b4db0 <setup+0x258>)
   b4b94:	4883      	ldr	r0, [pc, #524]	; (b4da4 <setup+0x24c>)
   b4b96:	f7ff fae5 	bl	b4164 <_ZNK5spark6Logger4infoEPKcz>
	bool addString(const char *data) { return addData(data, strlen(data)); }
   b4b9a:	4986      	ldr	r1, [pc, #536]	; (b4db4 <setup+0x25c>)
   b4b9c:	4883      	ldr	r0, [pc, #524]	; (b4dac <setup+0x254>)
   b4b9e:	f240 422c 	movw	r2, #1068	; 0x42c
   b4ba2:	f000 fae0 	bl	b5166 <_ZN10JsonBuffer7addDataEPKcj>
	if (jp.parse()) Log.info("Parsed Successfully");
   b4ba6:	4881      	ldr	r0, [pc, #516]	; (b4dac <setup+0x254>)
   b4ba8:	f001 f81a 	bl	b5be0 <_ZN10JsonParser5parseEv>
   b4bac:	2800      	cmp	r0, #0
   b4bae:	f000 80eb 	beq.w	b4d88 <setup+0x230>
   b4bb2:	4981      	ldr	r1, [pc, #516]	; (b4db8 <setup+0x260>)
	printTokens(jp, false);
   b4bb4:	4c7d      	ldr	r4, [pc, #500]	; (b4dac <setup+0x254>)
		Log.info("Parsing error");
   b4bb6:	487b      	ldr	r0, [pc, #492]	; (b4da4 <setup+0x24c>)
   b4bb8:	f7ff fad4 	bl	b4164 <_ZNK5spark6Logger4infoEPKcz>
	printTokens(jp, false);
   b4bbc:	2100      	movs	r1, #0
   b4bbe:	4620      	mov	r0, r4
   b4bc0:	f7ff fb66 	bl	b4290 <_Z11printTokensR10JsonParserb>
	Log.info("Next, we will load and store the node database into memory");
   b4bc4:	497d      	ldr	r1, [pc, #500]	; (b4dbc <setup+0x264>)
   b4bc6:	4877      	ldr	r0, [pc, #476]	; (b4da4 <setup+0x24c>)
   b4bc8:	f7ff facc 	bl	b4164 <_ZNK5spark6Logger4infoEPKcz>
	nodeDatabase.set_nodeIDJson(data);				// Load the text object from this sketch into the nodeDatabase
   b4bcc:	f001 f9d0 	bl	b5f70 <_ZN10nodeIDData8instanceEv>
   b4bd0:	4978      	ldr	r1, [pc, #480]	; (b4db4 <setup+0x25c>)
   b4bd2:	f001 fa03 	bl	b5fdc <_ZN10nodeIDData14set_nodeIDJsonEPKc>
	nodeDatabase.flush(false);						// Store the nodeDatabase into memory
   b4bd6:	f001 f9cb 	bl	b5f70 <_ZN10nodeIDData8instanceEv>
   b4bda:	6803      	ldr	r3, [r0, #0]
   b4bdc:	2100      	movs	r1, #0
   b4bde:	68db      	ldr	r3, [r3, #12]
   b4be0:	4798      	blx	r3
	Log.info("Note that our JSON object allocation is %4.2f%% of the memory allocated (less than 100%% is OK)", 100*(float)jp.getBufferLen()/(float)nodeDatabase.nodeDataStorageSize());
   b4be2:	edd4 7a02 	vldr	s15, [r4, #8]
   b4be6:	eeb8 8a67 	vcvt.f32.u32	s16, s15
   b4bea:	eddf 7a75 	vldr	s15, [pc, #468]	; b4dc0 <setup+0x268>
   b4bee:	ee28 8a27 	vmul.f32	s16, s16, s15
   b4bf2:	f001 f9bd 	bl	b5f70 <_ZN10nodeIDData8instanceEv>
   b4bf6:	f001 f9db 	bl	b5fb0 <_ZN10nodeIDData19nodeDataStorageSizeEv>
   b4bfa:	ee07 0a90 	vmov	s15, r0
   b4bfe:	eef8 7ae7 	vcvt.f32.s32	s15, s15
   b4c02:	eec8 7a27 	vdiv.f32	s15, s16, s15
   b4c06:	ee17 0a90 	vmov	r0, s15
   b4c0a:	f004 fdfb 	bl	b9804 <__aeabi_f2d>
   b4c0e:	460b      	mov	r3, r1
   b4c10:	4602      	mov	r2, r0
   b4c12:	496c      	ldr	r1, [pc, #432]	; (b4dc4 <setup+0x26c>)
   b4c14:	4863      	ldr	r0, [pc, #396]	; (b4da4 <setup+0x24c>)
   b4c16:	f7ff faa5 	bl	b4164 <_ZNK5spark6Logger4infoEPKcz>
	jp.clear();										// Clear the JSON object from memory
   b4c1a:	4620      	mov	r0, r4
   b4c1c:	f000 fac0 	bl	b51a0 <_ZN10JsonBuffer5clearEv>
	jp.addString(nodeDatabase.get_nodeIDJson());	// Read in the JSON string from memory
   b4c20:	f001 f9a6 	bl	b5f70 <_ZN10nodeIDData8instanceEv>
   b4c24:	4601      	mov	r1, r0
   b4c26:	a802      	add	r0, sp, #8
   b4c28:	f001 f9c6 	bl	b5fb8 <_ZNK10nodeIDData14get_nodeIDJsonEv>
    char operator [] (unsigned int index) const;
    char& operator [] (unsigned int index);
    void getBytes(unsigned char *buf, unsigned int bufsize, unsigned int index=0) const;
    void toCharArray(char *buf, unsigned int bufsize, unsigned int index=0) const
        {getBytes((unsigned char *)buf, bufsize, index);}
    const char * c_str() const { return buffer; }
   b4c2c:	9902      	ldr	r1, [sp, #8]
   b4c2e:	9101      	str	r1, [sp, #4]
   b4c30:	4608      	mov	r0, r1
   b4c32:	f004 ff30 	bl	b9a96 <strlen>
   b4c36:	9901      	ldr	r1, [sp, #4]
   b4c38:	4602      	mov	r2, r0
   b4c3a:	4620      	mov	r0, r4
   b4c3c:	f000 fa93 	bl	b5166 <_ZN10JsonBuffer7addDataEPKcj>
   b4c40:	a802      	add	r0, sp, #8
   b4c42:	f004 f933 	bl	b8eac <_ZN6StringD1Ev>
	Log.info("The node string is: %s",nodeDatabase.get_nodeIDJson().c_str());
   b4c46:	f001 f993 	bl	b5f70 <_ZN10nodeIDData8instanceEv>
   b4c4a:	4601      	mov	r1, r0
   b4c4c:	a802      	add	r0, sp, #8
   b4c4e:	f001 f9b3 	bl	b5fb8 <_ZNK10nodeIDData14get_nodeIDJsonEv>
   b4c52:	9a02      	ldr	r2, [sp, #8]
   b4c54:	495c      	ldr	r1, [pc, #368]	; (b4dc8 <setup+0x270>)
   b4c56:	4853      	ldr	r0, [pc, #332]	; (b4da4 <setup+0x24c>)
   b4c58:	f7ff fa84 	bl	b4164 <_ZNK5spark6Logger4infoEPKcz>
   b4c5c:	a802      	add	r0, sp, #8
   b4c5e:	f004 f925 	bl	b8eac <_ZN6StringD1Ev>
	if (jp.parse()) Log.info("Parsed Successfully");
   b4c62:	4620      	mov	r0, r4
   b4c64:	f000 ffbc 	bl	b5be0 <_ZN10JsonParser5parseEv>
   b4c68:	2800      	cmp	r0, #0
   b4c6a:	f000 8093 	beq.w	b4d94 <setup+0x23c>
   b4c6e:	4952      	ldr	r1, [pc, #328]	; (b4db8 <setup+0x260>)
		Log.info("Parsing error");
   b4c70:	484c      	ldr	r0, [pc, #304]	; (b4da4 <setup+0x24c>)
	byte nodeNumber = findNodeNumber(uniqueID_1);
   b4c72:	4c56      	ldr	r4, [pc, #344]	; (b4dcc <setup+0x274>)
	setType(nodeNumber, sensorType_2);
   b4c74:	4e56      	ldr	r6, [pc, #344]	; (b4dd0 <setup+0x278>)
	setType(nodeNumber, sensorType_3);
   b4c76:	4d57      	ldr	r5, [pc, #348]	; (b4dd4 <setup+0x27c>)
		Log.info("Parsing error");
   b4c78:	f7ff fa74 	bl	b4164 <_ZNK5spark6Logger4infoEPKcz>
	printTokens(jp, false);
   b4c7c:	484b      	ldr	r0, [pc, #300]	; (b4dac <setup+0x254>)
   b4c7e:	2100      	movs	r1, #0
   b4c80:	f7ff fb06 	bl	b4290 <_Z11printTokensR10JsonParserb>
	Log.info("Finally, we will add a new node to the database and print the database");
   b4c84:	4954      	ldr	r1, [pc, #336]	; (b4dd8 <setup+0x280>)
   b4c86:	4847      	ldr	r0, [pc, #284]	; (b4da4 <setup+0x24c>)
   b4c88:	f7ff fa6c 	bl	b4164 <_ZNK5spark6Logger4infoEPKcz>
	byte nodeNumber = findNodeNumber(uniqueID_1);
   b4c8c:	6820      	ldr	r0, [r4, #0]
   b4c8e:	f7ff fe13 	bl	b48b8 <_Z14findNodeNumberm>
	Log.info("The node number is: %d",nodeNumber);
   b4c92:	4952      	ldr	r1, [pc, #328]	; (b4ddc <setup+0x284>)
	byte nodeNumber = findNodeNumber(uniqueID_1);
   b4c94:	4602      	mov	r2, r0
	Log.info("The node number is: %d",nodeNumber);
   b4c96:	4843      	ldr	r0, [pc, #268]	; (b4da4 <setup+0x24c>)
   b4c98:	f7ff fa64 	bl	b4164 <_ZNK5spark6Logger4infoEPKcz>
	printTokens(jp, false);
   b4c9c:	2100      	movs	r1, #0
   b4c9e:	4843      	ldr	r0, [pc, #268]	; (b4dac <setup+0x254>)
   b4ca0:	f7ff faf6 	bl	b4290 <_Z11printTokensR10JsonParserb>
	printNodeData(false);
   b4ca4:	2000      	movs	r0, #0
   b4ca6:	f7ff fc05 	bl	b44b4 <_Z13printNodeDatab>
	Log.info("Now we will change the type of the node and print the database");
   b4caa:	494d      	ldr	r1, [pc, #308]	; (b4de0 <setup+0x288>)
   b4cac:	483d      	ldr	r0, [pc, #244]	; (b4da4 <setup+0x24c>)
   b4cae:	f7ff fa59 	bl	b4164 <_ZNK5spark6Logger4infoEPKcz>
	nodeNumber = findNodeNumber(uniqueID_1);
   b4cb2:	6820      	ldr	r0, [r4, #0]
   b4cb4:	f7ff fe00 	bl	b48b8 <_Z14findNodeNumberm>
   b4cb8:	4604      	mov	r4, r0
	byte currentType = getType(nodeNumber);
   b4cba:	f7ff fa95 	bl	b41e8 <_Z7getTypei>
	Log.info("The current type for node number %d is: %d",nodeNumber, currentType);
   b4cbe:	4622      	mov	r2, r4
	byte currentType = getType(nodeNumber);
   b4cc0:	4603      	mov	r3, r0
	Log.info("The current type for node number %d is: %d",nodeNumber, currentType);
   b4cc2:	4948      	ldr	r1, [pc, #288]	; (b4de4 <setup+0x28c>)
   b4cc4:	4837      	ldr	r0, [pc, #220]	; (b4da4 <setup+0x24c>)
   b4cc6:	f7ff fa4d 	bl	b4164 <_ZNK5spark6Logger4infoEPKcz>
	setType(nodeNumber, sensorType_2);
   b4cca:	6831      	ldr	r1, [r6, #0]
   b4ccc:	4620      	mov	r0, r4
   b4cce:	f7ff fe9b 	bl	b4a08 <_Z7setTypeii>
	currentType = getType(nodeNumber);
   b4cd2:	4620      	mov	r0, r4
   b4cd4:	f7ff fa88 	bl	b41e8 <_Z7getTypei>
	Log.info("The new type for node number %d is: %d",nodeNumber, currentType);
   b4cd8:	4622      	mov	r2, r4
	currentType = getType(nodeNumber);
   b4cda:	4603      	mov	r3, r0
	Log.info("The new type for node number %d is: %d",nodeNumber, currentType);
   b4cdc:	4942      	ldr	r1, [pc, #264]	; (b4de8 <setup+0x290>)
   b4cde:	4831      	ldr	r0, [pc, #196]	; (b4da4 <setup+0x24c>)
   b4ce0:	f7ff fa40 	bl	b4164 <_ZNK5spark6Logger4infoEPKcz>
	Log.info("Now we will change the type which will alter its structure and print the database");
   b4ce4:	4941      	ldr	r1, [pc, #260]	; (b4dec <setup+0x294>)
   b4ce6:	482f      	ldr	r0, [pc, #188]	; (b4da4 <setup+0x24c>)
   b4ce8:	f7ff fa3c 	bl	b4164 <_ZNK5spark6Logger4infoEPKcz>
	setType(nodeNumber, sensorType_3);
   b4cec:	6829      	ldr	r1, [r5, #0]
   b4cee:	4620      	mov	r0, r4
   b4cf0:	f7ff fe8a 	bl	b4a08 <_Z7setTypeii>
	printTokens(jp, false);
   b4cf4:	2100      	movs	r1, #0
   b4cf6:	482d      	ldr	r0, [pc, #180]	; (b4dac <setup+0x254>)
   b4cf8:	f7ff faca 	bl	b4290 <_Z11printTokensR10JsonParserb>
	printNodeData(false);
   b4cfc:	2000      	movs	r0, #0
   b4cfe:	f7ff fbd9 	bl	b44b4 <_Z13printNodeDatab>
	Log.info("Now we will change the type on a note that is in the middle of the pack and then change it back. ");
   b4d02:	493b      	ldr	r1, [pc, #236]	; (b4df0 <setup+0x298>)
   b4d04:	4827      	ldr	r0, [pc, #156]	; (b4da4 <setup+0x24c>)
   b4d06:	f7ff fa2d 	bl	b4164 <_ZNK5spark6Logger4infoEPKcz>
	nodeNumber = findNodeNumber(uniqueID_2);
   b4d0a:	4b3a      	ldr	r3, [pc, #232]	; (b4df4 <setup+0x29c>)
   b4d0c:	6818      	ldr	r0, [r3, #0]
   b4d0e:	f7ff fdd3 	bl	b48b8 <_Z14findNodeNumberm>
   b4d12:	4604      	mov	r4, r0
	currentType = getType(nodeNumber);
   b4d14:	f7ff fa68 	bl	b41e8 <_Z7getTypei>
	Log.info("The current type for node number %d is: %d",nodeNumber, currentType);
   b4d18:	4622      	mov	r2, r4
	currentType = getType(nodeNumber);
   b4d1a:	4603      	mov	r3, r0
	Log.info("The current type for node number %d is: %d",nodeNumber, currentType);
   b4d1c:	4931      	ldr	r1, [pc, #196]	; (b4de4 <setup+0x28c>)
   b4d1e:	4821      	ldr	r0, [pc, #132]	; (b4da4 <setup+0x24c>)
   b4d20:	f7ff fa20 	bl	b4164 <_ZNK5spark6Logger4infoEPKcz>
	setType(nodeNumber, sensorType_2);
   b4d24:	6831      	ldr	r1, [r6, #0]
   b4d26:	4620      	mov	r0, r4
   b4d28:	f7ff fe6e 	bl	b4a08 <_Z7setTypeii>
	printNodeData(false);
   b4d2c:	2000      	movs	r0, #0
   b4d2e:	f7ff fbc1 	bl	b44b4 <_Z13printNodeDatab>
	currentType = getType(nodeNumber);
   b4d32:	4620      	mov	r0, r4
   b4d34:	f7ff fa58 	bl	b41e8 <_Z7getTypei>
	Log.info("The new type for node number %d is: %d",nodeNumber, currentType);
   b4d38:	4622      	mov	r2, r4
	currentType = getType(nodeNumber);
   b4d3a:	4603      	mov	r3, r0
	Log.info("The new type for node number %d is: %d",nodeNumber, currentType);
   b4d3c:	492a      	ldr	r1, [pc, #168]	; (b4de8 <setup+0x290>)
   b4d3e:	4819      	ldr	r0, [pc, #100]	; (b4da4 <setup+0x24c>)
   b4d40:	f7ff fa10 	bl	b4164 <_ZNK5spark6Logger4infoEPKcz>
	setType(nodeNumber, sensorType_3);
   b4d44:	6829      	ldr	r1, [r5, #0]
   b4d46:	4620      	mov	r0, r4
   b4d48:	f7ff fe5e 	bl	b4a08 <_Z7setTypeii>
	currentType = getType(nodeNumber);
   b4d4c:	4620      	mov	r0, r4
   b4d4e:	f7ff fa4b 	bl	b41e8 <_Z7getTypei>
	Log.info("The new type for node number %d is: %d",nodeNumber, currentType);
   b4d52:	4622      	mov	r2, r4
	currentType = getType(nodeNumber);
   b4d54:	4603      	mov	r3, r0
	Log.info("The new type for node number %d is: %d",nodeNumber, currentType);
   b4d56:	4924      	ldr	r1, [pc, #144]	; (b4de8 <setup+0x290>)
   b4d58:	4812      	ldr	r0, [pc, #72]	; (b4da4 <setup+0x24c>)
   b4d5a:	f7ff fa03 	bl	b4164 <_ZNK5spark6Logger4infoEPKcz>
	printTokens(jp, false);
   b4d5e:	2100      	movs	r1, #0
   b4d60:	4812      	ldr	r0, [pc, #72]	; (b4dac <setup+0x254>)
   b4d62:	f7ff fa95 	bl	b4290 <_Z11printTokensR10JsonParserb>
	numberOfNodes = printNodeData(false);
   b4d66:	2000      	movs	r0, #0
   b4d68:	f7ff fba4 	bl	b44b4 <_Z13printNodeDatab>
   b4d6c:	4b22      	ldr	r3, [pc, #136]	; (b4df8 <setup+0x2a0>)
	Log.info("Notice how the new node is now at the end of the outer ojbect - this will break our code");
   b4d6e:	4923      	ldr	r1, [pc, #140]	; (b4dfc <setup+0x2a4>)
	numberOfNodes = printNodeData(false);
   b4d70:	6018      	str	r0, [r3, #0]
	Log.info("Notice how the new node is now at the end of the outer ojbect - this will break our code");
   b4d72:	480c      	ldr	r0, [pc, #48]	; (b4da4 <setup+0x24c>)
   b4d74:	f7ff f9f6 	bl	b4164 <_ZNK5spark6Logger4infoEPKcz>
	Log.info("Finished Parsing Test. Running data report tests in a loop.");
   b4d78:	4921      	ldr	r1, [pc, #132]	; (b4e00 <setup+0x2a8>)
   b4d7a:	480a      	ldr	r0, [pc, #40]	; (b4da4 <setup+0x24c>)
   b4d7c:	f7ff f9f2 	bl	b4164 <_ZNK5spark6Logger4infoEPKcz>
}
   b4d80:	b006      	add	sp, #24
   b4d82:	ecbd 8b02 	vpop	{d8}
   b4d86:	bd70      	pop	{r4, r5, r6, pc}
		nodeDatabase.resetNodeIDs();
   b4d88:	f001 f8f2 	bl	b5f70 <_ZN10nodeIDData8instanceEv>
   b4d8c:	f001 f9a4 	bl	b60d8 <_ZN10nodeIDData12resetNodeIDsEv>
		Log.info("Parsing error");
   b4d90:	491c      	ldr	r1, [pc, #112]	; (b4e04 <setup+0x2ac>)
   b4d92:	e70f      	b.n	b4bb4 <setup+0x5c>
		nodeDatabase.resetNodeIDs();
   b4d94:	f001 f8ec 	bl	b5f70 <_ZN10nodeIDData8instanceEv>
   b4d98:	f001 f99e 	bl	b60d8 <_ZN10nodeIDData12resetNodeIDsEv>
		Log.info("Parsing error");
   b4d9c:	4919      	ldr	r1, [pc, #100]	; (b4e04 <setup+0x2ac>)
   b4d9e:	e767      	b.n	b4c70 <setup+0x118>
   b4da0:	000ba002 	.word	0x000ba002
   b4da4:	2003e6b0 	.word	0x2003e6b0
   b4da8:	000ba011 	.word	0x000ba011
   b4dac:	2003b774 	.word	0x2003b774
   b4db0:	000ba05a 	.word	0x000ba05a
   b4db4:	000ba09f 	.word	0x000ba09f
   b4db8:	000ba4cc 	.word	0x000ba4cc
   b4dbc:	000ba4ee 	.word	0x000ba4ee
   b4dc0:	42c80000 	.word	0x42c80000
   b4dc4:	000ba529 	.word	0x000ba529
   b4dc8:	000ba589 	.word	0x000ba589
   b4dcc:	2003b6c0 	.word	0x2003b6c0
   b4dd0:	2003b6b8 	.word	0x2003b6b8
   b4dd4:	2003b6bc 	.word	0x2003b6bc
   b4dd8:	000ba5a0 	.word	0x000ba5a0
   b4ddc:	000ba5e7 	.word	0x000ba5e7
   b4de0:	000ba5fe 	.word	0x000ba5fe
   b4de4:	000ba63d 	.word	0x000ba63d
   b4de8:	000ba668 	.word	0x000ba668
   b4dec:	000ba68f 	.word	0x000ba68f
   b4df0:	000ba6e1 	.word	0x000ba6e1
   b4df4:	2003b6c4 	.word	0x2003b6c4
   b4df8:	2003e600 	.word	0x2003e600
   b4dfc:	000ba743 	.word	0x000ba743
   b4e00:	000ba79c 	.word	0x000ba79c
   b4e04:	000ba4e0 	.word	0x000ba4e0

000b4e08 <_Z12setJsonData1iii>:
bool setJsonData1(int nodeNumber, int sensorType, int newJsonData1) {
   b4e08:	b5f0      	push	{r4, r5, r6, r7, lr}
   b4e0a:	4617      	mov	r7, r2
   b4e0c:	b097      	sub	sp, #92	; 0x5c
	if (nodeNumber == 0 || nodeNumber == 255) return false;
   b4e0e:	4604      	mov	r4, r0
   b4e10:	2800      	cmp	r0, #0
   b4e12:	d041      	beq.n	b4e98 <_Z12setJsonData1iii+0x90>
   b4e14:	28ff      	cmp	r0, #255	; 0xff
   b4e16:	d03f      	beq.n	b4e98 <_Z12setJsonData1iii+0x90>
	if (sensorType > 29) return false; 					// Return false if node is not a valid sensor type
   b4e18:	291d      	cmp	r1, #29
   b4e1a:	dc3d      	bgt.n	b4e98 <_Z12setJsonData1iii+0x90>
	jp.getValueTokenByKey(jp.getOuterObject(), "nodes", nodesArrayContainer);
   b4e1c:	4d1f      	ldr	r5, [pc, #124]	; (b4e9c <_Z12setJsonData1iii+0x94>)
   b4e1e:	4628      	mov	r0, r5
   b4e20:	f000 f9e3 	bl	b51ea <_ZNK10JsonParser14getOuterObjectEv>
   b4e24:	4a1e      	ldr	r2, [pc, #120]	; (b4ea0 <_Z12setJsonData1iii+0x98>)
   b4e26:	4601      	mov	r1, r0
   b4e28:	ab04      	add	r3, sp, #16
   b4e2a:	4628      	mov	r0, r5
   b4e2c:	f000 fb46 	bl	b54bc <_ZNK10JsonParser18getValueTokenByKeyEPKN21JsonParserGeneratorRK9jsmntok_tEPKcRS3_>
	nodeObjectContainer = jp.getTokenByIndex(nodesArrayContainer, nodeNumber-1);
   b4e30:	9904      	ldr	r1, [sp, #16]
   b4e32:	1e62      	subs	r2, r4, #1
   b4e34:	4628      	mov	r0, r5
   b4e36:	f000 f9fa 	bl	b522e <_ZNK10JsonParser15getTokenByIndexEPKN21JsonParserGeneratorRK9jsmntok_tEj>
	if(nodeObjectContainer == NULL) return false;						    // Ran out of entries 
   b4e3a:	4606      	mov	r6, r0
   b4e3c:	b360      	cbz	r0, b4e98 <_Z12setJsonData1iii+0x90>
	jp.getValueByKey(nodeObjectContainer, "p1", jsonData1);
   b4e3e:	4601      	mov	r1, r0
   b4e40:	4a18      	ldr	r2, [pc, #96]	; (b4ea4 <_Z12setJsonData1iii+0x9c>)
   b4e42:	ab03      	add	r3, sp, #12
   b4e44:	4628      	mov	r0, r5
   b4e46:	f7ff f95a 	bl	b40fe <_ZNK10JsonParser13getValueByKeyIiEEbPKN21JsonParserGeneratorRK9jsmntok_tEPKcRT_.isra.0>
	Log.info("Updating jsonData1 value for node %d from %d to %d", nodeNumber, jsonData1, newJsonData1);
   b4e4a:	9b03      	ldr	r3, [sp, #12]
   b4e4c:	4916      	ldr	r1, [pc, #88]	; (b4ea8 <_Z12setJsonData1iii+0xa0>)
   b4e4e:	4817      	ldr	r0, [pc, #92]	; (b4eac <_Z12setJsonData1iii+0xa4>)
   b4e50:	9700      	str	r7, [sp, #0]
   b4e52:	4622      	mov	r2, r4
   b4e54:	f7ff f986 	bl	b4164 <_ZNK5spark6Logger4infoEPKcz>
	jp.getValueTokenByKey(nodeObjectContainer, "p1", value);
   b4e58:	4a12      	ldr	r2, [pc, #72]	; (b4ea4 <_Z12setJsonData1iii+0x9c>)
   b4e5a:	ab05      	add	r3, sp, #20
   b4e5c:	4631      	mov	r1, r6
   b4e5e:	4628      	mov	r0, r5
   b4e60:	f000 fb2c 	bl	b54bc <_ZNK10JsonParser18getValueTokenByKeyEPKN21JsonParserGeneratorRK9jsmntok_tEPKcRS3_>
	JsonModifier mod(jp);
   b4e64:	4629      	mov	r1, r5
   b4e66:	a806      	add	r0, sp, #24
   b4e68:	f000 fc70 	bl	b574c <_ZN12JsonModifierC1ER10JsonParser>
	mod.startModify(value);
   b4e6c:	9905      	ldr	r1, [sp, #20]
   b4e6e:	a806      	add	r0, sp, #24
   b4e70:	f000 fc7e 	bl	b5770 <_ZN12JsonModifier11startModifyEPKN21JsonParserGeneratorRK9jsmntok_tE>
	mod.insertValue((int)newJsonData1);
   b4e74:	4639      	mov	r1, r7
   b4e76:	a806      	add	r0, sp, #24
   b4e78:	f7ff f9b0 	bl	b41dc <_ZN10JsonWriter11insertValueEi>
	mod.finish();
   b4e7c:	a806      	add	r0, sp, #24
   b4e7e:	f000 fefc 	bl	b5c7a <_ZN12JsonModifier6finishEv>
	nodeDatabase.set_nodeIDJson(jp.getBuffer());									// This should backup the nodeID database - now updated to persistent storage
   b4e82:	f001 f875 	bl	b5f70 <_ZN10nodeIDData8instanceEv>
   b4e86:	6869      	ldr	r1, [r5, #4]
   b4e88:	f001 f8a8 	bl	b5fdc <_ZN10nodeIDData14set_nodeIDJsonEPKc>
	JsonModifier mod(jp);
   b4e8c:	a806      	add	r0, sp, #24
   b4e8e:	f000 f91b 	bl	b50c8 <_ZN12JsonModifierD1Ev>
	return true;
   b4e92:	2001      	movs	r0, #1
}
   b4e94:	b017      	add	sp, #92	; 0x5c
   b4e96:	bdf0      	pop	{r4, r5, r6, r7, pc}
	if (nodeNumber == 0 || nodeNumber == 255) return false;
   b4e98:	2000      	movs	r0, #0
   b4e9a:	e7fb      	b.n	b4e94 <_Z12setJsonData1iii+0x8c>
   b4e9c:	2003b774 	.word	0x2003b774
   b4ea0:	000b9d33 	.word	0x000b9d33
   b4ea4:	000b9e33 	.word	0x000b9e33
   b4ea8:	000ba7d8 	.word	0x000ba7d8
   b4eac:	2003e6b0 	.word	0x2003e6b0

000b4eb0 <_Z12setJsonData2iii>:
bool setJsonData2(int nodeNumber, int sensorType, int newJsonData2) {
   b4eb0:	b5f0      	push	{r4, r5, r6, r7, lr}
   b4eb2:	4617      	mov	r7, r2
   b4eb4:	b097      	sub	sp, #92	; 0x5c
	if (nodeNumber == 0 || nodeNumber == 255) return false;
   b4eb6:	4604      	mov	r4, r0
   b4eb8:	2800      	cmp	r0, #0
   b4eba:	d042      	beq.n	b4f42 <_Z12setJsonData2iii+0x92>
   b4ebc:	28ff      	cmp	r0, #255	; 0xff
   b4ebe:	d040      	beq.n	b4f42 <_Z12setJsonData2iii+0x92>
	if (sensorType < 10 || sensorType > 19) return false; 					// Return false if node is not an occupancy counter
   b4ec0:	390a      	subs	r1, #10
   b4ec2:	2909      	cmp	r1, #9
   b4ec4:	d83d      	bhi.n	b4f42 <_Z12setJsonData2iii+0x92>
	jp.getValueTokenByKey(jp.getOuterObject(), "nodes", nodesArrayContainer);
   b4ec6:	4d20      	ldr	r5, [pc, #128]	; (b4f48 <_Z12setJsonData2iii+0x98>)
   b4ec8:	4628      	mov	r0, r5
   b4eca:	f000 f98e 	bl	b51ea <_ZNK10JsonParser14getOuterObjectEv>
   b4ece:	4a1f      	ldr	r2, [pc, #124]	; (b4f4c <_Z12setJsonData2iii+0x9c>)
   b4ed0:	4601      	mov	r1, r0
   b4ed2:	ab04      	add	r3, sp, #16
   b4ed4:	4628      	mov	r0, r5
   b4ed6:	f000 faf1 	bl	b54bc <_ZNK10JsonParser18getValueTokenByKeyEPKN21JsonParserGeneratorRK9jsmntok_tEPKcRS3_>
	nodeObjectContainer = jp.getTokenByIndex(nodesArrayContainer, nodeNumber-1);
   b4eda:	9904      	ldr	r1, [sp, #16]
   b4edc:	1e62      	subs	r2, r4, #1
   b4ede:	4628      	mov	r0, r5
   b4ee0:	f000 f9a5 	bl	b522e <_ZNK10JsonParser15getTokenByIndexEPKN21JsonParserGeneratorRK9jsmntok_tEj>
	if(nodeObjectContainer == NULL) return false;								// Ran out of entries 
   b4ee4:	4606      	mov	r6, r0
   b4ee6:	b360      	cbz	r0, b4f42 <_Z12setJsonData2iii+0x92>
	jp.getValueByKey(nodeObjectContainer, "p2", jsonData2);
   b4ee8:	4601      	mov	r1, r0
   b4eea:	4a19      	ldr	r2, [pc, #100]	; (b4f50 <_Z12setJsonData2iii+0xa0>)
   b4eec:	ab03      	add	r3, sp, #12
   b4eee:	4628      	mov	r0, r5
   b4ef0:	f7ff f905 	bl	b40fe <_ZNK10JsonParser13getValueByKeyIiEEbPKN21JsonParserGeneratorRK9jsmntok_tEPKcRT_.isra.0>
	Log.info("Updating jsonData2 value for node %d from %d to %d", nodeNumber, jsonData2, newJsonData2);
   b4ef4:	9b03      	ldr	r3, [sp, #12]
   b4ef6:	4917      	ldr	r1, [pc, #92]	; (b4f54 <_Z12setJsonData2iii+0xa4>)
   b4ef8:	4817      	ldr	r0, [pc, #92]	; (b4f58 <_Z12setJsonData2iii+0xa8>)
   b4efa:	9700      	str	r7, [sp, #0]
   b4efc:	4622      	mov	r2, r4
   b4efe:	f7ff f931 	bl	b4164 <_ZNK5spark6Logger4infoEPKcz>
	jp.getValueTokenByKey(nodeObjectContainer, "p2", value);
   b4f02:	4a13      	ldr	r2, [pc, #76]	; (b4f50 <_Z12setJsonData2iii+0xa0>)
   b4f04:	ab05      	add	r3, sp, #20
   b4f06:	4631      	mov	r1, r6
   b4f08:	4628      	mov	r0, r5
   b4f0a:	f000 fad7 	bl	b54bc <_ZNK10JsonParser18getValueTokenByKeyEPKN21JsonParserGeneratorRK9jsmntok_tEPKcRS3_>
	JsonModifier mod(jp);
   b4f0e:	4629      	mov	r1, r5
   b4f10:	a806      	add	r0, sp, #24
   b4f12:	f000 fc1b 	bl	b574c <_ZN12JsonModifierC1ER10JsonParser>
	mod.startModify(value);
   b4f16:	9905      	ldr	r1, [sp, #20]
   b4f18:	a806      	add	r0, sp, #24
   b4f1a:	f000 fc29 	bl	b5770 <_ZN12JsonModifier11startModifyEPKN21JsonParserGeneratorRK9jsmntok_tE>
	mod.insertValue((int)newJsonData2);
   b4f1e:	4639      	mov	r1, r7
   b4f20:	a806      	add	r0, sp, #24
   b4f22:	f7ff f95b 	bl	b41dc <_ZN10JsonWriter11insertValueEi>
	mod.finish();
   b4f26:	a806      	add	r0, sp, #24
   b4f28:	f000 fea7 	bl	b5c7a <_ZN12JsonModifier6finishEv>
	nodeDatabase.set_nodeIDJson(jp.getBuffer());									// This should backup the nodeID database - now updated to persistent storage
   b4f2c:	f001 f820 	bl	b5f70 <_ZN10nodeIDData8instanceEv>
   b4f30:	6869      	ldr	r1, [r5, #4]
   b4f32:	f001 f853 	bl	b5fdc <_ZN10nodeIDData14set_nodeIDJsonEPKc>
	JsonModifier mod(jp);
   b4f36:	a806      	add	r0, sp, #24
   b4f38:	f000 f8c6 	bl	b50c8 <_ZN12JsonModifierD1Ev>
	return true;
   b4f3c:	2001      	movs	r0, #1
}
   b4f3e:	b017      	add	sp, #92	; 0x5c
   b4f40:	bdf0      	pop	{r4, r5, r6, r7, pc}
	if (nodeNumber == 0 || nodeNumber == 255) return false;
   b4f42:	2000      	movs	r0, #0
   b4f44:	e7fb      	b.n	b4f3e <_Z12setJsonData2iii+0x8e>
   b4f46:	bf00      	nop
   b4f48:	2003b774 	.word	0x2003b774
   b4f4c:	000b9d33 	.word	0x000b9d33
   b4f50:	000b9e36 	.word	0x000b9e36
   b4f54:	000ba80b 	.word	0x000ba80b
   b4f58:	2003e6b0 	.word	0x2003e6b0

000b4f5c <loop>:
void loop() {
   b4f5c:	e92d 41f0 	stmdb	sp!, {r4, r5, r6, r7, r8, lr}
	delay(2000);
   b4f60:	f44f 60fa 	mov.w	r0, #2000	; 0x7d0
void loop() {
   b4f64:	b09c      	sub	sp, #112	; 0x70
	delay(2000);
   b4f66:	f002 f887 	bl	b7078 <delay>
    int currentIndex = numLoops % numberOfNodes;
   b4f6a:	f8df 8100 	ldr.w	r8, [pc, #256]	; b506c <loop+0x110>
   b4f6e:	4b3a      	ldr	r3, [pc, #232]	; (b5058 <loop+0xfc>)
   b4f70:	f8d8 6000 	ldr.w	r6, [r8]
   b4f74:	681b      	ldr	r3, [r3, #0]
   b4f76:	fb96 f2f3 	sdiv	r2, r6, r3
   b4f7a:	fb03 6612 	mls	r6, r3, r2, r6
    DataReport report = DataReport(uniqueIDs[currentIndex]); 
   b4f7e:	4b37      	ldr	r3, [pc, #220]	; (b505c <loop+0x100>)
   b4f80:	af0d      	add	r7, sp, #52	; 0x34
   b4f82:	f853 1026 	ldr.w	r1, [r3, r6, lsl #2]
   b4f86:	4638      	mov	r0, r7
   b4f88:	f001 fcb2 	bl	b68f0 <_ZN10DataReportC1Em>
    unsigned long currentTime = Time.now();
   b4f8c:	f004 f8b4 	bl	b90f8 <_ZN9TimeClass3nowEv>
    std::srand(currentTime);
   b4f90:	f004 fcce 	bl	b9930 <srand>
    report.setOccupancyNet(std::rand() % 1001); // The data report will have a random value for occupancyNet
   b4f94:	f004 fcfa 	bl	b998c <rand>
   b4f98:	f240 34e9 	movw	r4, #1001	; 0x3e9
   b4f9c:	fb90 f1f4 	sdiv	r1, r0, r4
   b4fa0:	fb01 0114 	mls	r1, r1, r4, r0
   b4fa4:	b289      	uxth	r1, r1
   b4fa6:	4638      	mov	r0, r7
   b4fa8:	f001 fcb9 	bl	b691e <_ZN10DataReport15setOccupancyNetEt>
    report.setOccupancyGross(std::rand() % 1001); // The data report will have a random value for occupancyGross
   b4fac:	f004 fcee 	bl	b998c <rand>
   b4fb0:	fb90 f1f4 	sdiv	r1, r0, r4
   b4fb4:	fb01 0114 	mls	r1, r1, r4, r0
    report.setNodeNumber(currentIndex + 1); // The nodeNumber is equal to the index + 1 for all uniqueIDs
   b4fb8:	3601      	adds	r6, #1
    report.setOccupancyGross(std::rand() % 1001); // The data report will have a random value for occupancyGross
   b4fba:	b289      	uxth	r1, r1
   b4fbc:	4638      	mov	r0, r7
   b4fbe:	f001 fcac 	bl	b691a <_ZN10DataReport17setOccupancyGrossEt>
    report.setNodeNumber(currentIndex + 1); // The nodeNumber is equal to the index + 1 for all uniqueIDs
   b4fc2:	b2f1      	uxtb	r1, r6
   b4fc4:	4638      	mov	r0, r7
   b4fc6:	f001 fca3 	bl	b6910 <_ZN10DataReport13setNodeNumberEh>
    report.setSensorType(10); // sensorType is 10 for occupancy nodes
   b4fca:	210a      	movs	r1, #10
   b4fcc:	4638      	mov	r0, r7
   b4fce:	f001 fca1 	bl	b6914 <_ZN10DataReport13setSensorTypeEh>
    Gateway::instance().processDataReport(report); // Send the data report to the gateway to populate MyPersistentData's current struct. 
   b4fd2:	f001 fcff 	bl	b69d4 <_ZN7Gateway8instanceEv>
   b4fd6:	ad10      	add	r5, sp, #64	; 0x40
   b4fd8:	4684      	mov	ip, r0
   b4fda:	cd0f      	ldmia	r5!, {r0, r1, r2, r3}
   b4fdc:	466c      	mov	r4, sp
   b4fde:	c40f      	stmia	r4!, {r0, r1, r2, r3}
   b4fe0:	cd0f      	ldmia	r5!, {r0, r1, r2, r3}
   b4fe2:	c40f      	stmia	r4!, {r0, r1, r2, r3}
   b4fe4:	e895 000f 	ldmia.w	r5, {r0, r1, r2, r3}
   b4fe8:	e884 000f 	stmia.w	r4, {r0, r1, r2, r3}
   b4fec:	4660      	mov	r0, ip
   b4fee:	e897 000e 	ldmia.w	r7, {r1, r2, r3}
   b4ff2:	f001 fd5b 	bl	b6aac <_ZN7Gateway17processDataReportE10DataReport>
    bool result1 = setJsonData1(currentIndex+1, 10, current.get_payload3() <<8 | current.get_payload4());
   b4ff6:	f000 ff3b 	bl	b5e70 <_ZN17currentStatusData8instanceEv>
   b4ffa:	f001 f8e8 	bl	b61ce <_ZNK17currentStatusData12get_payload3Ev>
   b4ffe:	4604      	mov	r4, r0
   b5000:	f000 ff36 	bl	b5e70 <_ZN17currentStatusData8instanceEv>
   b5004:	f001 f8e8 	bl	b61d8 <_ZNK17currentStatusData12get_payload4Ev>
   b5008:	210a      	movs	r1, #10
   b500a:	ea40 2204 	orr.w	r2, r0, r4, lsl #8
   b500e:	4630      	mov	r0, r6
   b5010:	f7ff fefa 	bl	b4e08 <_Z12setJsonData1iii>
   b5014:	4604      	mov	r4, r0
    bool result2 = setJsonData2(currentIndex+1, 10, current.get_payload1() <<8 | current.get_payload2());
   b5016:	f000 ff2b 	bl	b5e70 <_ZN17currentStatusData8instanceEv>
   b501a:	f001 f8ce 	bl	b61ba <_ZNK17currentStatusData12get_payload1Ev>
   b501e:	4605      	mov	r5, r0
   b5020:	f000 ff26 	bl	b5e70 <_ZN17currentStatusData8instanceEv>
   b5024:	f001 f8ce 	bl	b61c4 <_ZNK17currentStatusData12get_payload2Ev>
   b5028:	210a      	movs	r1, #10
   b502a:	ea40 2205 	orr.w	r2, r0, r5, lsl #8
   b502e:	4630      	mov	r0, r6
   b5030:	f7ff ff3e 	bl	b4eb0 <_Z12setJsonData2iii>
    if(!(result1 && result2)){
   b5034:	b104      	cbz	r4, b5038 <loop+0xdc>
   b5036:	b918      	cbnz	r0, b5040 <loop+0xe4>
        Log.info("Failed to set Json Data!! Tokens:");
   b5038:	4909      	ldr	r1, [pc, #36]	; (b5060 <loop+0x104>)
   b503a:	480a      	ldr	r0, [pc, #40]	; (b5064 <loop+0x108>)
   b503c:	f7ff f892 	bl	b4164 <_ZNK5spark6Logger4infoEPKcz>
   printTokens(jp, false);
   b5040:	4809      	ldr	r0, [pc, #36]	; (b5068 <loop+0x10c>)
   b5042:	2100      	movs	r1, #0
   b5044:	f7ff f924 	bl	b4290 <_Z11printTokensR10JsonParserb>
    numLoops++;
   b5048:	f8d8 3000 	ldr.w	r3, [r8]
   b504c:	3301      	adds	r3, #1
   b504e:	f8c8 3000 	str.w	r3, [r8]
}
   b5052:	b01c      	add	sp, #112	; 0x70
   b5054:	e8bd 81f0 	ldmia.w	sp!, {r4, r5, r6, r7, r8, pc}
   b5058:	2003e600 	.word	0x2003e600
   b505c:	000ba8a0 	.word	0x000ba8a0
   b5060:	000ba83e 	.word	0x000ba83e
   b5064:	2003e6b0 	.word	0x2003e6b0
   b5068:	2003b774 	.word	0x2003b774
   b506c:	2003b770 	.word	0x2003b770

000b5070 <_ZN10JsonBufferD1Ev>:


JsonBuffer::JsonBuffer()  : buffer(0), bufferLen(0), offset(0), staticBuffers(false) {

}
JsonBuffer::~JsonBuffer() {
   b5070:	b510      	push	{r4, lr}
   b5072:	4b05      	ldr	r3, [pc, #20]	; (b5088 <_ZN10JsonBufferD1Ev+0x18>)
   b5074:	6003      	str	r3, [r0, #0]
	if (!staticBuffers && buffer) {
   b5076:	7c03      	ldrb	r3, [r0, #16]
JsonBuffer::~JsonBuffer() {
   b5078:	4604      	mov	r4, r0
	if (!staticBuffers && buffer) {
   b507a:	b91b      	cbnz	r3, b5084 <_ZN10JsonBufferD1Ev+0x14>
   b507c:	6840      	ldr	r0, [r0, #4]
   b507e:	b108      	cbz	r0, b5084 <_ZN10JsonBufferD1Ev+0x14>
		free(buffer);
   b5080:	f001 ffa2 	bl	b6fc8 <free>
	}
}
   b5084:	4620      	mov	r0, r4
   b5086:	bd10      	pop	{r4, pc}
   b5088:	000ba8e8 	.word	0x000ba8e8

000b508c <_ZN10JsonBufferD0Ev>:
JsonBuffer::~JsonBuffer() {
   b508c:	b510      	push	{r4, lr}
   b508e:	4604      	mov	r4, r0
}
   b5090:	f7ff ffee 	bl	b5070 <_ZN10JsonBufferD1Ev>
   b5094:	4620      	mov	r0, r4
   b5096:	2114      	movs	r1, #20
   b5098:	f7fe ffff 	bl	b409a <_ZdlPvj>
   b509c:	4620      	mov	r0, r4
   b509e:	bd10      	pop	{r4, pc}

000b50a0 <_ZN10JsonWriterD1Ev>:
//
JsonWriter::JsonWriter() : JsonBuffer(), floatPlaces(-1) {
	init();
}

JsonWriter::~JsonWriter() {
   b50a0:	b510      	push	{r4, lr}
   b50a2:	4b03      	ldr	r3, [pc, #12]	; (b50b0 <_ZN10JsonWriterD1Ev+0x10>)
   b50a4:	6003      	str	r3, [r0, #0]
   b50a6:	4604      	mov	r4, r0
   b50a8:	f7ff ffe2 	bl	b5070 <_ZN10JsonBufferD1Ev>

}
   b50ac:	4620      	mov	r0, r4
   b50ae:	bd10      	pop	{r4, pc}
   b50b0:	000ba908 	.word	0x000ba908

000b50b4 <_ZN10JsonWriterD0Ev>:
JsonWriter::~JsonWriter() {
   b50b4:	b510      	push	{r4, lr}
   b50b6:	4604      	mov	r4, r0
}
   b50b8:	f7ff fff2 	bl	b50a0 <_ZN10JsonWriterD1Ev>
   b50bc:	4620      	mov	r0, r4
   b50be:	2130      	movs	r1, #48	; 0x30
   b50c0:	f7fe ffeb 	bl	b409a <_ZdlPvj>
   b50c4:	4620      	mov	r0, r4
   b50c6:	bd10      	pop	{r4, pc}

000b50c8 <_ZN12JsonModifierD1Ev>:

JsonModifier::JsonModifier(JsonParser &jp) : jp(jp) {

}

JsonModifier::~JsonModifier() {
   b50c8:	b510      	push	{r4, lr}
   b50ca:	4b03      	ldr	r3, [pc, #12]	; (b50d8 <_ZN12JsonModifierD1Ev+0x10>)
   b50cc:	6003      	str	r3, [r0, #0]
   b50ce:	4604      	mov	r4, r0
   b50d0:	f7ff ffe6 	bl	b50a0 <_ZN10JsonWriterD1Ev>

}
   b50d4:	4620      	mov	r0, r4
   b50d6:	bd10      	pop	{r4, pc}
   b50d8:	000ba918 	.word	0x000ba918

000b50dc <_ZN12JsonModifierD0Ev>:
JsonModifier::~JsonModifier() {
   b50dc:	b510      	push	{r4, lr}
   b50de:	4604      	mov	r4, r0
}
   b50e0:	f7ff fff2 	bl	b50c8 <_ZN12JsonModifierD1Ev>
   b50e4:	4620      	mov	r0, r4
   b50e6:	2140      	movs	r1, #64	; 0x40
   b50e8:	f7fe ffd7 	bl	b409a <_ZdlPvj>
   b50ec:	4620      	mov	r0, r4
   b50ee:	bd10      	pop	{r4, pc}

000b50f0 <_ZN10JsonParserD1Ev>:
JsonParser::~JsonParser() {
   b50f0:	b510      	push	{r4, lr}
   b50f2:	4b07      	ldr	r3, [pc, #28]	; (b5110 <_ZN10JsonParserD1Ev+0x20>)
   b50f4:	6003      	str	r3, [r0, #0]
	if (!staticBuffers && tokens) {
   b50f6:	7c03      	ldrb	r3, [r0, #16]
JsonParser::~JsonParser() {
   b50f8:	4604      	mov	r4, r0
	if (!staticBuffers && tokens) {
   b50fa:	b91b      	cbnz	r3, b5104 <_ZN10JsonParserD1Ev+0x14>
   b50fc:	6940      	ldr	r0, [r0, #20]
   b50fe:	b108      	cbz	r0, b5104 <_ZN10JsonParserD1Ev+0x14>
		free(tokens);
   b5100:	f001 ff62 	bl	b6fc8 <free>
JsonParser::~JsonParser() {
   b5104:	4620      	mov	r0, r4
   b5106:	f7ff ffb3 	bl	b5070 <_ZN10JsonBufferD1Ev>
}
   b510a:	4620      	mov	r0, r4
   b510c:	bd10      	pop	{r4, pc}
   b510e:	bf00      	nop
   b5110:	000ba8f8 	.word	0x000ba8f8

000b5114 <_ZN10JsonParserD0Ev>:
JsonParser::~JsonParser() {
   b5114:	b510      	push	{r4, lr}
   b5116:	4604      	mov	r4, r0
}
   b5118:	f7ff ffea 	bl	b50f0 <_ZN10JsonParserD1Ev>
   b511c:	4620      	mov	r0, r4
   b511e:	212c      	movs	r1, #44	; 0x2c
   b5120:	f7fe ffbb 	bl	b409a <_ZdlPvj>
   b5124:	4620      	mov	r0, r4
   b5126:	bd10      	pop	{r4, pc}

000b5128 <_ZN10JsonBufferC1Ev>:
JsonBuffer::JsonBuffer()  : buffer(0), bufferLen(0), offset(0), staticBuffers(false) {
   b5128:	4a03      	ldr	r2, [pc, #12]	; (b5138 <_ZN10JsonBufferC1Ev+0x10>)
   b512a:	6002      	str	r2, [r0, #0]
   b512c:	2200      	movs	r2, #0
   b512e:	e9c0 2201 	strd	r2, r2, [r0, #4]
   b5132:	60c2      	str	r2, [r0, #12]
   b5134:	7402      	strb	r2, [r0, #16]
}
   b5136:	4770      	bx	lr
   b5138:	000ba8e8 	.word	0x000ba8e8

000b513c <_ZN10JsonBuffer8allocateEj>:
bool JsonBuffer::allocate(size_t len) {
   b513c:	b538      	push	{r3, r4, r5, lr}
	if (!staticBuffers) {
   b513e:	7c03      	ldrb	r3, [r0, #16]
bool JsonBuffer::allocate(size_t len) {
   b5140:	4604      	mov	r4, r0
   b5142:	460d      	mov	r5, r1
	if (!staticBuffers) {
   b5144:	b10b      	cbz	r3, b514a <_ZN10JsonBuffer8allocateEj+0xe>
		return false;
   b5146:	2000      	movs	r0, #0
}
   b5148:	bd38      	pop	{r3, r4, r5, pc}
		if (buffer) {
   b514a:	6840      	ldr	r0, [r0, #4]
   b514c:	b138      	cbz	r0, b515e <_ZN10JsonBuffer8allocateEj+0x22>
			newBuffer = (char *) realloc(buffer, len);
   b514e:	f001 ff43 	bl	b6fd8 <realloc>
		if (newBuffer) {
   b5152:	2800      	cmp	r0, #0
   b5154:	d0f7      	beq.n	b5146 <_ZN10JsonBuffer8allocateEj+0xa>
			bufferLen = len;
   b5156:	e9c4 0501 	strd	r0, r5, [r4, #4]
			return true;
   b515a:	2001      	movs	r0, #1
   b515c:	e7f4      	b.n	b5148 <_ZN10JsonBuffer8allocateEj+0xc>
			newBuffer = (char *) malloc(len);
   b515e:	4608      	mov	r0, r1
   b5160:	f001 ff2a 	bl	b6fb8 <malloc>
   b5164:	e7f5      	b.n	b5152 <_ZN10JsonBuffer8allocateEj+0x16>

000b5166 <_ZN10JsonBuffer7addDataEPKcj>:
bool JsonBuffer::addData(const char *data, size_t dataLen) {
   b5166:	b570      	push	{r4, r5, r6, lr}
	if (!buffer || (offset + dataLen) > bufferLen) {
   b5168:	68c3      	ldr	r3, [r0, #12]
bool JsonBuffer::addData(const char *data, size_t dataLen) {
   b516a:	460e      	mov	r6, r1
   b516c:	4615      	mov	r5, r2
	if (!buffer || (offset + dataLen) > bufferLen) {
   b516e:	18d1      	adds	r1, r2, r3
   b5170:	6842      	ldr	r2, [r0, #4]
bool JsonBuffer::addData(const char *data, size_t dataLen) {
   b5172:	4604      	mov	r4, r0
	if (!buffer || (offset + dataLen) > bufferLen) {
   b5174:	b172      	cbz	r2, b5194 <_ZN10JsonBuffer7addDataEPKcj+0x2e>
   b5176:	6882      	ldr	r2, [r0, #8]
   b5178:	428a      	cmp	r2, r1
   b517a:	d30b      	bcc.n	b5194 <_ZN10JsonBuffer7addDataEPKcj+0x2e>
	memcpy(&buffer[offset], data, dataLen);
   b517c:	6860      	ldr	r0, [r4, #4]
   b517e:	68e3      	ldr	r3, [r4, #12]
   b5180:	462a      	mov	r2, r5
   b5182:	4631      	mov	r1, r6
   b5184:	4418      	add	r0, r3
   b5186:	f004 fba3 	bl	b98d0 <memcpy>
	offset += dataLen;
   b518a:	68e2      	ldr	r2, [r4, #12]
   b518c:	442a      	add	r2, r5
   b518e:	60e2      	str	r2, [r4, #12]
	return true;
   b5190:	2001      	movs	r0, #1
}
   b5192:	bd70      	pop	{r4, r5, r6, pc}
		if (!allocate(offset + dataLen)) {
   b5194:	4620      	mov	r0, r4
   b5196:	f7ff ffd1 	bl	b513c <_ZN10JsonBuffer8allocateEj>
   b519a:	2800      	cmp	r0, #0
   b519c:	d1ee      	bne.n	b517c <_ZN10JsonBuffer7addDataEPKcj+0x16>
   b519e:	e7f8      	b.n	b5192 <_ZN10JsonBuffer7addDataEPKcj+0x2c>

000b51a0 <_ZN10JsonBuffer5clearEv>:
	if (buffer && bufferLen) {
   b51a0:	6843      	ldr	r3, [r0, #4]
	offset = 0;
   b51a2:	2100      	movs	r1, #0
   b51a4:	60c1      	str	r1, [r0, #12]
	if (buffer && bufferLen) {
   b51a6:	b123      	cbz	r3, b51b2 <_ZN10JsonBuffer5clearEv+0x12>
   b51a8:	6882      	ldr	r2, [r0, #8]
   b51aa:	b112      	cbz	r2, b51b2 <_ZN10JsonBuffer5clearEv+0x12>
		memset(buffer, 0, bufferLen);
   b51ac:	4618      	mov	r0, r3
   b51ae:	f004 bbb7 	b.w	b9920 <memset>
}
   b51b2:	4770      	bx	lr

000b51b4 <_ZN10JsonParserC1EPcjPN21JsonParserGeneratorRK9jsmntok_tEj>:
JsonParser::JsonParser(char *buffer, size_t bufferLen, JsonParserGeneratorRK::jsmntok_t *tokens, size_t maxTokens) :
   b51b4:	b510      	push	{r4, lr}
JsonBuffer::JsonBuffer(char *buffer, size_t bufferLen)  : buffer(buffer), bufferLen(bufferLen), offset(0), staticBuffers(true) {
   b51b6:	e9c0 1201 	strd	r1, r2, [r0, #4]
   b51ba:	2200      	movs	r2, #0
   b51bc:	60c2      	str	r2, [r0, #12]
   b51be:	2201      	movs	r2, #1
   b51c0:	7402      	strb	r2, [r0, #16]
		JsonBuffer(buffer, bufferLen), tokens(tokens), maxTokens(maxTokens) {
   b51c2:	6143      	str	r3, [r0, #20]
   b51c4:	4a02      	ldr	r2, [pc, #8]	; (b51d0 <_ZN10JsonParserC1EPcjPN21JsonParserGeneratorRK9jsmntok_tEj+0x1c>)
   b51c6:	9b02      	ldr	r3, [sp, #8]
   b51c8:	6002      	str	r2, [r0, #0]
   b51ca:	61c3      	str	r3, [r0, #28]
}
   b51cc:	bd10      	pop	{r4, pc}
   b51ce:	bf00      	nop
   b51d0:	000ba8f8 	.word	0x000ba8f8

000b51d4 <_ZNK10JsonParser13getOuterArrayEv>:
	for(const JsonParserGeneratorRK::jsmntok_t *token = tokens; token < tokensEnd; token++) {
   b51d4:	e9d0 0305 	ldrd	r0, r3, [r0, #20]
   b51d8:	4283      	cmp	r3, r0
   b51da:	d904      	bls.n	b51e6 <_ZNK10JsonParser13getOuterArrayEv+0x12>
		if (token->type == JsonParserGeneratorRK::JSMN_ARRAY) {
   b51dc:	7802      	ldrb	r2, [r0, #0]
   b51de:	2a02      	cmp	r2, #2
   b51e0:	d002      	beq.n	b51e8 <_ZNK10JsonParser13getOuterArrayEv+0x14>
	for(const JsonParserGeneratorRK::jsmntok_t *token = tokens; token < tokensEnd; token++) {
   b51e2:	3010      	adds	r0, #16
   b51e4:	e7f8      	b.n	b51d8 <_ZNK10JsonParser13getOuterArrayEv+0x4>
	return 0;
   b51e6:	2000      	movs	r0, #0
}
   b51e8:	4770      	bx	lr

000b51ea <_ZNK10JsonParser14getOuterObjectEv>:
	if (tokens < tokensEnd && tokens[0].type == JsonParserGeneratorRK::JSMN_OBJECT) {
   b51ea:	e9d0 0305 	ldrd	r0, r3, [r0, #20]
   b51ee:	4298      	cmp	r0, r3
   b51f0:	d204      	bcs.n	b51fc <_ZNK10JsonParser14getOuterObjectEv+0x12>
   b51f2:	7803      	ldrb	r3, [r0, #0]
		return 0;
   b51f4:	2b01      	cmp	r3, #1
   b51f6:	bf18      	it	ne
   b51f8:	2000      	movne	r0, #0
   b51fa:	4770      	bx	lr
   b51fc:	2000      	movs	r0, #0
}
   b51fe:	4770      	bx	lr

000b5200 <_ZNK10JsonParser10skipObjectEPKN21JsonParserGeneratorRK9jsmntok_tERS3_>:
bool JsonParser::skipObject(const JsonParserGeneratorRK::jsmntok_t *container, const JsonParserGeneratorRK::jsmntok_t *&obj) const {
   b5200:	b570      	push	{r4, r5, r6, lr}
	int curObjectEnd = obj->end;
   b5202:	6813      	ldr	r3, [r2, #0]
   b5204:	689d      	ldr	r5, [r3, #8]
	while(++obj < tokensEnd && obj->end < container->end && obj->end <= curObjectEnd) {
   b5206:	6813      	ldr	r3, [r2, #0]
   b5208:	f103 0410 	add.w	r4, r3, #16
   b520c:	6014      	str	r4, [r2, #0]
   b520e:	6986      	ldr	r6, [r0, #24]
   b5210:	42b4      	cmp	r4, r6
   b5212:	d20a      	bcs.n	b522a <_ZNK10JsonParser10skipObjectEPKN21JsonParserGeneratorRK9jsmntok_tERS3_+0x2a>
   b5214:	699b      	ldr	r3, [r3, #24]
   b5216:	688c      	ldr	r4, [r1, #8]
   b5218:	42a3      	cmp	r3, r4
   b521a:	da01      	bge.n	b5220 <_ZNK10JsonParser10skipObjectEPKN21JsonParserGeneratorRK9jsmntok_tERS3_+0x20>
   b521c:	42ab      	cmp	r3, r5
   b521e:	ddf2      	ble.n	b5206 <_ZNK10JsonParser10skipObjectEPKN21JsonParserGeneratorRK9jsmntok_tERS3_+0x6>
	if (obj >= tokensEnd || obj->end > container->end) {
   b5220:	42a3      	cmp	r3, r4
   b5222:	bfcc      	ite	gt
   b5224:	2000      	movgt	r0, #0
   b5226:	2001      	movle	r0, #1
   b5228:	e000      	b.n	b522c <_ZNK10JsonParser10skipObjectEPKN21JsonParserGeneratorRK9jsmntok_tERS3_+0x2c>
		return false;
   b522a:	2000      	movs	r0, #0
}
   b522c:	bd70      	pop	{r4, r5, r6, pc}

000b522e <_ZNK10JsonParser15getTokenByIndexEPKN21JsonParserGeneratorRK9jsmntok_tEj>:
const JsonParserGeneratorRK::jsmntok_t *JsonParser::getTokenByIndex(const JsonParserGeneratorRK::jsmntok_t *container, size_t desiredIndex) const {
   b522e:	b573      	push	{r0, r1, r4, r5, r6, lr}
	const JsonParserGeneratorRK::jsmntok_t *token = container + 1;
   b5230:	f101 0310 	add.w	r3, r1, #16
const JsonParserGeneratorRK::jsmntok_t *JsonParser::getTokenByIndex(const JsonParserGeneratorRK::jsmntok_t *container, size_t desiredIndex) const {
   b5234:	4604      	mov	r4, r0
   b5236:	4616      	mov	r6, r2
	const JsonParserGeneratorRK::jsmntok_t *token = container + 1;
   b5238:	9301      	str	r3, [sp, #4]
	size_t index = 0;
   b523a:	2500      	movs	r5, #0
	while(token < tokensEnd && token->end < container->end) {
   b523c:	9801      	ldr	r0, [sp, #4]
   b523e:	69a3      	ldr	r3, [r4, #24]
   b5240:	4283      	cmp	r3, r0
   b5242:	d90b      	bls.n	b525c <_ZNK10JsonParser15getTokenByIndexEPKN21JsonParserGeneratorRK9jsmntok_tEj+0x2e>
   b5244:	6882      	ldr	r2, [r0, #8]
   b5246:	688b      	ldr	r3, [r1, #8]
   b5248:	429a      	cmp	r2, r3
   b524a:	da07      	bge.n	b525c <_ZNK10JsonParser15getTokenByIndexEPKN21JsonParserGeneratorRK9jsmntok_tEj+0x2e>
		if (desiredIndex == index) {
   b524c:	42b5      	cmp	r5, r6
   b524e:	d006      	beq.n	b525e <_ZNK10JsonParser15getTokenByIndexEPKN21JsonParserGeneratorRK9jsmntok_tEj+0x30>
		skipObject(container, token);
   b5250:	aa01      	add	r2, sp, #4
   b5252:	4620      	mov	r0, r4
		index++;
   b5254:	3501      	adds	r5, #1
		skipObject(container, token);
   b5256:	f7ff ffd3 	bl	b5200 <_ZNK10JsonParser10skipObjectEPKN21JsonParserGeneratorRK9jsmntok_tERS3_>
	while(token < tokensEnd && token->end < container->end) {
   b525a:	e7ef      	b.n	b523c <_ZNK10JsonParser15getTokenByIndexEPKN21JsonParserGeneratorRK9jsmntok_tEj+0xe>
	return 0;
   b525c:	2000      	movs	r0, #0
}
   b525e:	b002      	add	sp, #8
   b5260:	bd70      	pop	{r4, r5, r6, pc}

000b5262 <_ZNK10JsonParser23getKeyValueTokenByIndexEPKN21JsonParserGeneratorRK9jsmntok_tERS3_S4_j>:
bool JsonParser::getKeyValueTokenByIndex(const JsonParserGeneratorRK::jsmntok_t *container, const JsonParserGeneratorRK::jsmntok_t *&key, const JsonParserGeneratorRK::jsmntok_t *&value, size_t desiredIndex) const {
   b5262:	e92d 41f3 	stmdb	sp!, {r0, r1, r4, r5, r6, r7, r8, lr}
   b5266:	9d08      	ldr	r5, [sp, #32]
   b5268:	4698      	mov	r8, r3
	const JsonParserGeneratorRK::jsmntok_t *token = container + 1;
   b526a:	f101 0310 	add.w	r3, r1, #16
bool JsonParser::getKeyValueTokenByIndex(const JsonParserGeneratorRK::jsmntok_t *container, const JsonParserGeneratorRK::jsmntok_t *&key, const JsonParserGeneratorRK::jsmntok_t *&value, size_t desiredIndex) const {
   b526e:	4604      	mov	r4, r0
   b5270:	4617      	mov	r7, r2
	const JsonParserGeneratorRK::jsmntok_t *token = container + 1;
   b5272:	9301      	str	r3, [sp, #4]
	size_t index = 0;
   b5274:	2600      	movs	r6, #0
	while(token < tokensEnd && token->end < container->end) {
   b5276:	9801      	ldr	r0, [sp, #4]
   b5278:	69a3      	ldr	r3, [r4, #24]
   b527a:	4283      	cmp	r3, r0
   b527c:	d91a      	bls.n	b52b4 <_ZNK10JsonParser23getKeyValueTokenByIndexEPKN21JsonParserGeneratorRK9jsmntok_tERS3_S4_j+0x52>
   b527e:	6882      	ldr	r2, [r0, #8]
   b5280:	688b      	ldr	r3, [r1, #8]
   b5282:	429a      	cmp	r2, r3
   b5284:	da16      	bge.n	b52b4 <_ZNK10JsonParser23getKeyValueTokenByIndexEPKN21JsonParserGeneratorRK9jsmntok_tERS3_S4_j+0x52>
		if (desiredIndex == index) {
   b5286:	42ae      	cmp	r6, r5
   b5288:	d10b      	bne.n	b52a2 <_ZNK10JsonParser23getKeyValueTokenByIndexEPKN21JsonParserGeneratorRK9jsmntok_tERS3_S4_j+0x40>
			key = token;
   b528a:	6038      	str	r0, [r7, #0]
			if (skipObject(container, token)) {
   b528c:	aa01      	add	r2, sp, #4
   b528e:	4620      	mov	r0, r4
   b5290:	f7ff ffb6 	bl	b5200 <_ZNK10JsonParser10skipObjectEPKN21JsonParserGeneratorRK9jsmntok_tERS3_>
   b5294:	b128      	cbz	r0, b52a2 <_ZNK10JsonParser23getKeyValueTokenByIndexEPKN21JsonParserGeneratorRK9jsmntok_tERS3_S4_j+0x40>
				value = token;
   b5296:	9b01      	ldr	r3, [sp, #4]
   b5298:	f8c8 3000 	str.w	r3, [r8]
}
   b529c:	b002      	add	sp, #8
   b529e:	e8bd 81f0 	ldmia.w	sp!, {r4, r5, r6, r7, r8, pc}
		skipObject(container, token);
   b52a2:	aa01      	add	r2, sp, #4
   b52a4:	4620      	mov	r0, r4
   b52a6:	f7ff ffab 	bl	b5200 <_ZNK10JsonParser10skipObjectEPKN21JsonParserGeneratorRK9jsmntok_tERS3_>
		skipObject(container, token);
   b52aa:	4620      	mov	r0, r4
		index++;
   b52ac:	3601      	adds	r6, #1
		skipObject(container, token);
   b52ae:	f7ff ffa7 	bl	b5200 <_ZNK10JsonParser10skipObjectEPKN21JsonParserGeneratorRK9jsmntok_tERS3_>
	while(token < tokensEnd && token->end < container->end) {
   b52b2:	e7e0      	b.n	b5276 <_ZNK10JsonParser23getKeyValueTokenByIndexEPKN21JsonParserGeneratorRK9jsmntok_tERS3_S4_j+0x14>
	return false;
   b52b4:	2000      	movs	r0, #0
   b52b6:	e7f1      	b.n	b529c <_ZNK10JsonParser23getKeyValueTokenByIndexEPKN21JsonParserGeneratorRK9jsmntok_tERS3_S4_j+0x3a>

000b52b8 <_ZNK10JsonParser14copyTokenValueEPKN21JsonParserGeneratorRK9jsmntok_tEPcj>:
void JsonParser::copyTokenValue(const JsonParserGeneratorRK::jsmntok_t *token, char *dst, size_t dstLen) const {
   b52b8:	b5f0      	push	{r4, r5, r6, r7, lr}
	for(ii = 0; ii < (token->end - token->start) && ii < ((int)dstLen - 1); ii++) {
   b52ba:	3b01      	subs	r3, #1
   b52bc:	2400      	movs	r4, #0
   b52be:	e9d1 7601 	ldrd	r7, r6, [r1, #4]
   b52c2:	1bf6      	subs	r6, r6, r7
   b52c4:	42a6      	cmp	r6, r4
   b52c6:	dd08      	ble.n	b52da <_ZNK10JsonParser14copyTokenValueEPKN21JsonParserGeneratorRK9jsmntok_tEPcj+0x22>
   b52c8:	42a3      	cmp	r3, r4
   b52ca:	dd06      	ble.n	b52da <_ZNK10JsonParser14copyTokenValueEPKN21JsonParserGeneratorRK9jsmntok_tEPcj+0x22>
		dst[ii] = buffer[token->start + ii];
   b52cc:	6845      	ldr	r5, [r0, #4]
   b52ce:	443d      	add	r5, r7
   b52d0:	5d2d      	ldrb	r5, [r5, r4]
   b52d2:	f802 5b01 	strb.w	r5, [r2], #1
	for(ii = 0; ii < (token->end - token->start) && ii < ((int)dstLen - 1); ii++) {
   b52d6:	3401      	adds	r4, #1
   b52d8:	e7f1      	b.n	b52be <_ZNK10JsonParser14copyTokenValueEPKN21JsonParserGeneratorRK9jsmntok_tEPcj+0x6>
	dst[ii] = 0;
   b52da:	2300      	movs	r3, #0
   b52dc:	7013      	strb	r3, [r2, #0]
}
   b52de:	bdf0      	pop	{r4, r5, r6, r7, pc}

000b52e0 <_ZNK10JsonParser13getTokenValueEPKN21JsonParserGeneratorRK9jsmntok_tERi>:
bool JsonParser::getTokenValue(const JsonParserGeneratorRK::jsmntok_t *token, int &result) const {
   b52e0:	b51f      	push	{r0, r1, r2, r3, r4, lr}
   b52e2:	4614      	mov	r4, r2
	copyTokenValue(token, tmp, sizeof(tmp));
   b52e4:	2310      	movs	r3, #16
   b52e6:	466a      	mov	r2, sp
   b52e8:	f7ff ffe6 	bl	b52b8 <_ZNK10JsonParser14copyTokenValueEPKN21JsonParserGeneratorRK9jsmntok_tEPcj>
	if (sscanf(tmp, "%d", &result) == 1) {
   b52ec:	4904      	ldr	r1, [pc, #16]	; (b5300 <_ZNK10JsonParser13getTokenValueEPKN21JsonParserGeneratorRK9jsmntok_tERi+0x20>)
   b52ee:	4622      	mov	r2, r4
   b52f0:	4668      	mov	r0, sp
   b52f2:	f001 fe79 	bl	b6fe8 <sscanf>
}
   b52f6:	1e43      	subs	r3, r0, #1
   b52f8:	4258      	negs	r0, r3
   b52fa:	4158      	adcs	r0, r3
   b52fc:	b004      	add	sp, #16
   b52fe:	bd10      	pop	{r4, pc}
   b5300:	000ba665 	.word	0x000ba665

000b5304 <_ZNK10JsonParser13getTokenValueEPKN21JsonParserGeneratorRK9jsmntok_tERm>:
bool JsonParser::getTokenValue(const JsonParserGeneratorRK::jsmntok_t *token, unsigned long &result) const {
   b5304:	b51f      	push	{r0, r1, r2, r3, r4, lr}
   b5306:	4614      	mov	r4, r2
	copyTokenValue(token, tmp, sizeof(tmp));
   b5308:	2310      	movs	r3, #16
   b530a:	466a      	mov	r2, sp
   b530c:	f7ff ffd4 	bl	b52b8 <_ZNK10JsonParser14copyTokenValueEPKN21JsonParserGeneratorRK9jsmntok_tEPcj>
	if (sscanf(tmp, "%lu", &result) == 1) {
   b5310:	4904      	ldr	r1, [pc, #16]	; (b5324 <_ZNK10JsonParser13getTokenValueEPKN21JsonParserGeneratorRK9jsmntok_tERm+0x20>)
   b5312:	4622      	mov	r2, r4
   b5314:	4668      	mov	r0, sp
   b5316:	f001 fe67 	bl	b6fe8 <sscanf>
}
   b531a:	1e43      	subs	r3, r0, #1
   b531c:	4258      	negs	r0, r3
   b531e:	4158      	adcs	r0, r3
   b5320:	b004      	add	sp, #16
   b5322:	bd10      	pop	{r4, pc}
   b5324:	000b9fc8 	.word	0x000b9fc8

000b5328 <_ZN16JsonParserString6appendEc>:
void JsonParserString::append(char ch) {
   b5328:	b510      	push	{r4, lr}
   b532a:	4604      	mov	r4, r0
	if (str) {
   b532c:	6800      	ldr	r0, [r0, #0]
void JsonParserString::append(char ch) {
   b532e:	460b      	mov	r3, r1
	if (str) {
   b5330:	b128      	cbz	r0, b533e <_ZN16JsonParserString6appendEc+0x16>
		str->concat(ch);
   b5332:	f003 fe86 	bl	b9042 <_ZN6String6concatEc>
		length++;
   b5336:	68e3      	ldr	r3, [r4, #12]
   b5338:	3301      	adds	r3, #1
   b533a:	60e3      	str	r3, [r4, #12]
}
   b533c:	bd10      	pop	{r4, pc}
		if (buf && length < (bufLen - 1)) {
   b533e:	6860      	ldr	r0, [r4, #4]
   b5340:	2800      	cmp	r0, #0
   b5342:	d0f8      	beq.n	b5336 <_ZN16JsonParserString6appendEc+0xe>
   b5344:	e9d4 2102 	ldrd	r2, r1, [r4, #8]
   b5348:	3a01      	subs	r2, #1
   b534a:	428a      	cmp	r2, r1
			buf[length] = ch;
   b534c:	bf88      	it	hi
   b534e:	5443      	strbhi	r3, [r0, r1]
   b5350:	e7f1      	b.n	b5336 <_ZN16JsonParserString6appendEc+0xe>

000b5352 <_ZN10JsonParser10appendUtf8EtR16JsonParserString>:
void JsonParser::appendUtf8(uint16_t unicode, JsonParserString &str) {
   b5352:	4603      	mov	r3, r0
	if (unicode <= 0x007f) {
   b5354:	2b7f      	cmp	r3, #127	; 0x7f
void JsonParser::appendUtf8(uint16_t unicode, JsonParserString &str) {
   b5356:	b537      	push	{r0, r1, r2, r4, r5, lr}
   b5358:	4608      	mov	r0, r1
		str.append((char)unicode);
   b535a:	b2d9      	uxtb	r1, r3
	if (unicode <= 0x007f) {
   b535c:	d804      	bhi.n	b5368 <_ZN10JsonParser10appendUtf8EtR16JsonParserString+0x16>
}
   b535e:	b003      	add	sp, #12
   b5360:	e8bd 4030 	ldmia.w	sp!, {r4, r5, lr}
		str.append((char)value);
   b5364:	f7ff bfe0 	b.w	b5328 <_ZN16JsonParserString6appendEc>
		value = (0b10000000 | (unicode & 0b111111));
   b5368:	f001 013f 	and.w	r1, r1, #63	; 0x3f
	if (unicode <= 0x7ff) {
   b536c:	f5b3 6f00 	cmp.w	r3, #2048	; 0x800
		value = (0b11000000 | ((unicode >> 6) & 0b11111));
   b5370:	f3c3 1587 	ubfx	r5, r3, #6, #8
		value = (0b10000000 | (unicode & 0b111111));
   b5374:	f041 0480 	orr.w	r4, r1, #128	; 0x80
	if (unicode <= 0x7ff) {
   b5378:	d207      	bcs.n	b538a <_ZN10JsonParser10appendUtf8EtR16JsonParserString+0x38>
		str.append((char)value);
   b537a:	f045 01c0 	orr.w	r1, r5, #192	; 0xc0
   b537e:	9001      	str	r0, [sp, #4]
		str.append((char)value);
   b5380:	f7ff ffd2 	bl	b5328 <_ZN16JsonParserString6appendEc>
		str.append((char)value);
   b5384:	9801      	ldr	r0, [sp, #4]
   b5386:	4621      	mov	r1, r4
   b5388:	e7e9      	b.n	b535e <_ZN10JsonParser10appendUtf8EtR16JsonParserString+0xc>
		value = 0b11100000 | ((unicode >> 12) & 0b1111);
   b538a:	0b1b      	lsrs	r3, r3, #12
		str.append((char)value);
   b538c:	f043 01e0 	orr.w	r1, r3, #224	; 0xe0
   b5390:	9001      	str	r0, [sp, #4]
   b5392:	f7ff ffc9 	bl	b5328 <_ZN16JsonParserString6appendEc>
		value = 0b10000000 | ((unicode >> 6) & 0b111111);
   b5396:	f005 013f 	and.w	r1, r5, #63	; 0x3f
		str.append((char)value);
   b539a:	9801      	ldr	r0, [sp, #4]
   b539c:	f041 0180 	orr.w	r1, r1, #128	; 0x80
   b53a0:	e7ee      	b.n	b5380 <_ZN10JsonParser10appendUtf8EtR16JsonParserString+0x2e>
	...

000b53a4 <_ZNK10JsonParser13getTokenValueEPKN21JsonParserGeneratorRK9jsmntok_tER16JsonParserString>:
bool JsonParser::getTokenValue(const JsonParserGeneratorRK::jsmntok_t *token, JsonParserString &str) const {
   b53a4:	e92d 47ff 	stmdb	sp!, {r0, r1, r2, r3, r4, r5, r6, r7, r8, r9, sl, lr}
	bool escape = false;
   b53a8:	2400      	movs	r4, #0
	for(int ii = token->start; ii < token->end; ii++) {
   b53aa:	684e      	ldr	r6, [r1, #4]
					if (sscanf(tmp, "%04x", &unicode) == 1) {
   b53ac:	f8df a0cc 	ldr.w	sl, [pc, #204]	; b547c <_ZNK10JsonParser13getTokenValueEPKN21JsonParserGeneratorRK9jsmntok_tER16JsonParserString+0xd8>
bool JsonParser::getTokenValue(const JsonParserGeneratorRK::jsmntok_t *token, JsonParserString &str) const {
   b53b0:	4680      	mov	r8, r0
   b53b2:	460f      	mov	r7, r1
   b53b4:	4615      	mov	r5, r2
			escape = false;
   b53b6:	46a1      	mov	r9, r4
	for(int ii = token->start; ii < token->end; ii++) {
   b53b8:	68b8      	ldr	r0, [r7, #8]
   b53ba:	42b0      	cmp	r0, r6
   b53bc:	dd5a      	ble.n	b5474 <_ZNK10JsonParser13getTokenValueEPKN21JsonParserGeneratorRK9jsmntok_tER16JsonParserString+0xd0>
			switch(buffer[ii]) {
   b53be:	f8d8 3004 	ldr.w	r3, [r8, #4]
   b53c2:	5d99      	ldrb	r1, [r3, r6]
   b53c4:	199a      	adds	r2, r3, r6
		if (escape) {
   b53c6:	2c00      	cmp	r4, #0
   b53c8:	d04b      	beq.n	b5462 <_ZNK10JsonParser13getTokenValueEPKN21JsonParserGeneratorRK9jsmntok_tER16JsonParserString+0xbe>
			switch(buffer[ii]) {
   b53ca:	2975      	cmp	r1, #117	; 0x75
   b53cc:	d805      	bhi.n	b53da <_ZNK10JsonParser13getTokenValueEPKN21JsonParserGeneratorRK9jsmntok_tER16JsonParserString+0x36>
   b53ce:	296d      	cmp	r1, #109	; 0x6d
   b53d0:	d807      	bhi.n	b53e2 <_ZNK10JsonParser13getTokenValueEPKN21JsonParserGeneratorRK9jsmntok_tER16JsonParserString+0x3e>
   b53d2:	2962      	cmp	r1, #98	; 0x62
   b53d4:	d01e      	beq.n	b5414 <_ZNK10JsonParser13getTokenValueEPKN21JsonParserGeneratorRK9jsmntok_tER16JsonParserString+0x70>
   b53d6:	2966      	cmp	r1, #102	; 0x66
   b53d8:	d01e      	beq.n	b5418 <_ZNK10JsonParser13getTokenValueEPKN21JsonParserGeneratorRK9jsmntok_tER16JsonParserString+0x74>
				str.append(buffer[ii]);
   b53da:	4628      	mov	r0, r5
   b53dc:	f7ff ffa4 	bl	b5328 <_ZN16JsonParserString6appendEc>
				break;
   b53e0:	e03d      	b.n	b545e <_ZNK10JsonParser13getTokenValueEPKN21JsonParserGeneratorRK9jsmntok_tER16JsonParserString+0xba>
   b53e2:	f1a1 046e 	sub.w	r4, r1, #110	; 0x6e
   b53e6:	2c07      	cmp	r4, #7
   b53e8:	d8f7      	bhi.n	b53da <_ZNK10JsonParser13getTokenValueEPKN21JsonParserGeneratorRK9jsmntok_tER16JsonParserString+0x36>
   b53ea:	f20f 0c08 	addw	ip, pc, #8
   b53ee:	f85c f024 	ldr.w	pc, [ip, r4, lsl #2]
   b53f2:	bf00      	nop
   b53f4:	000b541d 	.word	0x000b541d
   b53f8:	000b53db 	.word	0x000b53db
   b53fc:	000b53db 	.word	0x000b53db
   b5400:	000b53db 	.word	0x000b53db
   b5404:	000b5421 	.word	0x000b5421
   b5408:	000b53db 	.word	0x000b53db
   b540c:	000b5425 	.word	0x000b5425
   b5410:	000b5429 	.word	0x000b5429
				str.append('\b');
   b5414:	2108      	movs	r1, #8
   b5416:	e7e0      	b.n	b53da <_ZNK10JsonParser13getTokenValueEPKN21JsonParserGeneratorRK9jsmntok_tER16JsonParserString+0x36>
				str.append('\f');
   b5418:	210c      	movs	r1, #12
   b541a:	e7de      	b.n	b53da <_ZNK10JsonParser13getTokenValueEPKN21JsonParserGeneratorRK9jsmntok_tER16JsonParserString+0x36>
				str.append('\n');
   b541c:	210a      	movs	r1, #10
   b541e:	e7dc      	b.n	b53da <_ZNK10JsonParser13getTokenValueEPKN21JsonParserGeneratorRK9jsmntok_tER16JsonParserString+0x36>
				str.append('\r');
   b5420:	210d      	movs	r1, #13
   b5422:	e7da      	b.n	b53da <_ZNK10JsonParser13getTokenValueEPKN21JsonParserGeneratorRK9jsmntok_tER16JsonParserString+0x36>
				str.append('\t');
   b5424:	2109      	movs	r1, #9
   b5426:	e7d8      	b.n	b53da <_ZNK10JsonParser13getTokenValueEPKN21JsonParserGeneratorRK9jsmntok_tER16JsonParserString+0x36>
				if ((ii + 4) < token->end) {
   b5428:	1d31      	adds	r1, r6, #4
   b542a:	4288      	cmp	r0, r1
   b542c:	dd17      	ble.n	b545e <_ZNK10JsonParser13getTokenValueEPKN21JsonParserGeneratorRK9jsmntok_tER16JsonParserString+0xba>
   b542e:	a902      	add	r1, sp, #8
   b5430:	3304      	adds	r3, #4
   b5432:	4433      	add	r3, r6
   b5434:	4608      	mov	r0, r1
						tmp[jj] = buffer[ii + jj + 1];
   b5436:	f812 4f01 	ldrb.w	r4, [r2, #1]!
   b543a:	f801 4b01 	strb.w	r4, [r1], #1
					for(size_t jj = 0; jj < 4; jj++) {
   b543e:	429a      	cmp	r2, r3
   b5440:	d1f9      	bne.n	b5436 <_ZNK10JsonParser13getTokenValueEPKN21JsonParserGeneratorRK9jsmntok_tER16JsonParserString+0x92>
					if (sscanf(tmp, "%04x", &unicode) == 1) {
   b5442:	aa01      	add	r2, sp, #4
   b5444:	4651      	mov	r1, sl
					tmp[4] = 0;
   b5446:	f88d 900c 	strb.w	r9, [sp, #12]
					if (sscanf(tmp, "%04x", &unicode) == 1) {
   b544a:	f001 fdcd 	bl	b6fe8 <sscanf>
   b544e:	2801      	cmp	r0, #1
   b5450:	d105      	bne.n	b545e <_ZNK10JsonParser13getTokenValueEPKN21JsonParserGeneratorRK9jsmntok_tER16JsonParserString+0xba>
						appendUtf8((uint16_t)unicode, str);
   b5452:	f8bd 0004 	ldrh.w	r0, [sp, #4]
   b5456:	4629      	mov	r1, r5
   b5458:	f7ff ff7b 	bl	b5352 <_ZN10JsonParser10appendUtf8EtR16JsonParserString>
						ii += 5; // also increments in loop
   b545c:	3605      	adds	r6, #5
			escape = false;
   b545e:	2400      	movs	r4, #0
   b5460:	e004      	b.n	b546c <_ZNK10JsonParser13getTokenValueEPKN21JsonParserGeneratorRK9jsmntok_tER16JsonParserString+0xc8>
		if (buffer[ii] == '\\') {
   b5462:	295c      	cmp	r1, #92	; 0x5c
   b5464:	d004      	beq.n	b5470 <_ZNK10JsonParser13getTokenValueEPKN21JsonParserGeneratorRK9jsmntok_tER16JsonParserString+0xcc>
			str.append(buffer[ii]);
   b5466:	4628      	mov	r0, r5
   b5468:	f7ff ff5e 	bl	b5328 <_ZN16JsonParserString6appendEc>
	for(int ii = token->start; ii < token->end; ii++) {
   b546c:	3601      	adds	r6, #1
   b546e:	e7a3      	b.n	b53b8 <_ZNK10JsonParser13getTokenValueEPKN21JsonParserGeneratorRK9jsmntok_tER16JsonParserString+0x14>
			escape = true;
   b5470:	2401      	movs	r4, #1
   b5472:	e7fb      	b.n	b546c <_ZNK10JsonParser13getTokenValueEPKN21JsonParserGeneratorRK9jsmntok_tER16JsonParserString+0xc8>
}
   b5474:	2001      	movs	r0, #1
   b5476:	b004      	add	sp, #16
   b5478:	e8bd 87f0 	ldmia.w	sp!, {r4, r5, r6, r7, r8, r9, sl, pc}
   b547c:	000bac68 	.word	0x000bac68

000b5480 <_ZNK10JsonParser13getTokenValueEPKN21JsonParserGeneratorRK9jsmntok_tER6String>:
bool JsonParser::getTokenValue(const JsonParserGeneratorRK::jsmntok_t *token, String &result) const {
   b5480:	b57f      	push	{r0, r1, r2, r3, r4, r5, r6, lr}
   b5482:	460c      	mov	r4, r1
   b5484:	4606      	mov	r6, r0
	result = "";
   b5486:	490c      	ldr	r1, [pc, #48]	; (b54b8 <_ZNK10JsonParser13getTokenValueEPKN21JsonParserGeneratorRK9jsmntok_tER6String+0x38>)
   b5488:	4610      	mov	r0, r2
bool JsonParser::getTokenValue(const JsonParserGeneratorRK::jsmntok_t *token, String &result) const {
   b548a:	4615      	mov	r5, r2
	result = "";
   b548c:	f003 fdb0 	bl	b8ff0 <_ZN6StringaSEPKc>
	result.reserve(token->end - token->start + 1);
   b5490:	e9d4 3101 	ldrd	r3, r1, [r4, #4]
   b5494:	1ac9      	subs	r1, r1, r3
   b5496:	3101      	adds	r1, #1
   b5498:	4628      	mov	r0, r5
   b549a:	f003 fd25 	bl	b8ee8 <_ZN6String7reserveEj>
JsonParserString::JsonParserString(String *str) : str(str), buf(0), bufLen(0), length(0){
   b549e:	2300      	movs	r3, #0
	return getTokenValue(token, strWrapper);
   b54a0:	466a      	mov	r2, sp
   b54a2:	4621      	mov	r1, r4
   b54a4:	4630      	mov	r0, r6
JsonParserString::JsonParserString(String *str) : str(str), buf(0), bufLen(0), length(0){
   b54a6:	e9cd 3301 	strd	r3, r3, [sp, #4]
   b54aa:	9500      	str	r5, [sp, #0]
   b54ac:	9303      	str	r3, [sp, #12]
	return getTokenValue(token, strWrapper);
   b54ae:	f7ff ff79 	bl	b53a4 <_ZNK10JsonParser13getTokenValueEPKN21JsonParserGeneratorRK9jsmntok_tER16JsonParserString>
}
   b54b2:	b004      	add	sp, #16
   b54b4:	bd70      	pop	{r4, r5, r6, pc}
   b54b6:	bf00      	nop
   b54b8:	000bacc7 	.word	0x000bacc7

000b54bc <_ZNK10JsonParser18getValueTokenByKeyEPKN21JsonParserGeneratorRK9jsmntok_tEPKcRS3_>:
bool JsonParser::getValueTokenByKey(const JsonParserGeneratorRK::jsmntok_t *container, const char *name, const JsonParserGeneratorRK::jsmntok_t *&value) const {
   b54bc:	e92d 43f0 	stmdb	sp!, {r4, r5, r6, r7, r8, r9, lr}
   b54c0:	b089      	sub	sp, #36	; 0x24
   b54c2:	4605      	mov	r5, r0
   b54c4:	4688      	mov	r8, r1
	String keyName;
   b54c6:	a804      	add	r0, sp, #16
   b54c8:	4912      	ldr	r1, [pc, #72]	; (b5514 <_ZNK10JsonParser18getValueTokenByKeyEPKN21JsonParserGeneratorRK9jsmntok_tEPKcRS3_+0x58>)
bool JsonParser::getValueTokenByKey(const JsonParserGeneratorRK::jsmntok_t *container, const char *name, const JsonParserGeneratorRK::jsmntok_t *&value) const {
   b54ca:	4616      	mov	r6, r2
   b54cc:	4699      	mov	r9, r3
	String keyName;
   b54ce:	f003 fd38 	bl	b8f42 <_ZN6StringC1EPK19__FlashStringHelper>
	for(size_t ii = 0; getKeyValueTokenByIndex(container, key, value, ii); ii++) {
   b54d2:	2700      	movs	r7, #0
   b54d4:	9700      	str	r7, [sp, #0]
   b54d6:	464b      	mov	r3, r9
   b54d8:	aa03      	add	r2, sp, #12
   b54da:	4641      	mov	r1, r8
   b54dc:	4628      	mov	r0, r5
   b54de:	f7ff fec0 	bl	b5262 <_ZNK10JsonParser23getKeyValueTokenByIndexEPKN21JsonParserGeneratorRK9jsmntok_tERS3_S4_j>
   b54e2:	4604      	mov	r4, r0
   b54e4:	b170      	cbz	r0, b5504 <_ZNK10JsonParser18getValueTokenByKeyEPKN21JsonParserGeneratorRK9jsmntok_tEPKcRS3_+0x48>
		if (getTokenValue(key, keyName) && keyName == name) {
   b54e6:	9903      	ldr	r1, [sp, #12]
   b54e8:	aa04      	add	r2, sp, #16
   b54ea:	4628      	mov	r0, r5
   b54ec:	f7ff ffc8 	bl	b5480 <_ZNK10JsonParser13getTokenValueEPKN21JsonParserGeneratorRK9jsmntok_tER6String>
   b54f0:	4604      	mov	r4, r0
   b54f2:	b908      	cbnz	r0, b54f8 <_ZNK10JsonParser18getValueTokenByKeyEPKN21JsonParserGeneratorRK9jsmntok_tEPKcRS3_+0x3c>
	for(size_t ii = 0; getKeyValueTokenByIndex(container, key, value, ii); ii++) {
   b54f4:	3701      	adds	r7, #1
   b54f6:	e7ed      	b.n	b54d4 <_ZNK10JsonParser18getValueTokenByKeyEPKN21JsonParserGeneratorRK9jsmntok_tEPKcRS3_+0x18>
    unsigned char operator == (const char *cstr) const {return equals(cstr);}
   b54f8:	4631      	mov	r1, r6
   b54fa:	a804      	add	r0, sp, #16
   b54fc:	f003 fdae 	bl	b905c <_ZNK6String6equalsEPKc>
		if (getTokenValue(key, keyName) && keyName == name) {
   b5500:	2800      	cmp	r0, #0
   b5502:	d0f7      	beq.n	b54f4 <_ZNK10JsonParser18getValueTokenByKeyEPKN21JsonParserGeneratorRK9jsmntok_tEPKcRS3_+0x38>
	String keyName;
   b5504:	a804      	add	r0, sp, #16
   b5506:	f003 fcd1 	bl	b8eac <_ZN6StringD1Ev>
}
   b550a:	4620      	mov	r0, r4
   b550c:	b009      	add	sp, #36	; 0x24
   b550e:	e8bd 83f0 	ldmia.w	sp!, {r4, r5, r6, r7, r8, r9, pc}
   b5512:	bf00      	nop
   b5514:	000bacc7 	.word	0x000bacc7

000b5518 <_ZN10JsonWriter4initEv>:
	offset = 0;
   b5518:	2300      	movs	r3, #0
	context[contextIndex].isFirst = true;
   b551a:	2201      	movs	r2, #1
	offset = 0;
   b551c:	60c3      	str	r3, [r0, #12]
	contextIndex = 0;
   b551e:	6143      	str	r3, [r0, #20]
	context[contextIndex].isFirst = true;
   b5520:	8302      	strh	r2, [r0, #24]
	truncated = false;
   b5522:	f880 302a 	strb.w	r3, [r0, #42]	; 0x2a
}
   b5526:	4770      	bx	lr

000b5528 <_ZN10JsonWriterC1Ev>:
JsonWriter::JsonWriter() : JsonBuffer(), floatPlaces(-1) {
   b5528:	b508      	push	{r3, lr}
   b552a:	4603      	mov	r3, r0
   b552c:	f7ff fdfc 	bl	b5128 <_ZN10JsonBufferC1Ev>
   b5530:	4a04      	ldr	r2, [pc, #16]	; (b5544 <_ZN10JsonWriterC1Ev+0x1c>)
   b5532:	601a      	str	r2, [r3, #0]
   b5534:	f04f 32ff 	mov.w	r2, #4294967295	; 0xffffffff
	init();
   b5538:	4618      	mov	r0, r3
JsonWriter::JsonWriter() : JsonBuffer(), floatPlaces(-1) {
   b553a:	62da      	str	r2, [r3, #44]	; 0x2c
	init();
   b553c:	f7ff ffec 	bl	b5518 <_ZN10JsonWriter4initEv>
}
   b5540:	bd08      	pop	{r3, pc}
   b5542:	bf00      	nop
   b5544:	000ba908 	.word	0x000ba908

000b5548 <_ZN10JsonWriter10insertCharEc>:
	if (offset < bufferLen) {
   b5548:	e9d0 2302 	ldrd	r2, r3, [r0, #8]
void JsonWriter::insertChar(char ch) {
   b554c:	b510      	push	{r4, lr}
	if (offset < bufferLen) {
   b554e:	4293      	cmp	r3, r2
		buffer[offset++] = ch;
   b5550:	bf3f      	itttt	cc
   b5552:	6842      	ldrcc	r2, [r0, #4]
   b5554:	1c5c      	addcc	r4, r3, #1
   b5556:	60c4      	strcc	r4, [r0, #12]
   b5558:	54d1      	strbcc	r1, [r2, r3]
		truncated = true;
   b555a:	bf24      	itt	cs
   b555c:	2301      	movcs	r3, #1
   b555e:	f880 302a 	strbcs.w	r3, [r0, #42]	; 0x2a
}
   b5562:	bd10      	pop	{r4, pc}

000b5564 <_ZN10JsonWriter19finishObjectOrArrayEv>:
void JsonWriter::finishObjectOrArray() {
   b5564:	b510      	push	{r4, lr}
	if (contextIndex > 0) {
   b5566:	6943      	ldr	r3, [r0, #20]
void JsonWriter::finishObjectOrArray() {
   b5568:	4604      	mov	r4, r0
	if (contextIndex > 0) {
   b556a:	b143      	cbz	r3, b557e <_ZN10JsonWriter19finishObjectOrArrayEv+0x1a>
		if (context[contextIndex].terminator != 0) {
   b556c:	eb00 0343 	add.w	r3, r0, r3, lsl #1
   b5570:	7e59      	ldrb	r1, [r3, #25]
   b5572:	b109      	cbz	r1, b5578 <_ZN10JsonWriter19finishObjectOrArrayEv+0x14>
			insertChar(context[contextIndex].terminator);
   b5574:	f7ff ffe8 	bl	b5548 <_ZN10JsonWriter10insertCharEc>
		contextIndex--;
   b5578:	6963      	ldr	r3, [r4, #20]
   b557a:	3b01      	subs	r3, #1
   b557c:	6163      	str	r3, [r4, #20]
	if (offset < bufferLen) {
   b557e:	e9d4 1002 	ldrd	r1, r0, [r4, #8]
		buffer[offset] = 0;
   b5582:	6863      	ldr	r3, [r4, #4]
	if (offset < bufferLen) {
   b5584:	4288      	cmp	r0, r1
   b5586:	f04f 0200 	mov.w	r2, #0
		buffer[bufferLen - 1] = 0;
   b558a:	bf2a      	itet	cs
   b558c:	185b      	addcs	r3, r3, r1
		buffer[offset] = 0;
   b558e:	541a      	strbcc	r2, [r3, r0]
		buffer[bufferLen - 1] = 0;
   b5590:	f803 2c01 	strbcs.w	r2, [r3, #-1]
}
   b5594:	bd10      	pop	{r4, pc}

000b5596 <_ZN10JsonWriter14insertvsprintfEPKcSt9__va_list>:
void JsonWriter::insertvsprintf(const char *fmt, va_list ap) {
   b5596:	b570      	push	{r4, r5, r6, lr}
   b5598:	4604      	mov	r4, r0
	size_t spaceAvailable = bufferLen - offset;
   b559a:	e9d0 5002 	ldrd	r5, r0, [r0, #8]
	size_t count = vsnprintf(&buffer[offset], spaceAvailable, fmt, ap);
   b559e:	6866      	ldr	r6, [r4, #4]
	size_t spaceAvailable = bufferLen - offset;
   b55a0:	1a2d      	subs	r5, r5, r0
void JsonWriter::insertvsprintf(const char *fmt, va_list ap) {
   b55a2:	4613      	mov	r3, r2
	size_t count = vsnprintf(&buffer[offset], spaceAvailable, fmt, ap);
   b55a4:	4430      	add	r0, r6
   b55a6:	460a      	mov	r2, r1
   b55a8:	4629      	mov	r1, r5
   b55aa:	f001 fd35 	bl	b7018 <vsnprintf>
	if (count <= spaceAvailable) {
   b55ae:	4285      	cmp	r5, r0
		offset += count;
   b55b0:	bf2d      	iteet	cs
   b55b2:	68e3      	ldrcs	r3, [r4, #12]
		offset = bufferLen;
   b55b4:	68a3      	ldrcc	r3, [r4, #8]
   b55b6:	60e3      	strcc	r3, [r4, #12]
		offset += count;
   b55b8:	18c0      	addcs	r0, r0, r3
		truncated = true;
   b55ba:	bf36      	itet	cc
   b55bc:	2301      	movcc	r3, #1
		offset += count;
   b55be:	60e0      	strcs	r0, [r4, #12]
		truncated = true;
   b55c0:	f884 302a 	strbcc.w	r3, [r4, #42]	; 0x2a
}
   b55c4:	bd70      	pop	{r4, r5, r6, pc}

000b55c6 <_ZN10JsonWriter13insertsprintfEPKcz>:
void JsonWriter::insertsprintf(const char *fmt, ...) {
   b55c6:	b40e      	push	{r1, r2, r3}
   b55c8:	b503      	push	{r0, r1, lr}
   b55ca:	aa03      	add	r2, sp, #12
   b55cc:	f852 1b04 	ldr.w	r1, [r2], #4
	va_start(ap, fmt);
   b55d0:	9201      	str	r2, [sp, #4]
	insertvsprintf(fmt, ap);
   b55d2:	f7ff ffe0 	bl	b5596 <_ZN10JsonWriter14insertvsprintfEPKcSt9__va_list>
}
   b55d6:	b002      	add	sp, #8
   b55d8:	f85d eb04 	ldr.w	lr, [sp], #4
   b55dc:	b003      	add	sp, #12
   b55de:	4770      	bx	lr

000b55e0 <_ZN10JsonWriter12insertStringEPKcb>:
void JsonWriter::insertString(const char *s, bool quoted) {
   b55e0:	e92d 43f8 	stmdb	sp!, {r3, r4, r5, r6, r7, r8, r9, lr}
   b55e4:	4604      	mov	r4, r0
   b55e6:	460e      	mov	r6, r1
	if (quoted) {
   b55e8:	4617      	mov	r7, r2
   b55ea:	b112      	cbz	r2, b55f2 <_ZN10JsonWriter12insertStringEPKcb+0x12>
		insertChar('"');
   b55ec:	2122      	movs	r1, #34	; 0x22
   b55ee:	f7ff ffab 	bl	b5548 <_ZN10JsonWriter10insertCharEc>
				insertsprintf("\\u%04X", utf16);
   b55f2:	f8df 810c 	ldr.w	r8, [pc, #268]	; b5700 <_ZN10JsonWriter12insertStringEPKcb+0x120>
void JsonWriter::insertString(const char *s, bool quoted) {
   b55f6:	2500      	movs	r5, #0
	for(size_t ii = 0; s[ii] && offset < bufferLen; ii++) {
   b55f8:	5d71      	ldrb	r1, [r6, r5]
   b55fa:	eb06 0905 	add.w	r9, r6, r5
   b55fe:	2900      	cmp	r1, #0
   b5600:	d074      	beq.n	b56ec <_ZN10JsonWriter12insertStringEPKcb+0x10c>
   b5602:	e9d4 3202 	ldrd	r3, r2, [r4, #8]
   b5606:	429a      	cmp	r2, r3
   b5608:	d270      	bcs.n	b56ec <_ZN10JsonWriter12insertStringEPKcb+0x10c>
		if (s[ii] & 0x80) {
   b560a:	060b      	lsls	r3, r1, #24
   b560c:	d534      	bpl.n	b5678 <_ZN10JsonWriter12insertStringEPKcb+0x98>
			if (((s[ii] & 0b11110000) == 0b11100000) && ((s[ii+1] & 0b11000000) == 0b10000000) && ((s[ii+2] & 0b11000000) == 0b10000000)) {
   b560e:	f001 03f0 	and.w	r3, r1, #240	; 0xf0
   b5612:	2be0      	cmp	r3, #224	; 0xe0
   b5614:	f105 0901 	add.w	r9, r5, #1
   b5618:	d11d      	bne.n	b5656 <_ZN10JsonWriter12insertStringEPKcb+0x76>
   b561a:	f816 2009 	ldrb.w	r2, [r6, r9]
   b561e:	f002 03c0 	and.w	r3, r2, #192	; 0xc0
   b5622:	2b80      	cmp	r3, #128	; 0x80
   b5624:	d139      	bne.n	b569a <_ZN10JsonWriter12insertStringEPKcb+0xba>
   b5626:	f105 0902 	add.w	r9, r5, #2
   b562a:	f816 3009 	ldrb.w	r3, [r6, r9]
   b562e:	f003 00c0 	and.w	r0, r3, #192	; 0xc0
   b5632:	2880      	cmp	r0, #128	; 0x80
   b5634:	d131      	bne.n	b569a <_ZN10JsonWriter12insertStringEPKcb+0xba>
				uint16_t utf16 = ((s[ii] & 0b1111) << 12) | ((s[ii+1] & 0b111111) << 6) | (s[ii+2] & 0b111111);
   b5636:	f003 033f 	and.w	r3, r3, #63	; 0x3f
   b563a:	0192      	lsls	r2, r2, #6
   b563c:	ea43 3301 	orr.w	r3, r3, r1, lsl #12
   b5640:	f402 627c 	and.w	r2, r2, #4032	; 0xfc0
   b5644:	431a      	orrs	r2, r3
				insertsprintf("\\u%04X", utf16);
   b5646:	b292      	uxth	r2, r2
				insertsprintf("\\u%04X", utf16);
   b5648:	4641      	mov	r1, r8
   b564a:	4620      	mov	r0, r4
   b564c:	f7ff ffbb 	bl	b55c6 <_ZN10JsonWriter13insertsprintfEPKcz>
				ii++; // plus one more in loop increment
   b5650:	464d      	mov	r5, r9
	for(size_t ii = 0; s[ii] && offset < bufferLen; ii++) {
   b5652:	3501      	adds	r5, #1
   b5654:	e7d0      	b.n	b55f8 <_ZN10JsonWriter12insertStringEPKcb+0x18>
			if (((s[ii] & 0b11100000) == 0b11000000) && ((s[ii+1] & 0b11000000) == 0b10000000)) {
   b5656:	f001 03e0 	and.w	r3, r1, #224	; 0xe0
   b565a:	2bc0      	cmp	r3, #192	; 0xc0
   b565c:	d11d      	bne.n	b569a <_ZN10JsonWriter12insertStringEPKcb+0xba>
   b565e:	f816 3009 	ldrb.w	r3, [r6, r9]
   b5662:	f003 02c0 	and.w	r2, r3, #192	; 0xc0
   b5666:	2a80      	cmp	r2, #128	; 0x80
   b5668:	d117      	bne.n	b569a <_ZN10JsonWriter12insertStringEPKcb+0xba>
				uint16_t utf16 = ((s[ii] & 0b11111) << 6) | (s[ii+1] & 0b111111);
   b566a:	0189      	lsls	r1, r1, #6
   b566c:	f401 62f8 	and.w	r2, r1, #1984	; 0x7c0
   b5670:	f003 033f 	and.w	r3, r3, #63	; 0x3f
				insertsprintf("\\u%04X", utf16);
   b5674:	431a      	orrs	r2, r3
   b5676:	e7e7      	b.n	b5648 <_ZN10JsonWriter12insertStringEPKcb+0x68>
			switch(s[ii]) {
   b5678:	290d      	cmp	r1, #13
   b567a:	d80a      	bhi.n	b5692 <_ZN10JsonWriter12insertStringEPKcb+0xb2>
   b567c:	2907      	cmp	r1, #7
   b567e:	d90c      	bls.n	b569a <_ZN10JsonWriter12insertStringEPKcb+0xba>
   b5680:	f1a1 0308 	sub.w	r3, r1, #8
   b5684:	2b05      	cmp	r3, #5
   b5686:	d808      	bhi.n	b569a <_ZN10JsonWriter12insertStringEPKcb+0xba>
   b5688:	e8df f003 	tbb	[pc, r3]
   b568c:	07172309 	.word	0x07172309
   b5690:	1d11      	.short	0x1d11
   b5692:	2922      	cmp	r1, #34	; 0x22
   b5694:	d023      	beq.n	b56de <_ZN10JsonWriter12insertStringEPKcb+0xfe>
   b5696:	295c      	cmp	r1, #92	; 0x5c
   b5698:	d021      	beq.n	b56de <_ZN10JsonWriter12insertStringEPKcb+0xfe>
				insertChar(s[ii]);
   b569a:	4620      	mov	r0, r4
   b569c:	e004      	b.n	b56a8 <_ZN10JsonWriter12insertStringEPKcb+0xc8>
				insertChar('\\');
   b569e:	215c      	movs	r1, #92	; 0x5c
   b56a0:	4620      	mov	r0, r4
   b56a2:	f7ff ff51 	bl	b5548 <_ZN10JsonWriter10insertCharEc>
				insertChar('b');
   b56a6:	2162      	movs	r1, #98	; 0x62
				insertChar(s[ii]);
   b56a8:	f7ff ff4e 	bl	b5548 <_ZN10JsonWriter10insertCharEc>
				break;
   b56ac:	e7d1      	b.n	b5652 <_ZN10JsonWriter12insertStringEPKcb+0x72>
				insertChar('\\');
   b56ae:	215c      	movs	r1, #92	; 0x5c
   b56b0:	4620      	mov	r0, r4
   b56b2:	f7ff ff49 	bl	b5548 <_ZN10JsonWriter10insertCharEc>
				insertChar('f');
   b56b6:	2166      	movs	r1, #102	; 0x66
   b56b8:	e7f6      	b.n	b56a8 <_ZN10JsonWriter12insertStringEPKcb+0xc8>
				insertChar('\\');
   b56ba:	215c      	movs	r1, #92	; 0x5c
   b56bc:	4620      	mov	r0, r4
   b56be:	f7ff ff43 	bl	b5548 <_ZN10JsonWriter10insertCharEc>
				insertChar('n');
   b56c2:	216e      	movs	r1, #110	; 0x6e
   b56c4:	e7f0      	b.n	b56a8 <_ZN10JsonWriter12insertStringEPKcb+0xc8>
				insertChar('\\');
   b56c6:	215c      	movs	r1, #92	; 0x5c
   b56c8:	4620      	mov	r0, r4
   b56ca:	f7ff ff3d 	bl	b5548 <_ZN10JsonWriter10insertCharEc>
				insertChar('r');
   b56ce:	2172      	movs	r1, #114	; 0x72
   b56d0:	e7ea      	b.n	b56a8 <_ZN10JsonWriter12insertStringEPKcb+0xc8>
				insertChar('\\');
   b56d2:	215c      	movs	r1, #92	; 0x5c
   b56d4:	4620      	mov	r0, r4
   b56d6:	f7ff ff37 	bl	b5548 <_ZN10JsonWriter10insertCharEc>
				insertChar('t');
   b56da:	2174      	movs	r1, #116	; 0x74
   b56dc:	e7e4      	b.n	b56a8 <_ZN10JsonWriter12insertStringEPKcb+0xc8>
				insertChar('\\');
   b56de:	215c      	movs	r1, #92	; 0x5c
   b56e0:	4620      	mov	r0, r4
   b56e2:	f7ff ff31 	bl	b5548 <_ZN10JsonWriter10insertCharEc>
				insertChar(s[ii]);
   b56e6:	f899 1000 	ldrb.w	r1, [r9]
   b56ea:	e7dd      	b.n	b56a8 <_ZN10JsonWriter12insertStringEPKcb+0xc8>
	if (quoted) {
   b56ec:	b12f      	cbz	r7, b56fa <_ZN10JsonWriter12insertStringEPKcb+0x11a>
		insertChar('"');
   b56ee:	4620      	mov	r0, r4
   b56f0:	2122      	movs	r1, #34	; 0x22
}
   b56f2:	e8bd 43f8 	ldmia.w	sp!, {r3, r4, r5, r6, r7, r8, r9, lr}
		insertChar('"');
   b56f6:	f7ff bf27 	b.w	b5548 <_ZN10JsonWriter10insertCharEc>
}
   b56fa:	e8bd 83f8 	ldmia.w	sp!, {r3, r4, r5, r6, r7, r8, r9, pc}
   b56fe:	bf00      	nop
   b5700:	000ba8d8 	.word	0x000ba8d8

000b5704 <_ZN10JsonWriter20insertCheckSeparatorEv>:
	if (context[contextIndex].isFirst) {
   b5704:	6942      	ldr	r2, [r0, #20]
   b5706:	eb00 0342 	add.w	r3, r0, r2, lsl #1
   b570a:	7e1a      	ldrb	r2, [r3, #24]
   b570c:	b112      	cbz	r2, b5714 <_ZN10JsonWriter20insertCheckSeparatorEv+0x10>
		context[contextIndex].isFirst = false;
   b570e:	2200      	movs	r2, #0
   b5710:	761a      	strb	r2, [r3, #24]
}
   b5712:	4770      	bx	lr
		insertChar(',');
   b5714:	212c      	movs	r1, #44	; 0x2c
   b5716:	f7ff bf17 	b.w	b5548 <_ZN10JsonWriter10insertCharEc>

000b571a <_ZN10JsonWriter18startObjectOrArrayEcc>:
bool JsonWriter::startObjectOrArray(char startChar, char endChar) {
   b571a:	b573      	push	{r0, r1, r4, r5, r6, lr}
	if ((contextIndex + 1) >= MAX_NESTED_CONTEXT) {
   b571c:	6943      	ldr	r3, [r0, #20]
bool JsonWriter::startObjectOrArray(char startChar, char endChar) {
   b571e:	9101      	str	r1, [sp, #4]
	if ((contextIndex + 1) >= MAX_NESTED_CONTEXT) {
   b5720:	3301      	adds	r3, #1
   b5722:	2b08      	cmp	r3, #8
bool JsonWriter::startObjectOrArray(char startChar, char endChar) {
   b5724:	4616      	mov	r6, r2
	if ((contextIndex + 1) >= MAX_NESTED_CONTEXT) {
   b5726:	d80f      	bhi.n	b5748 <_ZN10JsonWriter18startObjectOrArrayEcc+0x2e>
	insertCheckSeparator();
   b5728:	f7ff ffec 	bl	b5704 <_ZN10JsonWriter20insertCheckSeparatorEv>
	contextIndex++;
   b572c:	6943      	ldr	r3, [r0, #20]
	insertChar(startChar);
   b572e:	9901      	ldr	r1, [sp, #4]
   b5730:	eb00 0443 	add.w	r4, r0, r3, lsl #1
	contextIndex++;
   b5734:	1c5a      	adds	r2, r3, #1
	context[contextIndex].isFirst = true;
   b5736:	2501      	movs	r5, #1
	contextIndex++;
   b5738:	6142      	str	r2, [r0, #20]
	context[contextIndex].isFirst = true;
   b573a:	76a5      	strb	r5, [r4, #26]
	context[contextIndex].terminator = endChar;
   b573c:	76e6      	strb	r6, [r4, #27]
	insertChar(startChar);
   b573e:	f7ff ff03 	bl	b5548 <_ZN10JsonWriter10insertCharEc>
   b5742:	4628      	mov	r0, r5
}
   b5744:	b002      	add	sp, #8
   b5746:	bd70      	pop	{r4, r5, r6, pc}
		return false;
   b5748:	2000      	movs	r0, #0
   b574a:	e7fb      	b.n	b5744 <_ZN10JsonWriter18startObjectOrArrayEcc+0x2a>

000b574c <_ZN12JsonModifierC1ER10JsonParser>:
JsonModifier::JsonModifier(JsonParser &jp) : jp(jp) {
   b574c:	b510      	push	{r4, lr}
   b574e:	4604      	mov	r4, r0
   b5750:	f7ff feea 	bl	b5528 <_ZN10JsonWriterC1Ev>
   b5754:	4b05      	ldr	r3, [pc, #20]	; (b576c <_ZN12JsonModifierC1ER10JsonParser+0x20>)
   b5756:	6023      	str	r3, [r4, #0]
   b5758:	f04f 32ff 	mov.w	r2, #4294967295	; 0xffffffff
   b575c:	2300      	movs	r3, #0
   b575e:	e9c4 230d 	strd	r2, r3, [r4, #52]	; 0x34
   b5762:	6321      	str	r1, [r4, #48]	; 0x30
   b5764:	63e3      	str	r3, [r4, #60]	; 0x3c
}
   b5766:	4620      	mov	r0, r4
   b5768:	bd10      	pop	{r4, pc}
   b576a:	bf00      	nop
   b576c:	000ba918 	.word	0x000ba918

000b5770 <_ZN12JsonModifier11startModifyEPKN21JsonParserGeneratorRK9jsmntok_tE>:
	jp.setOffset(left + origAfter);
	jp.parse();

	return true;
}
bool JsonModifier::startModify(const JsonParserGeneratorRK::jsmntok_t *token) {
   b5770:	b570      	push	{r4, r5, r6, lr}
	if (start != -1) {
   b5772:	6b43      	ldr	r3, [r0, #52]	; 0x34
   b5774:	3301      	adds	r3, #1
bool JsonModifier::startModify(const JsonParserGeneratorRK::jsmntok_t *token) {
   b5776:	4604      	mov	r4, r0
	if (start != -1) {
   b5778:	d121      	bne.n	b57be <_ZN12JsonModifier11startModifyEPKN21JsonParserGeneratorRK9jsmntok_tE+0x4e>
		// Modification or insertion already in progress
		return false;
	}
	start = token->start;
	origAfter = jp.getOffset() - token->end;
   b577a:	6b05      	ldr	r5, [r0, #48]	; 0x30
	start = token->start;
   b577c:	684b      	ldr	r3, [r1, #4]
   b577e:	6343      	str	r3, [r0, #52]	; 0x34
	size_t getOffset() const { return offset; }
   b5780:	68eb      	ldr	r3, [r5, #12]
	origAfter = jp.getOffset() - token->end;
   b5782:	6888      	ldr	r0, [r1, #8]
   b5784:	1a1a      	subs	r2, r3, r0
   b5786:	63a2      	str	r2, [r4, #56]	; 0x38
	saveLoc = jp.getBufferLen() - origAfter;
   b5788:	68ae      	ldr	r6, [r5, #8]
   b578a:	4430      	add	r0, r6
   b578c:	1ac3      	subs	r3, r0, r3

	//printf("start=%d origAfter=%d saveLoc=%d bufferSize=%d\n", start, origAfter, saveLoc, saveLoc - start);

	if (origAfter > 0) {
   b578e:	2a00      	cmp	r2, #0
	saveLoc = jp.getBufferLen() - origAfter;
   b5790:	63e3      	str	r3, [r4, #60]	; 0x3c
	if (origAfter > 0) {
   b5792:	dd05      	ble.n	b57a0 <_ZN12JsonModifier11startModifyEPKN21JsonParserGeneratorRK9jsmntok_tE+0x30>
	char *getBuffer() const { return buffer; }
   b5794:	6868      	ldr	r0, [r5, #4]
		memmove(jp.getBuffer() + saveLoc, jp.getBuffer() + token->end, origAfter);
   b5796:	6889      	ldr	r1, [r1, #8]
   b5798:	4401      	add	r1, r0
   b579a:	4418      	add	r0, r3
   b579c:	f004 f8a6 	bl	b98ec <memmove>
   b57a0:	6b22      	ldr	r2, [r4, #48]	; 0x30
	}

	setBuffer(jp.getBuffer() + start, saveLoc - start);
   b57a2:	6b61      	ldr	r1, [r4, #52]	; 0x34
   b57a4:	6852      	ldr	r2, [r2, #4]
   b57a6:	6be3      	ldr	r3, [r4, #60]	; 0x3c
   b57a8:	440a      	add	r2, r1
   b57aa:	1a5b      	subs	r3, r3, r1
	this->staticBuffers = true;
   b57ac:	2101      	movs	r1, #1
	init();
   b57ae:	4620      	mov	r0, r4
	this->bufferLen = bufferLen;
   b57b0:	e9c4 2301 	strd	r2, r3, [r4, #4]
	this->staticBuffers = true;
   b57b4:	7421      	strb	r1, [r4, #16]
	init();
   b57b6:	f7ff feaf 	bl	b5518 <_ZN10JsonWriter4initEv>
   b57ba:	4608      	mov	r0, r1

	return true;
}
   b57bc:	bd70      	pop	{r4, r5, r6, pc}
		return false;
   b57be:	2000      	movs	r0, #0
   b57c0:	e7fc      	b.n	b57bc <_ZN12JsonModifier11startModifyEPKN21JsonParserGeneratorRK9jsmntok_tE+0x4c>

000b57c2 <_ZN12JsonModifier11startAppendEPKN21JsonParserGeneratorRK9jsmntok_tE>:

bool JsonModifier::startAppend(const JsonParserGeneratorRK::jsmntok_t *arrayOrObjectToken) {
   b57c2:	b570      	push	{r4, r5, r6, lr}
	if (start != -1) {
   b57c4:	6b43      	ldr	r3, [r0, #52]	; 0x34
   b57c6:	3301      	adds	r3, #1
bool JsonModifier::startAppend(const JsonParserGeneratorRK::jsmntok_t *arrayOrObjectToken) {
   b57c8:	4604      	mov	r4, r0
   b57ca:	460e      	mov	r6, r1
	if (start != -1) {
   b57cc:	d129      	bne.n	b5822 <_ZN12JsonModifier11startAppendEPKN21JsonParserGeneratorRK9jsmntok_tE+0x60>
		// Modification or insertion already in progress
		return false;
	}

	start = arrayOrObjectToken->end - 1; // Before the closing ] or }
   b57ce:	688d      	ldr	r5, [r1, #8]
	origAfter = jp.getOffset() - start;
   b57d0:	6b01      	ldr	r1, [r0, #48]	; 0x30
	start = arrayOrObjectToken->end - 1; // Before the closing ] or }
   b57d2:	3d01      	subs	r5, #1
   b57d4:	6345      	str	r5, [r0, #52]	; 0x34
	size_t getOffset() const { return offset; }
   b57d6:	68cb      	ldr	r3, [r1, #12]
	origAfter = jp.getOffset() - start;
   b57d8:	1b5a      	subs	r2, r3, r5
   b57da:	6382      	str	r2, [r0, #56]	; 0x38
	saveLoc = jp.getBufferLen() - origAfter;
   b57dc:	6888      	ldr	r0, [r1, #8]
   b57de:	4428      	add	r0, r5
   b57e0:	1ac3      	subs	r3, r0, r3

	if (origAfter > 0) {
   b57e2:	2a00      	cmp	r2, #0
	saveLoc = jp.getBufferLen() - origAfter;
   b57e4:	63e3      	str	r3, [r4, #60]	; 0x3c
	if (origAfter > 0) {
   b57e6:	dd04      	ble.n	b57f2 <_ZN12JsonModifier11startAppendEPKN21JsonParserGeneratorRK9jsmntok_tE+0x30>
	char *getBuffer() const { return buffer; }
   b57e8:	6848      	ldr	r0, [r1, #4]
		memmove(jp.getBuffer() + saveLoc, jp.getBuffer() + start, origAfter);
   b57ea:	1941      	adds	r1, r0, r5
   b57ec:	4418      	add	r0, r3
   b57ee:	f004 f87d 	bl	b98ec <memmove>
   b57f2:	6b22      	ldr	r2, [r4, #48]	; 0x30
	}

	setBuffer(jp.getBuffer() + start, saveLoc - start);
   b57f4:	6b61      	ldr	r1, [r4, #52]	; 0x34
   b57f6:	6852      	ldr	r2, [r2, #4]
   b57f8:	6be3      	ldr	r3, [r4, #60]	; 0x3c
   b57fa:	440a      	add	r2, r1
   b57fc:	1a5b      	subs	r3, r3, r1
	this->staticBuffers = true;
   b57fe:	2501      	movs	r5, #1
	this->bufferLen = bufferLen;
   b5800:	e9c4 2301 	strd	r2, r3, [r4, #4]
	init();
   b5804:	4620      	mov	r0, r4
	this->staticBuffers = true;
   b5806:	7425      	strb	r5, [r4, #16]
	init();
   b5808:	f7ff fe86 	bl	b5518 <_ZN10JsonWriter4initEv>
	context[contextIndex].isFirst = isFirst;
   b580c:	6963      	ldr	r3, [r4, #20]
   b580e:	f103 020c 	add.w	r2, r3, #12

	// If array is not empty, add a separator
	setIsFirst(arrayOrObjectToken->size == 0);
   b5812:	68f3      	ldr	r3, [r6, #12]
   b5814:	fab3 f383 	clz	r3, r3
   b5818:	095b      	lsrs	r3, r3, #5
   b581a:	f804 3012 	strb.w	r3, [r4, r2, lsl #1]
	context[contextIndex].isFirst = isFirst;
   b581e:	4628      	mov	r0, r5

	return true;
}
   b5820:	bd70      	pop	{r4, r5, r6, pc}
		return false;
   b5822:	2000      	movs	r0, #0
   b5824:	e7fc      	b.n	b5820 <_ZN12JsonModifier11startAppendEPKN21JsonParserGeneratorRK9jsmntok_tE+0x5e>
	...

000b5828 <_ZN21JsonParserGeneratorRK10jsmn_parseEPNS_11jsmn_parserEPKcjPNS_9jsmntok_tEj>:

/**
 * Parse JSON string and fill tokens.
 */
int jsmn_parse(jsmn_parser *parser, const char *js, size_t len,
		jsmntok_t *tokens, unsigned int num_tokens) {
   b5828:	e92d 4ff0 	stmdb	sp!, {r4, r5, r6, r7, r8, r9, sl, fp, lr}
	int r;
	int i;
	jsmntok_t *token;
	int count = parser->toknext;
   b582c:	6844      	ldr	r4, [r0, #4]
   b582e:	f04f 0c01 	mov.w	ip, #1
	tok->start = tok->end = -1;
   b5832:	f04f 36ff 	mov.w	r6, #4294967295	; 0xffffffff

	for (; parser->pos < len && js[parser->pos] != '\0'; parser->pos++) {
   b5836:	f8d0 e000 	ldr.w	lr, [r0]
   b583a:	4596      	cmp	lr, r2
   b583c:	f080 81b9 	bcs.w	b5bb2 <_ZN21JsonParserGeneratorRK10jsmn_parseEPNS_11jsmn_parserEPKcjPNS_9jsmntok_tEj+0x38a>
   b5840:	f811 800e 	ldrb.w	r8, [r1, lr]
   b5844:	f1b8 0f00 	cmp.w	r8, #0
   b5848:	f000 81b3 	beq.w	b5bb2 <_ZN21JsonParserGeneratorRK10jsmn_parseEPNS_11jsmn_parserEPKcjPNS_9jsmntok_tEj+0x38a>
		char c;
		jsmntype_t type;

		c = js[parser->pos];
		switch (c) {
   b584c:	f1b8 0f3a 	cmp.w	r8, #58	; 0x3a
   b5850:	f000 8098 	beq.w	b5984 <_ZN21JsonParserGeneratorRK10jsmn_parseEPNS_11jsmn_parserEPKcjPNS_9jsmntok_tEj+0x15c>
   b5854:	d833      	bhi.n	b58be <_ZN21JsonParserGeneratorRK10jsmn_parseEPNS_11jsmn_parserEPKcjPNS_9jsmntok_tEj+0x96>
   b5856:	f1b8 0f22 	cmp.w	r8, #34	; 0x22
   b585a:	f000 80a6 	beq.w	b59aa <_ZN21JsonParserGeneratorRK10jsmn_parseEPNS_11jsmn_parserEPKcjPNS_9jsmntok_tEj+0x182>
   b585e:	d810      	bhi.n	b5882 <_ZN21JsonParserGeneratorRK10jsmn_parseEPNS_11jsmn_parserEPKcjPNS_9jsmntok_tEj+0x5a>
   b5860:	f1a8 0809 	sub.w	r8, r8, #9
   b5864:	fa5f f888 	uxtb.w	r8, r8
   b5868:	f1b8 0f17 	cmp.w	r8, #23
   b586c:	d80d      	bhi.n	b588a <_ZN21JsonParserGeneratorRK10jsmn_parseEPNS_11jsmn_parserEPKcjPNS_9jsmntok_tEj+0x62>
   b586e:	4d9f      	ldr	r5, [pc, #636]	; (b5aec <_ZN21JsonParserGeneratorRK10jsmn_parseEPNS_11jsmn_parserEPKcjPNS_9jsmntok_tEj+0x2c4>)
   b5870:	fa0c f808 	lsl.w	r8, ip, r8
   b5874:	ea18 0f05 	tst.w	r8, r5
   b5878:	d007      	beq.n	b588a <_ZN21JsonParserGeneratorRK10jsmn_parseEPNS_11jsmn_parserEPKcjPNS_9jsmntok_tEj+0x62>
	for (; parser->pos < len && js[parser->pos] != '\0'; parser->pos++) {
   b587a:	6805      	ldr	r5, [r0, #0]
   b587c:	3501      	adds	r5, #1
   b587e:	6005      	str	r5, [r0, #0]
   b5880:	e7d9      	b.n	b5836 <_ZN21JsonParserGeneratorRK10jsmn_parseEPNS_11jsmn_parserEPKcjPNS_9jsmntok_tEj+0xe>
		switch (c) {
   b5882:	f1b8 0f2c 	cmp.w	r8, #44	; 0x2c
   b5886:	f000 8133 	beq.w	b5af0 <_ZN21JsonParserGeneratorRK10jsmn_parseEPNS_11jsmn_parserEPKcjPNS_9jsmntok_tEj+0x2c8>
	for (; parser->pos < len && js[parser->pos] != '\0'; parser->pos++) {
   b588a:	f8d0 8000 	ldr.w	r8, [r0]
   b588e:	4542      	cmp	r2, r8
   b5890:	d90e      	bls.n	b58b0 <_ZN21JsonParserGeneratorRK10jsmn_parseEPNS_11jsmn_parserEPKcjPNS_9jsmntok_tEj+0x88>
   b5892:	f811 5008 	ldrb.w	r5, [r1, r8]
   b5896:	b15d      	cbz	r5, b58b0 <_ZN21JsonParserGeneratorRK10jsmn_parseEPNS_11jsmn_parserEPKcjPNS_9jsmntok_tEj+0x88>
		switch (js[parser->pos]) {
   b5898:	2d3a      	cmp	r5, #58	; 0x3a
   b589a:	f200 8169 	bhi.w	b5b70 <_ZN21JsonParserGeneratorRK10jsmn_parseEPNS_11jsmn_parserEPKcjPNS_9jsmntok_tEj+0x348>
   b589e:	2d1f      	cmp	r5, #31
   b58a0:	f200 8151 	bhi.w	b5b46 <_ZN21JsonParserGeneratorRK10jsmn_parseEPNS_11jsmn_parserEPKcjPNS_9jsmntok_tEj+0x31e>
   b58a4:	2d0a      	cmp	r5, #10
   b58a6:	f200 8160 	bhi.w	b5b6a <_ZN21JsonParserGeneratorRK10jsmn_parseEPNS_11jsmn_parserEPKcjPNS_9jsmntok_tEj+0x342>
   b58aa:	2d08      	cmp	r5, #8
   b58ac:	f240 8156 	bls.w	b5b5c <_ZN21JsonParserGeneratorRK10jsmn_parseEPNS_11jsmn_parserEPKcjPNS_9jsmntok_tEj+0x334>
	if (tokens == NULL) {
   b58b0:	2b00      	cmp	r3, #0
   b58b2:	f040 8162 	bne.w	b5b7a <_ZN21JsonParserGeneratorRK10jsmn_parseEPNS_11jsmn_parserEPKcjPNS_9jsmntok_tEj+0x352>
		parser->pos--;
   b58b6:	f108 35ff 	add.w	r5, r8, #4294967295	; 0xffffffff
	parser->pos--;
   b58ba:	6005      	str	r5, [r0, #0]
   b58bc:	e0a5      	b.n	b5a0a <_ZN21JsonParserGeneratorRK10jsmn_parseEPNS_11jsmn_parserEPKcjPNS_9jsmntok_tEj+0x1e2>
		switch (c) {
   b58be:	f1b8 0f7b 	cmp.w	r8, #123	; 0x7b
   b58c2:	d037      	beq.n	b5934 <_ZN21JsonParserGeneratorRK10jsmn_parseEPNS_11jsmn_parserEPKcjPNS_9jsmntok_tEj+0x10c>
   b58c4:	d82e      	bhi.n	b5924 <_ZN21JsonParserGeneratorRK10jsmn_parseEPNS_11jsmn_parserEPKcjPNS_9jsmntok_tEj+0xfc>
   b58c6:	f1b8 0f5b 	cmp.w	r8, #91	; 0x5b
   b58ca:	d033      	beq.n	b5934 <_ZN21JsonParserGeneratorRK10jsmn_parseEPNS_11jsmn_parserEPKcjPNS_9jsmntok_tEj+0x10c>
   b58cc:	f1b8 0f5d 	cmp.w	r8, #93	; 0x5d
   b58d0:	d1db      	bne.n	b588a <_ZN21JsonParserGeneratorRK10jsmn_parseEPNS_11jsmn_parserEPKcjPNS_9jsmntok_tEj+0x62>
				token->type = (c == '{' ? JSMN_OBJECT : JSMN_ARRAY);
				token->start = parser->pos;
				parser->toksuper = parser->toknext - 1;
				break;
			case '}': case ']':
				if (tokens == NULL)
   b58d2:	2b00      	cmp	r3, #0
   b58d4:	d0d1      	beq.n	b587a <_ZN21JsonParserGeneratorRK10jsmn_parseEPNS_11jsmn_parserEPKcjPNS_9jsmntok_tEj+0x52>
					break;
				type = (c == '}' ? JSMN_OBJECT : JSMN_ARRAY);
   b58d6:	f04f 0902 	mov.w	r9, #2
						break;
					}
					token = &tokens[token->parent];
				}
#else
				for (i = parser->toknext - 1; i >= 0; i--) {
   b58da:	6845      	ldr	r5, [r0, #4]
   b58dc:	3d01      	subs	r5, #1
   b58de:	eb03 1805 	add.w	r8, r3, r5, lsl #4
   b58e2:	2d00      	cmp	r5, #0
   b58e4:	db55      	blt.n	b5992 <_ZN21JsonParserGeneratorRK10jsmn_parseEPNS_11jsmn_parserEPKcjPNS_9jsmntok_tEj+0x16a>
					token = &tokens[i];
					if (token->start != -1 && token->end == -1) {
   b58e6:	f8d8 7004 	ldr.w	r7, [r8, #4]
   b58ea:	3701      	adds	r7, #1
   b58ec:	d04d      	beq.n	b598a <_ZN21JsonParserGeneratorRK10jsmn_parseEPNS_11jsmn_parserEPKcjPNS_9jsmntok_tEj+0x162>
   b58ee:	f8d8 a008 	ldr.w	sl, [r8, #8]
   b58f2:	f1ba 3fff 	cmp.w	sl, #4294967295	; 0xffffffff
   b58f6:	d148      	bne.n	b598a <_ZN21JsonParserGeneratorRK10jsmn_parseEPNS_11jsmn_parserEPKcjPNS_9jsmntok_tEj+0x162>
						if (token->type != type) {
   b58f8:	f898 b000 	ldrb.w	fp, [r8]
   b58fc:	45cb      	cmp	fp, r9
   b58fe:	d14b      	bne.n	b5998 <_ZN21JsonParserGeneratorRK10jsmn_parseEPNS_11jsmn_parserEPKcjPNS_9jsmntok_tEj+0x170>
							return JSMN_ERROR_INVAL;
						}
						parser->toksuper = -1;
						token->end = parser->pos + 1;
   b5900:	f10e 0e01 	add.w	lr, lr, #1
						parser->toksuper = -1;
   b5904:	f8c0 a008 	str.w	sl, [r0, #8]
						token->end = parser->pos + 1;
   b5908:	f8c8 e008 	str.w	lr, [r8, #8]
						break;
					}
				}
				/* Error if unmatched closing bracket */
				if (i == -1) return JSMN_ERROR_INVAL;
   b590c:	eb03 1e05 	add.w	lr, r3, r5, lsl #4
				for (; i >= 0; i--) {
					token = &tokens[i];
					if (token->start != -1 && token->end == -1) {
   b5910:	f8de 7004 	ldr.w	r7, [lr, #4]
   b5914:	3701      	adds	r7, #1
   b5916:	d042      	beq.n	b599e <_ZN21JsonParserGeneratorRK10jsmn_parseEPNS_11jsmn_parserEPKcjPNS_9jsmntok_tEj+0x176>
   b5918:	f8de 7008 	ldr.w	r7, [lr, #8]
   b591c:	3701      	adds	r7, #1
   b591e:	d13e      	bne.n	b599e <_ZN21JsonParserGeneratorRK10jsmn_parseEPNS_11jsmn_parserEPKcjPNS_9jsmntok_tEj+0x176>
					tokens[parser->toksuper].size++;
				break;
			case '\t' : case '\r' : case '\n' : case ' ':
				break;
			case ':':
				parser->toksuper = parser->toknext - 1;
   b5920:	6085      	str	r5, [r0, #8]
				break;
   b5922:	e7aa      	b.n	b587a <_ZN21JsonParserGeneratorRK10jsmn_parseEPNS_11jsmn_parserEPKcjPNS_9jsmntok_tEj+0x52>
		switch (c) {
   b5924:	f1b8 0f7d 	cmp.w	r8, #125	; 0x7d
   b5928:	d1af      	bne.n	b588a <_ZN21JsonParserGeneratorRK10jsmn_parseEPNS_11jsmn_parserEPKcjPNS_9jsmntok_tEj+0x62>
				if (tokens == NULL)
   b592a:	2b00      	cmp	r3, #0
   b592c:	d0a5      	beq.n	b587a <_ZN21JsonParserGeneratorRK10jsmn_parseEPNS_11jsmn_parserEPKcjPNS_9jsmntok_tEj+0x52>
				type = (c == '}' ? JSMN_OBJECT : JSMN_ARRAY);
   b592e:	f04f 0901 	mov.w	r9, #1
   b5932:	e7d2      	b.n	b58da <_ZN21JsonParserGeneratorRK10jsmn_parseEPNS_11jsmn_parserEPKcjPNS_9jsmntok_tEj+0xb2>
				count++;
   b5934:	3401      	adds	r4, #1
				if (tokens == NULL) {
   b5936:	2b00      	cmp	r3, #0
   b5938:	d09f      	beq.n	b587a <_ZN21JsonParserGeneratorRK10jsmn_parseEPNS_11jsmn_parserEPKcjPNS_9jsmntok_tEj+0x52>
	if (parser->toknext >= num_tokens) {
   b593a:	6845      	ldr	r5, [r0, #4]
   b593c:	9f09      	ldr	r7, [sp, #36]	; 0x24
   b593e:	42af      	cmp	r7, r5
   b5940:	d94a      	bls.n	b59d8 <_ZN21JsonParserGeneratorRK10jsmn_parseEPNS_11jsmn_parserEPKcjPNS_9jsmntok_tEj+0x1b0>
	tok = &tokens[parser->toknext++];
   b5942:	f105 0e01 	add.w	lr, r5, #1
   b5946:	f8c0 e004 	str.w	lr, [r0, #4]
   b594a:	eb03 1e05 	add.w	lr, r3, r5, lsl #4
	tok->start = tok->end = -1;
   b594e:	e9ce 6601 	strd	r6, r6, [lr, #4]
	tok = &tokens[parser->toknext++];
   b5952:	ea4f 1a05 	mov.w	sl, r5, lsl #4
	tok->size = 0;
   b5956:	2500      	movs	r5, #0
   b5958:	f8ce 500c 	str.w	r5, [lr, #12]
				if (parser->toksuper != -1) {
   b595c:	6885      	ldr	r5, [r0, #8]
   b595e:	1c6f      	adds	r7, r5, #1
					tokens[parser->toksuper].size++;
   b5960:	bf1f      	itttt	ne
   b5962:	eb03 1905 	addne.w	r9, r3, r5, lsl #4
   b5966:	f8d9 500c 	ldrne.w	r5, [r9, #12]
   b596a:	3501      	addne	r5, #1
   b596c:	f8c9 500c 	strne.w	r5, [r9, #12]
				token->type = (c == '{' ? JSMN_OBJECT : JSMN_ARRAY);
   b5970:	f1b8 0f7b 	cmp.w	r8, #123	; 0x7b
   b5974:	bf0c      	ite	eq
   b5976:	2501      	moveq	r5, #1
   b5978:	2502      	movne	r5, #2
   b597a:	f803 500a 	strb.w	r5, [r3, sl]
				token->start = parser->pos;
   b597e:	6805      	ldr	r5, [r0, #0]
   b5980:	f8ce 5004 	str.w	r5, [lr, #4]
				parser->toksuper = parser->toknext - 1;
   b5984:	6845      	ldr	r5, [r0, #4]
   b5986:	3d01      	subs	r5, #1
   b5988:	e7ca      	b.n	b5920 <_ZN21JsonParserGeneratorRK10jsmn_parseEPNS_11jsmn_parserEPKcjPNS_9jsmntok_tEj+0xf8>
				for (i = parser->toknext - 1; i >= 0; i--) {
   b598a:	3d01      	subs	r5, #1
   b598c:	f1a8 0810 	sub.w	r8, r8, #16
   b5990:	e7a7      	b.n	b58e2 <_ZN21JsonParserGeneratorRK10jsmn_parseEPNS_11jsmn_parserEPKcjPNS_9jsmntok_tEj+0xba>
				if (i == -1) return JSMN_ERROR_INVAL;
   b5992:	3501      	adds	r5, #1
   b5994:	f47f af71 	bne.w	b587a <_ZN21JsonParserGeneratorRK10jsmn_parseEPNS_11jsmn_parserEPKcjPNS_9jsmntok_tEj+0x52>
							return JSMN_ERROR_INVAL;
   b5998:	f06f 0401 	mvn.w	r4, #1
   b599c:	e01e      	b.n	b59dc <_ZN21JsonParserGeneratorRK10jsmn_parseEPNS_11jsmn_parserEPKcjPNS_9jsmntok_tEj+0x1b4>
				for (; i >= 0; i--) {
   b599e:	3d01      	subs	r5, #1
   b59a0:	1c6f      	adds	r7, r5, #1
   b59a2:	f1ae 0e10 	sub.w	lr, lr, #16
   b59a6:	d1b3      	bne.n	b5910 <_ZN21JsonParserGeneratorRK10jsmn_parseEPNS_11jsmn_parserEPKcjPNS_9jsmntok_tEj+0xe8>
   b59a8:	e767      	b.n	b587a <_ZN21JsonParserGeneratorRK10jsmn_parseEPNS_11jsmn_parserEPKcjPNS_9jsmntok_tEj+0x52>
	parser->pos++;
   b59aa:	f10e 0901 	add.w	r9, lr, #1
   b59ae:	f8c0 9000 	str.w	r9, [r0]
	for (; parser->pos < len && js[parser->pos] != '\0'; parser->pos++) {
   b59b2:	f8d0 8000 	ldr.w	r8, [r0]
   b59b6:	4542      	cmp	r2, r8
   b59b8:	f240 8093 	bls.w	b5ae2 <_ZN21JsonParserGeneratorRK10jsmn_parseEPNS_11jsmn_parserEPKcjPNS_9jsmntok_tEj+0x2ba>
   b59bc:	f811 5008 	ldrb.w	r5, [r1, r8]
   b59c0:	2d00      	cmp	r5, #0
   b59c2:	f000 808e 	beq.w	b5ae2 <_ZN21JsonParserGeneratorRK10jsmn_parseEPNS_11jsmn_parserEPKcjPNS_9jsmntok_tEj+0x2ba>
		if (c == '\"') {
   b59c6:	2d22      	cmp	r5, #34	; 0x22
   b59c8:	d130      	bne.n	b5a2c <_ZN21JsonParserGeneratorRK10jsmn_parseEPNS_11jsmn_parserEPKcjPNS_9jsmntok_tEj+0x204>
			if (tokens == NULL) {
   b59ca:	b1f3      	cbz	r3, b5a0a <_ZN21JsonParserGeneratorRK10jsmn_parseEPNS_11jsmn_parserEPKcjPNS_9jsmntok_tEj+0x1e2>
	if (parser->toknext >= num_tokens) {
   b59cc:	6845      	ldr	r5, [r0, #4]
   b59ce:	9f09      	ldr	r7, [sp, #36]	; 0x24
   b59d0:	42af      	cmp	r7, r5
   b59d2:	d806      	bhi.n	b59e2 <_ZN21JsonParserGeneratorRK10jsmn_parseEPNS_11jsmn_parserEPKcjPNS_9jsmntok_tEj+0x1ba>
		parser->pos = start;
   b59d4:	f8c0 e000 	str.w	lr, [r0]
					return JSMN_ERROR_NOMEM;
   b59d8:	f04f 34ff 	mov.w	r4, #4294967295	; 0xffffffff
			}
		}
	}

	return count;
}
   b59dc:	4620      	mov	r0, r4
   b59de:	e8bd 8ff0 	ldmia.w	sp!, {r4, r5, r6, r7, r8, r9, sl, fp, pc}
	tok = &tokens[parser->toknext++];
   b59e2:	f105 0e01 	add.w	lr, r5, #1
   b59e6:	ea4f 1805 	mov.w	r8, r5, lsl #4
   b59ea:	eb03 1505 	add.w	r5, r3, r5, lsl #4
   b59ee:	f8c0 e004 	str.w	lr, [r0, #4]
	tok->start = tok->end = -1;
   b59f2:	e9c5 6601 	strd	r6, r6, [r5, #4]
	tok->size = 0;
   b59f6:	2700      	movs	r7, #0
   b59f8:	60ef      	str	r7, [r5, #12]
			jsmn_fill_token(token, JSMN_STRING, start+1, parser->pos);
   b59fa:	f8d0 e000 	ldr.w	lr, [r0]
	token->type = type;
   b59fe:	f04f 0a03 	mov.w	sl, #3
   b5a02:	f803 a008 	strb.w	sl, [r3, r8]
	token->end = end;
   b5a06:	e9c5 9e01 	strd	r9, lr, [r5, #4]
				if (parser->toksuper != -1 && tokens != NULL)
   b5a0a:	6885      	ldr	r5, [r0, #8]
   b5a0c:	1c6f      	adds	r7, r5, #1
				count++;
   b5a0e:	f104 0401 	add.w	r4, r4, #1
				if (parser->toksuper != -1 && tokens != NULL)
   b5a12:	f43f af32 	beq.w	b587a <_ZN21JsonParserGeneratorRK10jsmn_parseEPNS_11jsmn_parserEPKcjPNS_9jsmntok_tEj+0x52>
   b5a16:	2b00      	cmp	r3, #0
   b5a18:	f43f af2f 	beq.w	b587a <_ZN21JsonParserGeneratorRK10jsmn_parseEPNS_11jsmn_parserEPKcjPNS_9jsmntok_tEj+0x52>
					tokens[parser->toksuper].size++;
   b5a1c:	eb03 1e05 	add.w	lr, r3, r5, lsl #4
   b5a20:	f8de 500c 	ldr.w	r5, [lr, #12]
   b5a24:	3501      	adds	r5, #1
   b5a26:	f8ce 500c 	str.w	r5, [lr, #12]
   b5a2a:	e726      	b.n	b587a <_ZN21JsonParserGeneratorRK10jsmn_parseEPNS_11jsmn_parserEPKcjPNS_9jsmntok_tEj+0x52>
		if (c == '\\' && parser->pos + 1 < len) {
   b5a2c:	2d5c      	cmp	r5, #92	; 0x5c
   b5a2e:	d111      	bne.n	b5a54 <_ZN21JsonParserGeneratorRK10jsmn_parseEPNS_11jsmn_parserEPKcjPNS_9jsmntok_tEj+0x22c>
   b5a30:	f108 0501 	add.w	r5, r8, #1
   b5a34:	42aa      	cmp	r2, r5
   b5a36:	d90d      	bls.n	b5a54 <_ZN21JsonParserGeneratorRK10jsmn_parseEPNS_11jsmn_parserEPKcjPNS_9jsmntok_tEj+0x22c>
			parser->pos++;
   b5a38:	6005      	str	r5, [r0, #0]
			switch (js[parser->pos]) {
   b5a3a:	5d4d      	ldrb	r5, [r1, r5]
   b5a3c:	2d75      	cmp	r5, #117	; 0x75
   b5a3e:	d82b      	bhi.n	b5a98 <_ZN21JsonParserGeneratorRK10jsmn_parseEPNS_11jsmn_parserEPKcjPNS_9jsmntok_tEj+0x270>
   b5a40:	2d6d      	cmp	r5, #109	; 0x6d
   b5a42:	d80b      	bhi.n	b5a5c <_ZN21JsonParserGeneratorRK10jsmn_parseEPNS_11jsmn_parserEPKcjPNS_9jsmntok_tEj+0x234>
   b5a44:	2d66      	cmp	r5, #102	; 0x66
   b5a46:	d827      	bhi.n	b5a98 <_ZN21JsonParserGeneratorRK10jsmn_parseEPNS_11jsmn_parserEPKcjPNS_9jsmntok_tEj+0x270>
   b5a48:	2d5b      	cmp	r5, #91	; 0x5b
   b5a4a:	d81d      	bhi.n	b5a88 <_ZN21JsonParserGeneratorRK10jsmn_parseEPNS_11jsmn_parserEPKcjPNS_9jsmntok_tEj+0x260>
   b5a4c:	2d22      	cmp	r5, #34	; 0x22
   b5a4e:	d001      	beq.n	b5a54 <_ZN21JsonParserGeneratorRK10jsmn_parseEPNS_11jsmn_parserEPKcjPNS_9jsmntok_tEj+0x22c>
   b5a50:	2d2f      	cmp	r5, #47	; 0x2f
   b5a52:	d121      	bne.n	b5a98 <_ZN21JsonParserGeneratorRK10jsmn_parseEPNS_11jsmn_parserEPKcjPNS_9jsmntok_tEj+0x270>
	for (; parser->pos < len && js[parser->pos] != '\0'; parser->pos++) {
   b5a54:	6805      	ldr	r5, [r0, #0]
   b5a56:	3501      	adds	r5, #1
   b5a58:	6005      	str	r5, [r0, #0]
   b5a5a:	e7aa      	b.n	b59b2 <_ZN21JsonParserGeneratorRK10jsmn_parseEPNS_11jsmn_parserEPKcjPNS_9jsmntok_tEj+0x18a>
   b5a5c:	3d6e      	subs	r5, #110	; 0x6e
   b5a5e:	2d07      	cmp	r5, #7
   b5a60:	d81a      	bhi.n	b5a98 <_ZN21JsonParserGeneratorRK10jsmn_parseEPNS_11jsmn_parserEPKcjPNS_9jsmntok_tEj+0x270>
   b5a62:	a701      	add	r7, pc, #4	; (adr r7, b5a68 <_ZN21JsonParserGeneratorRK10jsmn_parseEPNS_11jsmn_parserEPKcjPNS_9jsmntok_tEj+0x240>)
   b5a64:	f857 f025 	ldr.w	pc, [r7, r5, lsl #2]
   b5a68:	000b5a55 	.word	0x000b5a55
   b5a6c:	000b5a99 	.word	0x000b5a99
   b5a70:	000b5a99 	.word	0x000b5a99
   b5a74:	000b5a99 	.word	0x000b5a99
   b5a78:	000b5a55 	.word	0x000b5a55
   b5a7c:	000b5a99 	.word	0x000b5a99
   b5a80:	000b5a55 	.word	0x000b5a55
   b5a84:	000b5a9f 	.word	0x000b5a9f
   b5a88:	3d5c      	subs	r5, #92	; 0x5c
   b5a8a:	b2ed      	uxtb	r5, r5
   b5a8c:	fa0c f505 	lsl.w	r5, ip, r5
   b5a90:	f240 4741 	movw	r7, #1089	; 0x441
   b5a94:	423d      	tst	r5, r7
   b5a96:	d1dd      	bne.n	b5a54 <_ZN21JsonParserGeneratorRK10jsmn_parseEPNS_11jsmn_parserEPKcjPNS_9jsmntok_tEj+0x22c>
			parser->pos = start;
   b5a98:	f8c0 e000 	str.w	lr, [r0]
				if (r < 0) return r;
   b5a9c:	e77c      	b.n	b5998 <_ZN21JsonParserGeneratorRK10jsmn_parseEPNS_11jsmn_parserEPKcjPNS_9jsmntok_tEj+0x170>
					parser->pos++;
   b5a9e:	f108 0502 	add.w	r5, r8, #2
   b5aa2:	6005      	str	r5, [r0, #0]
   b5aa4:	f04f 0a04 	mov.w	sl, #4
					for(i = 0; i < 4 && parser->pos < len && js[parser->pos] != '\0'; i++) {
   b5aa8:	f8d0 8000 	ldr.w	r8, [r0]
   b5aac:	4542      	cmp	r2, r8
   b5aae:	d803      	bhi.n	b5ab8 <_ZN21JsonParserGeneratorRK10jsmn_parseEPNS_11jsmn_parserEPKcjPNS_9jsmntok_tEj+0x290>
					parser->pos--;
   b5ab0:	6805      	ldr	r5, [r0, #0]
   b5ab2:	3d01      	subs	r5, #1
   b5ab4:	6005      	str	r5, [r0, #0]
					break;
   b5ab6:	e7cd      	b.n	b5a54 <_ZN21JsonParserGeneratorRK10jsmn_parseEPNS_11jsmn_parserEPKcjPNS_9jsmntok_tEj+0x22c>
					for(i = 0; i < 4 && parser->pos < len && js[parser->pos] != '\0'; i++) {
   b5ab8:	f811 5008 	ldrb.w	r5, [r1, r8]
   b5abc:	2d00      	cmp	r5, #0
   b5abe:	d0f7      	beq.n	b5ab0 <_ZN21JsonParserGeneratorRK10jsmn_parseEPNS_11jsmn_parserEPKcjPNS_9jsmntok_tEj+0x288>
						if(!((js[parser->pos] >= 48 && js[parser->pos] <= 57) || /* 0-9 */
   b5ac0:	f1a5 0b30 	sub.w	fp, r5, #48	; 0x30
   b5ac4:	f1bb 0f09 	cmp.w	fp, #9
   b5ac8:	d904      	bls.n	b5ad4 <_ZN21JsonParserGeneratorRK10jsmn_parseEPNS_11jsmn_parserEPKcjPNS_9jsmntok_tEj+0x2ac>
   b5aca:	f025 0520 	bic.w	r5, r5, #32
   b5ace:	3d41      	subs	r5, #65	; 0x41
   b5ad0:	2d05      	cmp	r5, #5
   b5ad2:	d8e1      	bhi.n	b5a98 <_ZN21JsonParserGeneratorRK10jsmn_parseEPNS_11jsmn_parserEPKcjPNS_9jsmntok_tEj+0x270>
						parser->pos++;
   b5ad4:	f108 0501 	add.w	r5, r8, #1
					for(i = 0; i < 4 && parser->pos < len && js[parser->pos] != '\0'; i++) {
   b5ad8:	f1ba 0a01 	subs.w	sl, sl, #1
						parser->pos++;
   b5adc:	6005      	str	r5, [r0, #0]
					for(i = 0; i < 4 && parser->pos < len && js[parser->pos] != '\0'; i++) {
   b5ade:	d1e3      	bne.n	b5aa8 <_ZN21JsonParserGeneratorRK10jsmn_parseEPNS_11jsmn_parserEPKcjPNS_9jsmntok_tEj+0x280>
   b5ae0:	e7e6      	b.n	b5ab0 <_ZN21JsonParserGeneratorRK10jsmn_parseEPNS_11jsmn_parserEPKcjPNS_9jsmntok_tEj+0x288>
	parser->pos = start;
   b5ae2:	f8c0 e000 	str.w	lr, [r0]
				return JSMN_ERROR_PART;
   b5ae6:	f06f 0402 	mvn.w	r4, #2
   b5aea:	e777      	b.n	b59dc <_ZN21JsonParserGeneratorRK10jsmn_parseEPNS_11jsmn_parserEPKcjPNS_9jsmntok_tEj+0x1b4>
   b5aec:	00800013 	.word	0x00800013
				if (tokens != NULL && parser->toksuper != -1 &&
   b5af0:	2b00      	cmp	r3, #0
   b5af2:	f43f aec2 	beq.w	b587a <_ZN21JsonParserGeneratorRK10jsmn_parseEPNS_11jsmn_parserEPKcjPNS_9jsmntok_tEj+0x52>
   b5af6:	6885      	ldr	r5, [r0, #8]
   b5af8:	1c6f      	adds	r7, r5, #1
   b5afa:	f43f aebe 	beq.w	b587a <_ZN21JsonParserGeneratorRK10jsmn_parseEPNS_11jsmn_parserEPKcjPNS_9jsmntok_tEj+0x52>
						tokens[parser->toksuper].type != JSMN_ARRAY &&
   b5afe:	012d      	lsls	r5, r5, #4
   b5b00:	5d5d      	ldrb	r5, [r3, r5]
   b5b02:	3d01      	subs	r5, #1
   b5b04:	2d01      	cmp	r5, #1
   b5b06:	f67f aeb8 	bls.w	b587a <_ZN21JsonParserGeneratorRK10jsmn_parseEPNS_11jsmn_parserEPKcjPNS_9jsmntok_tEj+0x52>
					for (i = parser->toknext - 1; i >= 0; i--) {
   b5b0a:	6845      	ldr	r5, [r0, #4]
   b5b0c:	f105 38ff 	add.w	r8, r5, #4294967295	; 0xffffffff
   b5b10:	eb03 1e05 	add.w	lr, r3, r5, lsl #4
   b5b14:	f1b8 0f00 	cmp.w	r8, #0
   b5b18:	f6ff aeaf 	blt.w	b587a <_ZN21JsonParserGeneratorRK10jsmn_parseEPNS_11jsmn_parserEPKcjPNS_9jsmntok_tEj+0x52>
						if (tokens[i].type == JSMN_ARRAY || tokens[i].type == JSMN_OBJECT) {
   b5b1c:	f81e 5c10 	ldrb.w	r5, [lr, #-16]
   b5b20:	3d01      	subs	r5, #1
   b5b22:	2d01      	cmp	r5, #1
   b5b24:	d80a      	bhi.n	b5b3c <_ZN21JsonParserGeneratorRK10jsmn_parseEPNS_11jsmn_parserEPKcjPNS_9jsmntok_tEj+0x314>
							if (tokens[i].start != -1 && tokens[i].end == -1) {
   b5b26:	f85e 5c0c 	ldr.w	r5, [lr, #-12]
   b5b2a:	3501      	adds	r5, #1
   b5b2c:	d006      	beq.n	b5b3c <_ZN21JsonParserGeneratorRK10jsmn_parseEPNS_11jsmn_parserEPKcjPNS_9jsmntok_tEj+0x314>
   b5b2e:	f85e 5c08 	ldr.w	r5, [lr, #-8]
   b5b32:	3501      	adds	r5, #1
   b5b34:	d102      	bne.n	b5b3c <_ZN21JsonParserGeneratorRK10jsmn_parseEPNS_11jsmn_parserEPKcjPNS_9jsmntok_tEj+0x314>
								parser->toksuper = i;
   b5b36:	f8c0 8008 	str.w	r8, [r0, #8]
								break;
   b5b3a:	e69e      	b.n	b587a <_ZN21JsonParserGeneratorRK10jsmn_parseEPNS_11jsmn_parserEPKcjPNS_9jsmntok_tEj+0x52>
					for (i = parser->toknext - 1; i >= 0; i--) {
   b5b3c:	f108 38ff 	add.w	r8, r8, #4294967295	; 0xffffffff
   b5b40:	f1ae 0e10 	sub.w	lr, lr, #16
   b5b44:	e7e6      	b.n	b5b14 <_ZN21JsonParserGeneratorRK10jsmn_parseEPNS_11jsmn_parserEPKcjPNS_9jsmntok_tEj+0x2ec>
   b5b46:	f1a5 0920 	sub.w	r9, r5, #32
   b5b4a:	4f24      	ldr	r7, [pc, #144]	; (b5bdc <_ZN21JsonParserGeneratorRK10jsmn_parseEPNS_11jsmn_parserEPKcjPNS_9jsmntok_tEj+0x3b4>)
   b5b4c:	fa5f f989 	uxtb.w	r9, r9
   b5b50:	fa0c f909 	lsl.w	r9, ip, r9
   b5b54:	ea19 0f07 	tst.w	r9, r7
   b5b58:	f47f aeaa 	bne.w	b58b0 <_ZN21JsonParserGeneratorRK10jsmn_parseEPNS_11jsmn_parserEPKcjPNS_9jsmntok_tEj+0x88>
		if (js[parser->pos] < 32 || js[parser->pos] >= 127) {
   b5b5c:	3d20      	subs	r5, #32
   b5b5e:	2d5e      	cmp	r5, #94	; 0x5e
   b5b60:	d89a      	bhi.n	b5a98 <_ZN21JsonParserGeneratorRK10jsmn_parseEPNS_11jsmn_parserEPKcjPNS_9jsmntok_tEj+0x270>
	for (; parser->pos < len && js[parser->pos] != '\0'; parser->pos++) {
   b5b62:	f108 0501 	add.w	r5, r8, #1
   b5b66:	6005      	str	r5, [r0, #0]
   b5b68:	e68f      	b.n	b588a <_ZN21JsonParserGeneratorRK10jsmn_parseEPNS_11jsmn_parserEPKcjPNS_9jsmntok_tEj+0x62>
		switch (js[parser->pos]) {
   b5b6a:	2d0d      	cmp	r5, #13
   b5b6c:	d1f6      	bne.n	b5b5c <_ZN21JsonParserGeneratorRK10jsmn_parseEPNS_11jsmn_parserEPKcjPNS_9jsmntok_tEj+0x334>
   b5b6e:	e69f      	b.n	b58b0 <_ZN21JsonParserGeneratorRK10jsmn_parseEPNS_11jsmn_parserEPKcjPNS_9jsmntok_tEj+0x88>
   b5b70:	f005 09df 	and.w	r9, r5, #223	; 0xdf
   b5b74:	f1b9 0f5d 	cmp.w	r9, #93	; 0x5d
   b5b78:	e7f8      	b.n	b5b6c <_ZN21JsonParserGeneratorRK10jsmn_parseEPNS_11jsmn_parserEPKcjPNS_9jsmntok_tEj+0x344>
	if (parser->toknext >= num_tokens) {
   b5b7a:	6845      	ldr	r5, [r0, #4]
   b5b7c:	9f09      	ldr	r7, [sp, #36]	; 0x24
   b5b7e:	42af      	cmp	r7, r5
   b5b80:	f67f af28 	bls.w	b59d4 <_ZN21JsonParserGeneratorRK10jsmn_parseEPNS_11jsmn_parserEPKcjPNS_9jsmntok_tEj+0x1ac>
	tok = &tokens[parser->toknext++];
   b5b84:	f105 0801 	add.w	r8, r5, #1
   b5b88:	ea4f 1905 	mov.w	r9, r5, lsl #4
   b5b8c:	eb03 1505 	add.w	r5, r3, r5, lsl #4
   b5b90:	f8c0 8004 	str.w	r8, [r0, #4]
	tok->start = tok->end = -1;
   b5b94:	e9c5 6601 	strd	r6, r6, [r5, #4]
	tok->size = 0;
   b5b98:	2700      	movs	r7, #0
   b5b9a:	60ef      	str	r7, [r5, #12]
	jsmn_fill_token(token, JSMN_PRIMITIVE, start, parser->pos);
   b5b9c:	f8d0 8000 	ldr.w	r8, [r0]
	token->type = type;
   b5ba0:	f04f 0a04 	mov.w	sl, #4
   b5ba4:	f803 a009 	strb.w	sl, [r3, r9]
	token->end = end;
   b5ba8:	e9c5 e801 	strd	lr, r8, [r5, #4]
	parser->pos--;
   b5bac:	6805      	ldr	r5, [r0, #0]
   b5bae:	3d01      	subs	r5, #1
   b5bb0:	e683      	b.n	b58ba <_ZN21JsonParserGeneratorRK10jsmn_parseEPNS_11jsmn_parserEPKcjPNS_9jsmntok_tEj+0x92>
	if (tokens != NULL) {
   b5bb2:	2b00      	cmp	r3, #0
   b5bb4:	f43f af12 	beq.w	b59dc <_ZN21JsonParserGeneratorRK10jsmn_parseEPNS_11jsmn_parserEPKcjPNS_9jsmntok_tEj+0x1b4>
		for (i = parser->toknext - 1; i >= 0; i--) {
   b5bb8:	6842      	ldr	r2, [r0, #4]
   b5bba:	1e51      	subs	r1, r2, #1
   b5bbc:	eb03 1302 	add.w	r3, r3, r2, lsl #4
   b5bc0:	2900      	cmp	r1, #0
   b5bc2:	f6ff af0b 	blt.w	b59dc <_ZN21JsonParserGeneratorRK10jsmn_parseEPNS_11jsmn_parserEPKcjPNS_9jsmntok_tEj+0x1b4>
			if (tokens[i].start != -1 && tokens[i].end == -1) {
   b5bc6:	f853 2c0c 	ldr.w	r2, [r3, #-12]
   b5bca:	3201      	adds	r2, #1
   b5bcc:	d003      	beq.n	b5bd6 <_ZN21JsonParserGeneratorRK10jsmn_parseEPNS_11jsmn_parserEPKcjPNS_9jsmntok_tEj+0x3ae>
   b5bce:	f853 2c08 	ldr.w	r2, [r3, #-8]
   b5bd2:	3201      	adds	r2, #1
   b5bd4:	d087      	beq.n	b5ae6 <_ZN21JsonParserGeneratorRK10jsmn_parseEPNS_11jsmn_parserEPKcjPNS_9jsmntok_tEj+0x2be>
		for (i = parser->toknext - 1; i >= 0; i--) {
   b5bd6:	3901      	subs	r1, #1
   b5bd8:	3b10      	subs	r3, #16
   b5bda:	e7f1      	b.n	b5bc0 <_ZN21JsonParserGeneratorRK10jsmn_parseEPNS_11jsmn_parserEPKcjPNS_9jsmntok_tEj+0x398>
   b5bdc:	04001001 	.word	0x04001001

000b5be0 <_ZN10JsonParser5parseEv>:
bool JsonParser::parse() {
   b5be0:	b5f7      	push	{r0, r1, r2, r4, r5, r6, r7, lr}
	if (offset == 0) {
   b5be2:	68c2      	ldr	r2, [r0, #12]
bool JsonParser::parse() {
   b5be4:	4604      	mov	r4, r0
	if (offset == 0) {
   b5be6:	b912      	cbnz	r2, b5bee <_ZN10JsonParser5parseEv+0xe>
		return false;
   b5be8:	2000      	movs	r0, #0
}
   b5bea:	b003      	add	sp, #12
   b5bec:	bdf0      	pop	{r4, r5, r6, r7, pc}
	if (tokens) {
   b5bee:	6943      	ldr	r3, [r0, #20]
		JsonParserGeneratorRK::jsmn_init(&parser);
   b5bf0:	f100 0620 	add.w	r6, r0, #32
	if (tokens) {
   b5bf4:	b1ab      	cbz	r3, b5c22 <_ZN10JsonParser5parseEv+0x42>
/**
 * Creates a new parser based over a given  buffer with an array of tokens
 * available.
 */
void jsmn_init(jsmn_parser *parser) {
	parser->pos = 0;
   b5bf6:	2100      	movs	r1, #0
	parser->toknext = 0;
   b5bf8:	e9c0 1108 	strd	r1, r1, [r0, #32]
	parser->toksuper = -1;
   b5bfc:	f04f 31ff 	mov.w	r1, #4294967295	; 0xffffffff
   b5c00:	6281      	str	r1, [r0, #40]	; 0x28
		int result = JsonParserGeneratorRK::jsmn_parse(&parser, buffer, offset, tokens, maxTokens);
   b5c02:	69c1      	ldr	r1, [r0, #28]
   b5c04:	9100      	str	r1, [sp, #0]
   b5c06:	6841      	ldr	r1, [r0, #4]
   b5c08:	4630      	mov	r0, r6
   b5c0a:	f7ff fe0d 	bl	b5828 <_ZN21JsonParserGeneratorRK10jsmn_parseEPNS_11jsmn_parserEPKcjPNS_9jsmntok_tEj>
		if (result == JsonParserGeneratorRK::JSMN_ERROR_NOMEM) {
   b5c0e:	1c43      	adds	r3, r0, #1
   b5c10:	d128      	bne.n	b5c64 <_ZN10JsonParser5parseEv+0x84>
			if (staticBuffers) {
   b5c12:	7c25      	ldrb	r5, [r4, #16]
   b5c14:	2d00      	cmp	r5, #0
   b5c16:	d1e7      	bne.n	b5be8 <_ZN10JsonParser5parseEv+0x8>
			free(tokens);
   b5c18:	6960      	ldr	r0, [r4, #20]
   b5c1a:	f001 f9d5 	bl	b6fc8 <free>
			tokens = 0;
   b5c1e:	6165      	str	r5, [r4, #20]
			maxTokens = 0;
   b5c20:	61e5      	str	r5, [r4, #28]
	parser->pos = 0;
   b5c22:	2500      	movs	r5, #0
	parser->toksuper = -1;
   b5c24:	f04f 37ff 	mov.w	r7, #4294967295	; 0xffffffff
	parser->toknext = 0;
   b5c28:	e9c4 5508 	strd	r5, r5, [r4, #32]
	int result = JsonParserGeneratorRK::jsmn_parse(&parser, buffer, offset, 0, 0);
   b5c2c:	68e2      	ldr	r2, [r4, #12]
   b5c2e:	6861      	ldr	r1, [r4, #4]
	parser->toksuper = -1;
   b5c30:	62a7      	str	r7, [r4, #40]	; 0x28
	int result = JsonParserGeneratorRK::jsmn_parse(&parser, buffer, offset, 0, 0);
   b5c32:	9500      	str	r5, [sp, #0]
   b5c34:	462b      	mov	r3, r5
   b5c36:	4630      	mov	r0, r6
   b5c38:	f7ff fdf6 	bl	b5828 <_ZN21JsonParserGeneratorRK10jsmn_parseEPNS_11jsmn_parserEPKcjPNS_9jsmntok_tEj>
	if (result < 0) {
   b5c3c:	2800      	cmp	r0, #0
   b5c3e:	dbd3      	blt.n	b5be8 <_ZN10JsonParser5parseEv+0x8>
	maxTokens = (size_t) result;
   b5c40:	61e0      	str	r0, [r4, #28]
	if (maxTokens > 0) {
   b5c42:	d017      	beq.n	b5c74 <_ZN10JsonParser5parseEv+0x94>
		tokens = (JsonParserGeneratorRK::jsmntok_t *)malloc(sizeof(JsonParserGeneratorRK::jsmntok_t) * maxTokens);
   b5c44:	0100      	lsls	r0, r0, #4
   b5c46:	f001 f9b7 	bl	b6fb8 <malloc>
		int result = JsonParserGeneratorRK::jsmn_parse(&parser, buffer, offset, tokens, maxTokens);
   b5c4a:	69e2      	ldr	r2, [r4, #28]
		tokens = (JsonParserGeneratorRK::jsmntok_t *)malloc(sizeof(JsonParserGeneratorRK::jsmntok_t) * maxTokens);
   b5c4c:	6160      	str	r0, [r4, #20]
   b5c4e:	4603      	mov	r3, r0
		int result = JsonParserGeneratorRK::jsmn_parse(&parser, buffer, offset, tokens, maxTokens);
   b5c50:	9200      	str	r2, [sp, #0]
	parser->toknext = 0;
   b5c52:	e9c4 5508 	strd	r5, r5, [r4, #32]
		int result = JsonParserGeneratorRK::jsmn_parse(&parser, buffer, offset, tokens, maxTokens);
   b5c56:	68e2      	ldr	r2, [r4, #12]
   b5c58:	6861      	ldr	r1, [r4, #4]
	parser->toksuper = -1;
   b5c5a:	62a7      	str	r7, [r4, #40]	; 0x28
		int result = JsonParserGeneratorRK::jsmn_parse(&parser, buffer, offset, tokens, maxTokens);
   b5c5c:	4630      	mov	r0, r6
   b5c5e:	f7ff fde3 	bl	b5828 <_ZN21JsonParserGeneratorRK10jsmn_parseEPNS_11jsmn_parserEPKcjPNS_9jsmntok_tEj>
   b5c62:	e001      	b.n	b5c68 <_ZN10JsonParser5parseEv+0x88>
		if (result < 0) {
   b5c64:	2800      	cmp	r0, #0
   b5c66:	dbbf      	blt.n	b5be8 <_ZN10JsonParser5parseEv+0x8>
		tokensEnd = &tokens[result];
   b5c68:	6963      	ldr	r3, [r4, #20]
   b5c6a:	eb03 1000 	add.w	r0, r3, r0, lsl #4
   b5c6e:	61a0      	str	r0, [r4, #24]
	return true;
   b5c70:	2001      	movs	r0, #1
   b5c72:	e7ba      	b.n	b5bea <_ZN10JsonParser5parseEv+0xa>
		tokensEnd = tokens;
   b5c74:	6963      	ldr	r3, [r4, #20]
   b5c76:	61a3      	str	r3, [r4, #24]
   b5c78:	e7fa      	b.n	b5c70 <_ZN10JsonParser5parseEv+0x90>

000b5c7a <_ZN12JsonModifier6finishEv>:
void JsonModifier::finish() {
   b5c7a:	b538      	push	{r3, r4, r5, lr}
	if (start == -1) {
   b5c7c:	6b43      	ldr	r3, [r0, #52]	; 0x34
   b5c7e:	1c5a      	adds	r2, r3, #1
void JsonModifier::finish() {
   b5c80:	4604      	mov	r4, r0
	if (start == -1) {
   b5c82:	d018      	beq.n	b5cb6 <_ZN12JsonModifier6finishEv+0x3c>
	if (origAfter > 0) {
   b5c84:	6b82      	ldr	r2, [r0, #56]	; 0x38
   b5c86:	2a00      	cmp	r2, #0
   b5c88:	dd08      	ble.n	b5c9c <_ZN12JsonModifier6finishEv+0x22>
   b5c8a:	6b01      	ldr	r1, [r0, #48]	; 0x30
		memmove(jp.getBuffer() + start + getOffset(), jp.getBuffer() + saveLoc, origAfter);
   b5c8c:	68e5      	ldr	r5, [r4, #12]
   b5c8e:	6848      	ldr	r0, [r1, #4]
   b5c90:	6be1      	ldr	r1, [r4, #60]	; 0x3c
   b5c92:	442b      	add	r3, r5
   b5c94:	4401      	add	r1, r0
   b5c96:	4418      	add	r0, r3
   b5c98:	f003 fe28 	bl	b98ec <memmove>
	jp.setOffset(start + getOffset() + origAfter);
   b5c9c:	e9d4 230c 	ldrd	r2, r3, [r4, #48]	; 0x30
   b5ca0:	6ba1      	ldr	r1, [r4, #56]	; 0x38
   b5ca2:	440b      	add	r3, r1
   b5ca4:	68e1      	ldr	r1, [r4, #12]
   b5ca6:	440b      	add	r3, r1
	void setOffset(size_t offset) { this->offset = offset; };
   b5ca8:	60d3      	str	r3, [r2, #12]
	jp.parse();
   b5caa:	6b20      	ldr	r0, [r4, #48]	; 0x30
   b5cac:	f7ff ff98 	bl	b5be0 <_ZN10JsonParser5parseEv>
	start = -1;
   b5cb0:	f04f 33ff 	mov.w	r3, #4294967295	; 0xffffffff
   b5cb4:	6363      	str	r3, [r4, #52]	; 0x34
}
   b5cb6:	bd38      	pop	{r3, r4, r5, pc}

000b5cb8 <_ZN8MB85RC64D1Ev>:
	size_t memorySize;
	int addr; // This is just 0-7, the (0b1010000 of the 7-bit address is ORed in later)

};

class MB85RC64 : public MB85RC {
   b5cb8:	b510      	push	{r4, lr}
   b5cba:	4b03      	ldr	r3, [pc, #12]	; (b5cc8 <_ZN8MB85RC64D1Ev+0x10>)
   b5cbc:	6003      	str	r3, [r0, #0]
   b5cbe:	4604      	mov	r4, r0
   b5cc0:	f000 fb5c 	bl	b637c <_ZN6MB85RCD1Ev>
   b5cc4:	4620      	mov	r0, r4
   b5cc6:	bd10      	pop	{r4, pc}
   b5cc8:	000baa10 	.word	0x000baa10

000b5ccc <_ZN8MB85RC64D0Ev>:
   b5ccc:	b510      	push	{r4, lr}
   b5cce:	4604      	mov	r4, r0
   b5cd0:	f7ff fff2 	bl	b5cb8 <_ZN8MB85RC64D1Ev>
   b5cd4:	4620      	mov	r0, r4
   b5cd6:	2110      	movs	r1, #16
   b5cd8:	f7fe f9df 	bl	b409a <_ZdlPvj>
   b5cdc:	4620      	mov	r0, r4
   b5cde:	bd10      	pop	{r4, pc}

000b5ce0 <_ZN17currentStatusData8validateEj>:

void currentStatusData::loop() {
    current.flush(false);
}

bool currentStatusData::validate(size_t dataSize) {
   b5ce0:	b510      	push	{r4, lr}
    bool valid = PersistentDataFRAM::validate(dataSize);
   b5ce2:	f000 fd5d 	bl	b67a0 <_ZN15StorageHelperRK18PersistentDataBase8validateEj>
    if (!valid) Log.info("current data is %s",(valid) ? "valid": "not valid");
   b5ce6:	4604      	mov	r4, r0
   b5ce8:	b920      	cbnz	r0, b5cf4 <_ZN17currentStatusData8validateEj+0x14>
   b5cea:	4a03      	ldr	r2, [pc, #12]	; (b5cf8 <_ZN17currentStatusData8validateEj+0x18>)
   b5cec:	4903      	ldr	r1, [pc, #12]	; (b5cfc <_ZN17currentStatusData8validateEj+0x1c>)
   b5cee:	4804      	ldr	r0, [pc, #16]	; (b5d00 <_ZN17currentStatusData8validateEj+0x20>)
   b5cf0:	f7fe fa38 	bl	b4164 <_ZNK5spark6Logger4infoEPKcz>
    return valid;
}
   b5cf4:	4620      	mov	r0, r4
   b5cf6:	bd10      	pop	{r4, pc}
   b5cf8:	000ba920 	.word	0x000ba920
   b5cfc:	000ba92a 	.word	0x000ba92a
   b5d00:	2003e6b0 	.word	0x2003e6b0

000b5d04 <_ZN17currentStatusData10initializeEv>:

void currentStatusData::initialize() {
   b5d04:	b510      	push	{r4, lr}
   b5d06:	4604      	mov	r4, r0
    PersistentDataFRAM::initialize();
   b5d08:	f000 fdb6 	bl	b6878 <_ZN15StorageHelperRK18PersistentDataBase10initializeEv>
    Log.info("Current Data Initialized");
   b5d0c:	4804      	ldr	r0, [pc, #16]	; (b5d20 <_ZN17currentStatusData10initializeEv+0x1c>)
   b5d0e:	4905      	ldr	r1, [pc, #20]	; (b5d24 <_ZN17currentStatusData10initializeEv+0x20>)
   b5d10:	f7fe fa28 	bl	b4164 <_ZNK5spark6Logger4infoEPKcz>
    // If you manually update fields here, be sure to update the hash
    updateHash();
   b5d14:	4620      	mov	r0, r4
}
   b5d16:	e8bd 4010 	ldmia.w	sp!, {r4, lr}
    updateHash();
   b5d1a:	f000 bd05 	b.w	b6728 <_ZN15StorageHelperRK18PersistentDataBase10updateHashEv>
   b5d1e:	bf00      	nop
   b5d20:	2003e6b0 	.word	0x2003e6b0
   b5d24:	000ba93d 	.word	0x000ba93d

000b5d28 <_ZN10nodeIDData8validateEj>:
    nodeDatabase.set_nodeIDJson(blank);
    nodeDatabase.flush(true);
    Log.info("NodeID data is now %s", nodeDatabase.get_nodeIDJson().c_str());
}

bool nodeIDData::validate(size_t dataSize) {
   b5d28:	b510      	push	{r4, lr}
    bool valid = PersistentDataFRAM::validate(dataSize);
   b5d2a:	f000 fd39 	bl	b67a0 <_ZN15StorageHelperRK18PersistentDataBase8validateEj>
    if (!valid) Log.info("nodeID data is %s",(valid) ? "valid": "not valid");
   b5d2e:	4604      	mov	r4, r0
   b5d30:	b920      	cbnz	r0, b5d3c <_ZN10nodeIDData8validateEj+0x14>
   b5d32:	4a03      	ldr	r2, [pc, #12]	; (b5d40 <_ZN10nodeIDData8validateEj+0x18>)
   b5d34:	4903      	ldr	r1, [pc, #12]	; (b5d44 <_ZN10nodeIDData8validateEj+0x1c>)
   b5d36:	4804      	ldr	r0, [pc, #16]	; (b5d48 <_ZN10nodeIDData8validateEj+0x20>)
   b5d38:	f7fe fa14 	bl	b4164 <_ZNK5spark6Logger4infoEPKcz>
    return valid;
}
   b5d3c:	4620      	mov	r0, r4
   b5d3e:	bd10      	pop	{r4, pc}
   b5d40:	000ba920 	.word	0x000ba920
   b5d44:	000ba956 	.word	0x000ba956
   b5d48:	2003e6b0 	.word	0x2003e6b0

000b5d4c <_ZNK15StorageHelperRK20CustomRecursiveMutex4lockEv>:
         * 
         * Blocks if another thread has obtained the mutex, continues when the other thread releases it.
         * 
         * Never call lock from a SINGLE_THREADED_BLOCK since deadlock can occur.
         */
        void lock() const { 
   b5d4c:	b510      	push	{r4, lr}
            if (!handle_) {
   b5d4e:	6803      	ldr	r3, [r0, #0]
        void lock() const { 
   b5d50:	4604      	mov	r4, r0
            if (!handle_) {
   b5d52:	b90b      	cbnz	r3, b5d58 <_ZNK15StorageHelperRK20CustomRecursiveMutex4lockEv+0xc>
                os_mutex_recursive_create(&handle_);
   b5d54:	f000 feec 	bl	b6b30 <os_mutex_recursive_create>
            }
            os_mutex_recursive_lock(handle_); 
   b5d58:	6820      	ldr	r0, [r4, #0]
        }
   b5d5a:	e8bd 4010 	ldmia.w	sp!, {r4, lr}
            os_mutex_recursive_lock(handle_); 
   b5d5e:	f000 bef7 	b.w	b6b50 <os_mutex_recursive_lock>

000b5d62 <_ZN15StorageHelperRK18PersistentDataFRAM4saveEv>:
        }

        /**
         * @brief Save the persistent data file. You normally do not need to call this; it will be saved automatically.
         */
        virtual void save() {
   b5d62:	b538      	push	{r3, r4, r5, lr}
   b5d64:	4604      	mov	r4, r0
    {
    public:
      typedef _Mutex mutex_type;

      explicit lock_guard(mutex_type& __m) : _M_device(__m)
      { _M_device.lock(); }
   b5d66:	3004      	adds	r0, #4
   b5d68:	f7ff fff0 	bl	b5d4c <_ZNK15StorageHelperRK20CustomRecursiveMutex4lockEv>
            WITH_LOCK(*this) {
                fram.writeData(framOffset, (const uint8_t*)savedDataHeader, savedDataSize);
   b5d6c:	6a60      	ldr	r0, [r4, #36]	; 0x24
   b5d6e:	6aa1      	ldr	r1, [r4, #40]	; 0x28
   b5d70:	6803      	ldr	r3, [r0, #0]
   b5d72:	68dd      	ldr	r5, [r3, #12]
   b5d74:	e9d4 2302 	ldrd	r2, r3, [r4, #8]
   b5d78:	47a8      	blx	r5
            os_mutex_recursive_unlock(handle_); 
   b5d7a:	6860      	ldr	r0, [r4, #4]
   b5d7c:	f000 fef0 	bl	b6b60 <os_mutex_recursive_unlock>
            }
            PersistentDataBase::save();
   b5d80:	4620      	mov	r0, r4
        } 
   b5d82:	e8bd 4038 	ldmia.w	sp!, {r3, r4, r5, lr}
            PersistentDataBase::save();
   b5d86:	f000 bd8d 	b.w	b68a4 <_ZN15StorageHelperRK18PersistentDataBase4saveEv>

000b5d8a <_ZN15StorageHelperRK18PersistentDataFRAM4loadEv>:
        virtual bool load() {
   b5d8a:	b538      	push	{r3, r4, r5, lr}
   b5d8c:	4604      	mov	r4, r0
   b5d8e:	3004      	adds	r0, #4
   b5d90:	f7ff ffdc 	bl	b5d4c <_ZNK15StorageHelperRK20CustomRecursiveMutex4lockEv>
                fram.readData(framOffset, (uint8_t*)savedDataHeader, savedDataSize);
   b5d94:	6a60      	ldr	r0, [r4, #36]	; 0x24
   b5d96:	6aa1      	ldr	r1, [r4, #40]	; 0x28
   b5d98:	6803      	ldr	r3, [r0, #0]
   b5d9a:	689d      	ldr	r5, [r3, #8]
   b5d9c:	e9d4 2302 	ldrd	r2, r3, [r4, #8]
   b5da0:	47a8      	blx	r5
                if (!validate(savedDataHeader->size)) {
   b5da2:	68a2      	ldr	r2, [r4, #8]
   b5da4:	6823      	ldr	r3, [r4, #0]
   b5da6:	88d1      	ldrh	r1, [r2, #6]
   b5da8:	695b      	ldr	r3, [r3, #20]
   b5daa:	4620      	mov	r0, r4
   b5dac:	4798      	blx	r3
   b5dae:	b918      	cbnz	r0, b5db8 <_ZN15StorageHelperRK18PersistentDataFRAM4loadEv+0x2e>
                    initialize();
   b5db0:	6823      	ldr	r3, [r4, #0]
   b5db2:	4620      	mov	r0, r4
   b5db4:	699b      	ldr	r3, [r3, #24]
   b5db6:	4798      	blx	r3
            os_mutex_recursive_unlock(handle_); 
   b5db8:	6860      	ldr	r0, [r4, #4]
   b5dba:	f000 fed1 	bl	b6b60 <os_mutex_recursive_unlock>
        }
   b5dbe:	2001      	movs	r0, #1
   b5dc0:	bd38      	pop	{r3, r4, r5, pc}
	...

000b5dc4 <_ZN15StorageHelperRK18PersistentDataFRAMD1Ev>:
    class PersistentDataFRAM : public PersistentDataBase {
   b5dc4:	b510      	push	{r4, lr}
    class PersistentDataBase : public CustomRecursiveMutex {
   b5dc6:	4b04      	ldr	r3, [pc, #16]	; (b5dd8 <_ZN15StorageHelperRK18PersistentDataFRAMD1Ev+0x14>)
   b5dc8:	6003      	str	r3, [r0, #0]
    class PersistentDataFRAM : public PersistentDataBase {
   b5dca:	4604      	mov	r4, r0
            if (handle_) {
   b5dcc:	6840      	ldr	r0, [r0, #4]
   b5dce:	b108      	cbz	r0, b5dd4 <_ZN15StorageHelperRK18PersistentDataFRAMD1Ev+0x10>
                os_mutex_recursive_destroy(handle_);
   b5dd0:	f000 feb6 	bl	b6b40 <os_mutex_recursive_destroy>
    class PersistentDataFRAM : public PersistentDataBase {
   b5dd4:	4620      	mov	r0, r4
   b5dd6:	bd10      	pop	{r4, pc}
   b5dd8:	000bab30 	.word	0x000bab30

000b5ddc <_ZN17currentStatusDataD1Ev>:
currentStatusData::~currentStatusData() {
   b5ddc:	b510      	push	{r4, lr}
   b5dde:	4b03      	ldr	r3, [pc, #12]	; (b5dec <_ZN17currentStatusDataD1Ev+0x10>)
   b5de0:	6003      	str	r3, [r0, #0]
   b5de2:	4604      	mov	r4, r0
   b5de4:	f7ff ffee 	bl	b5dc4 <_ZN15StorageHelperRK18PersistentDataFRAMD1Ev>
}
   b5de8:	4620      	mov	r0, r4
   b5dea:	bd10      	pop	{r4, pc}
   b5dec:	000baa58 	.word	0x000baa58

000b5df0 <_ZN17currentStatusDataD0Ev>:
currentStatusData::~currentStatusData() {
   b5df0:	b510      	push	{r4, lr}
   b5df2:	4604      	mov	r4, r0
}
   b5df4:	f7ff fff2 	bl	b5ddc <_ZN17currentStatusDataD1Ev>
   b5df8:	4620      	mov	r0, r4
   b5dfa:	2160      	movs	r1, #96	; 0x60
   b5dfc:	f7fe f94d 	bl	b409a <_ZdlPvj>
   b5e00:	4620      	mov	r0, r4
   b5e02:	bd10      	pop	{r4, pc}

000b5e04 <_ZN10nodeIDDataD1Ev>:
nodeIDData::~nodeIDData() {
   b5e04:	b510      	push	{r4, lr}
   b5e06:	4b03      	ldr	r3, [pc, #12]	; (b5e14 <_ZN10nodeIDDataD1Ev+0x10>)
   b5e08:	6003      	str	r3, [r0, #0]
   b5e0a:	4604      	mov	r4, r0
   b5e0c:	f7ff ffda 	bl	b5dc4 <_ZN15StorageHelperRK18PersistentDataFRAMD1Ev>
}
   b5e10:	4620      	mov	r0, r4
   b5e12:	bd10      	pop	{r4, pc}
   b5e14:	000baa2c 	.word	0x000baa2c

000b5e18 <_ZN10nodeIDDataD0Ev>:
nodeIDData::~nodeIDData() {
   b5e18:	b510      	push	{r4, lr}
   b5e1a:	4604      	mov	r4, r0
}
   b5e1c:	f7ff fff2 	bl	b5e04 <_ZN10nodeIDDataD1Ev>
   b5e20:	4620      	mov	r0, r4
   b5e22:	f640 413c 	movw	r1, #3132	; 0xc3c
   b5e26:	f7fe f938 	bl	b409a <_ZdlPvj>
   b5e2a:	4620      	mov	r0, r4
   b5e2c:	bd10      	pop	{r4, pc}
	...

000b5e30 <_ZN17currentStatusDataC1Ev>:
currentStatusData::currentStatusData() : StorageHelperRK::PersistentDataFRAM(::fram, 100, &currentData.currentHeader, sizeof(CurrentData), CURRENT_DATA_MAGIC, CURRENT_DATA_VERSION) {
   b5e30:	f100 012c 	add.w	r1, r0, #44	; 0x2c
        CustomRecursiveMutex() : handle_(nullptr) {
   b5e34:	2200      	movs	r2, #0
            savedDataHeader(savedDataHeader), savedDataSize(savedDataSize), savedDataMagic(savedDataMagic), savedDataVersion(savedDataVersion)  {
   b5e36:	6081      	str	r1, [r0, #8]
   b5e38:	490a      	ldr	r1, [pc, #40]	; (b5e64 <_ZN17currentStatusDataC1Ev+0x34>)
        CustomRecursiveMutex() : handle_(nullptr) {
   b5e3a:	6042      	str	r2, [r0, #4]
            savedDataHeader(savedDataHeader), savedDataSize(savedDataSize), savedDataMagic(savedDataMagic), savedDataVersion(savedDataVersion)  {
   b5e3c:	f04f 0c34 	mov.w	ip, #52	; 0x34
   b5e40:	6182      	str	r2, [r0, #24]
   b5e42:	f880 2020 	strb.w	r2, [r0, #32]
            PersistentDataBase(savedDataHeader, savedDataSize, savedDataMagic, savedDataVersion), fram(fram), framOffset(framOffset) {
   b5e46:	4a08      	ldr	r2, [pc, #32]	; (b5e68 <_ZN17currentStatusDataC1Ev+0x38>)
   b5e48:	6242      	str	r2, [r0, #36]	; 0x24
            savedDataHeader(savedDataHeader), savedDataSize(savedDataSize), savedDataMagic(savedDataMagic), savedDataVersion(savedDataVersion)  {
   b5e4a:	e9c0 c103 	strd	ip, r1, [r0, #12]
            PersistentDataBase(savedDataHeader, savedDataSize, savedDataMagic, savedDataVersion), fram(fram), framOffset(framOffset) {
   b5e4e:	2264      	movs	r2, #100	; 0x64
            savedDataHeader(savedDataHeader), savedDataSize(savedDataSize), savedDataMagic(savedDataMagic), savedDataVersion(savedDataVersion)  {
   b5e50:	2103      	movs	r1, #3
   b5e52:	8281      	strh	r1, [r0, #20]
            PersistentDataBase(savedDataHeader, savedDataSize, savedDataMagic, savedDataVersion), fram(fram), framOffset(framOffset) {
   b5e54:	6282      	str	r2, [r0, #40]	; 0x28
            savedDataHeader(savedDataHeader), savedDataSize(savedDataSize), savedDataMagic(savedDataMagic), savedDataVersion(savedDataVersion)  {
   b5e56:	f44f 717a 	mov.w	r1, #1000	; 0x3e8
   b5e5a:	4a04      	ldr	r2, [pc, #16]	; (b5e6c <_ZN17currentStatusDataC1Ev+0x3c>)
   b5e5c:	61c1      	str	r1, [r0, #28]
   b5e5e:	6002      	str	r2, [r0, #0]
};
   b5e60:	4770      	bx	lr
   b5e62:	bf00      	nop
   b5e64:	20a99e80 	.word	0x20a99e80
   b5e68:	2003e620 	.word	0x2003e620
   b5e6c:	000baa58 	.word	0x000baa58

000b5e70 <_ZN17currentStatusData8instanceEv>:
currentStatusData &currentStatusData::instance() {
   b5e70:	b510      	push	{r4, lr}
    if (!_instance) {
   b5e72:	4c06      	ldr	r4, [pc, #24]	; (b5e8c <_ZN17currentStatusData8instanceEv+0x1c>)
   b5e74:	6823      	ldr	r3, [r4, #0]
   b5e76:	b93b      	cbnz	r3, b5e88 <_ZN17currentStatusData8instanceEv+0x18>
        _instance = new currentStatusData();
   b5e78:	2060      	movs	r0, #96	; 0x60
   b5e7a:	f7fe f90a 	bl	b4092 <_Znwj>
   b5e7e:	4603      	mov	r3, r0
   b5e80:	b108      	cbz	r0, b5e86 <_ZN17currentStatusData8instanceEv+0x16>
   b5e82:	f7ff ffd5 	bl	b5e30 <_ZN17currentStatusDataC1Ev>
   b5e86:	6023      	str	r3, [r4, #0]
}
   b5e88:	6820      	ldr	r0, [r4, #0]
   b5e8a:	bd10      	pop	{r4, pc}
   b5e8c:	2003e61c 	.word	0x2003e61c

000b5e90 <_ZN17currentStatusData5setupEv>:
void currentStatusData::setup() {
   b5e90:	b510      	push	{r4, lr}
    fram.begin();
   b5e92:	6a40      	ldr	r0, [r0, #36]	; 0x24
   b5e94:	f000 fa88 	bl	b63a8 <_ZN6MB85RC5beginEv>
    current
   b5e98:	f7ff ffea 	bl	b5e70 <_ZN17currentStatusData8instanceEv>
            saveDelayMs = value;
   b5e9c:	f44f 72fa 	mov.w	r2, #500	; 0x1f4
        .load();
   b5ea0:	6803      	ldr	r3, [r0, #0]
   b5ea2:	61c2      	str	r2, [r0, #28]
}
   b5ea4:	e8bd 4010 	ldmia.w	sp!, {r4, lr}
        .load();
   b5ea8:	685b      	ldr	r3, [r3, #4]
   b5eaa:	4718      	bx	r3

000b5eac <_ZNK17currentStatusData12get_uniqueIDEv>:
uint32_t currentStatusData::get_uniqueID() const {
   b5eac:	b538      	push	{r3, r4, r5, lr}
   b5eae:	4604      	mov	r4, r0
   b5eb0:	3004      	adds	r0, #4
   b5eb2:	f7ff ff4b 	bl	b5d4c <_ZNK15StorageHelperRK20CustomRecursiveMutex4lockEv>
                if (offset <= (savedDataSize - sizeof(T))) {
   b5eb6:	68e3      	ldr	r3, [r4, #12]
            os_mutex_recursive_unlock(handle_); 
   b5eb8:	6860      	ldr	r0, [r4, #4]
                if (offset <= (savedDataSize - sizeof(T))) {
   b5eba:	3b04      	subs	r3, #4
   b5ebc:	2b17      	cmp	r3, #23
                    result = *(const T *)p;
   b5ebe:	bf86      	itte	hi
   b5ec0:	68a3      	ldrhi	r3, [r4, #8]
   b5ec2:	699d      	ldrhi	r5, [r3, #24]
            T result = 0;
   b5ec4:	2500      	movls	r5, #0
            os_mutex_recursive_unlock(handle_); 
   b5ec6:	f000 fe4b 	bl	b6b60 <os_mutex_recursive_unlock>
}
   b5eca:	4628      	mov	r0, r5
   b5ecc:	bd38      	pop	{r3, r4, r5, pc}

000b5ece <_ZN17currentStatusData12set_uniqueIDEm>:
void currentStatusData::set_uniqueID(uint32_t value) {
   b5ece:	b538      	push	{r3, r4, r5, lr}
   b5ed0:	4604      	mov	r4, r0
   b5ed2:	3004      	adds	r0, #4
   b5ed4:	460d      	mov	r5, r1
   b5ed6:	f7ff ff39 	bl	b5d4c <_ZNK15StorageHelperRK20CustomRecursiveMutex4lockEv>
                if (offset <= (savedDataSize - sizeof(T))) {
   b5eda:	68e3      	ldr	r3, [r4, #12]
   b5edc:	3b04      	subs	r3, #4
   b5ede:	2b17      	cmp	r3, #23
   b5ee0:	d907      	bls.n	b5ef2 <_ZN17currentStatusData12set_uniqueIDEm+0x24>
                    uint8_t *p = (uint8_t *)savedDataHeader;
   b5ee2:	68a3      	ldr	r3, [r4, #8]
                    if (oldValue != value) {
   b5ee4:	699a      	ldr	r2, [r3, #24]
   b5ee6:	4295      	cmp	r5, r2
   b5ee8:	d003      	beq.n	b5ef2 <_ZN17currentStatusData12set_uniqueIDEm+0x24>
                        *(T *)p = value;
   b5eea:	619d      	str	r5, [r3, #24]
                        updateHash();
   b5eec:	4620      	mov	r0, r4
   b5eee:	f000 fc1b 	bl	b6728 <_ZN15StorageHelperRK18PersistentDataBase10updateHashEv>
            os_mutex_recursive_unlock(handle_); 
   b5ef2:	6860      	ldr	r0, [r4, #4]
}
   b5ef4:	e8bd 4038 	ldmia.w	sp!, {r3, r4, r5, lr}
   b5ef8:	f000 be32 	b.w	b6b60 <os_mutex_recursive_unlock>

000b5efc <_ZN17currentStatusData17set_stateOfChargeEa>:
void currentStatusData::set_stateOfCharge(int8_t value) {
   b5efc:	b538      	push	{r3, r4, r5, lr}
   b5efe:	4604      	mov	r4, r0
   b5f00:	3004      	adds	r0, #4
   b5f02:	460d      	mov	r5, r1
   b5f04:	f7ff ff22 	bl	b5d4c <_ZNK15StorageHelperRK20CustomRecursiveMutex4lockEv>
                if (offset <= (savedDataSize - sizeof(T))) {
   b5f08:	68e3      	ldr	r3, [r4, #12]
   b5f0a:	3b01      	subs	r3, #1
   b5f0c:	2b24      	cmp	r3, #36	; 0x24
   b5f0e:	d909      	bls.n	b5f24 <_ZN17currentStatusData17set_stateOfChargeEa+0x28>
                    uint8_t *p = (uint8_t *)savedDataHeader;
   b5f10:	68a3      	ldr	r3, [r4, #8]
                    if (oldValue != value) {
   b5f12:	f993 2025 	ldrsb.w	r2, [r3, #37]	; 0x25
   b5f16:	42aa      	cmp	r2, r5
   b5f18:	d004      	beq.n	b5f24 <_ZN17currentStatusData17set_stateOfChargeEa+0x28>
                        *(T *)p = value;
   b5f1a:	f883 5025 	strb.w	r5, [r3, #37]	; 0x25
                        updateHash();
   b5f1e:	4620      	mov	r0, r4
   b5f20:	f000 fc02 	bl	b6728 <_ZN15StorageHelperRK18PersistentDataBase10updateHashEv>
            os_mutex_recursive_unlock(handle_); 
   b5f24:	6860      	ldr	r0, [r4, #4]
}
   b5f26:	e8bd 4038 	ldmia.w	sp!, {r3, r4, r5, lr}
   b5f2a:	f000 be19 	b.w	b6b60 <os_mutex_recursive_unlock>
	...

000b5f30 <_ZN10nodeIDDataC1Ev>:
nodeIDData::nodeIDData() : StorageHelperRK::PersistentDataFRAM(::fram, 200, &nodeData.nodeHeader, sizeof(NodeData), NODEID_DATA_MAGIC, NODEID_DATA_VERSION) {
   b5f30:	f100 012c 	add.w	r1, r0, #44	; 0x2c
        CustomRecursiveMutex() : handle_(nullptr) {
   b5f34:	2200      	movs	r2, #0
            savedDataHeader(savedDataHeader), savedDataSize(savedDataSize), savedDataMagic(savedDataMagic), savedDataVersion(savedDataVersion)  {
   b5f36:	6081      	str	r1, [r0, #8]
   b5f38:	490a      	ldr	r1, [pc, #40]	; (b5f64 <_ZN10nodeIDDataC1Ev+0x34>)
        CustomRecursiveMutex() : handle_(nullptr) {
   b5f3a:	6042      	str	r2, [r0, #4]
            savedDataHeader(savedDataHeader), savedDataSize(savedDataSize), savedDataMagic(savedDataMagic), savedDataVersion(savedDataVersion)  {
   b5f3c:	f44f 6c41 	mov.w	ip, #3088	; 0xc10
   b5f40:	6182      	str	r2, [r0, #24]
   b5f42:	f880 2020 	strb.w	r2, [r0, #32]
            PersistentDataBase(savedDataHeader, savedDataSize, savedDataMagic, savedDataVersion), fram(fram), framOffset(framOffset) {
   b5f46:	4a08      	ldr	r2, [pc, #32]	; (b5f68 <_ZN10nodeIDDataC1Ev+0x38>)
   b5f48:	6242      	str	r2, [r0, #36]	; 0x24
            savedDataHeader(savedDataHeader), savedDataSize(savedDataSize), savedDataMagic(savedDataMagic), savedDataVersion(savedDataVersion)  {
   b5f4a:	e9c0 c103 	strd	ip, r1, [r0, #12]
            PersistentDataBase(savedDataHeader, savedDataSize, savedDataMagic, savedDataVersion), fram(fram), framOffset(framOffset) {
   b5f4e:	22c8      	movs	r2, #200	; 0xc8
            savedDataHeader(savedDataHeader), savedDataSize(savedDataSize), savedDataMagic(savedDataMagic), savedDataVersion(savedDataVersion)  {
   b5f50:	2102      	movs	r1, #2
   b5f52:	8281      	strh	r1, [r0, #20]
            PersistentDataBase(savedDataHeader, savedDataSize, savedDataMagic, savedDataVersion), fram(fram), framOffset(framOffset) {
   b5f54:	6282      	str	r2, [r0, #40]	; 0x28
            savedDataHeader(savedDataHeader), savedDataSize(savedDataSize), savedDataMagic(savedDataMagic), savedDataVersion(savedDataVersion)  {
   b5f56:	f44f 717a 	mov.w	r1, #1000	; 0x3e8
   b5f5a:	4a04      	ldr	r2, [pc, #16]	; (b5f6c <_ZN10nodeIDDataC1Ev+0x3c>)
   b5f5c:	61c1      	str	r1, [r0, #28]
   b5f5e:	6002      	str	r2, [r0, #0]
};
   b5f60:	4770      	bx	lr
   b5f62:	bf00      	nop
   b5f64:	20a99e60 	.word	0x20a99e60
   b5f68:	2003e620 	.word	0x2003e620
   b5f6c:	000baa2c 	.word	0x000baa2c

000b5f70 <_ZN10nodeIDData8instanceEv>:
nodeIDData &nodeIDData::instance() {
   b5f70:	b510      	push	{r4, lr}
    if (!_instance) {
   b5f72:	4c07      	ldr	r4, [pc, #28]	; (b5f90 <_ZN10nodeIDData8instanceEv+0x20>)
   b5f74:	6823      	ldr	r3, [r4, #0]
   b5f76:	b943      	cbnz	r3, b5f8a <_ZN10nodeIDData8instanceEv+0x1a>
        _instance = new nodeIDData();
   b5f78:	f640 403c 	movw	r0, #3132	; 0xc3c
   b5f7c:	f7fe f889 	bl	b4092 <_Znwj>
   b5f80:	4603      	mov	r3, r0
   b5f82:	b108      	cbz	r0, b5f88 <_ZN10nodeIDData8instanceEv+0x18>
   b5f84:	f7ff ffd4 	bl	b5f30 <_ZN10nodeIDDataC1Ev>
   b5f88:	6023      	str	r3, [r4, #0]
}
   b5f8a:	6820      	ldr	r0, [r4, #0]
   b5f8c:	bd10      	pop	{r4, pc}
   b5f8e:	bf00      	nop
   b5f90:	2003e618 	.word	0x2003e618

000b5f94 <_ZN10nodeIDData5setupEv>:
void nodeIDData::setup() {
   b5f94:	b510      	push	{r4, lr}
    fram.begin();
   b5f96:	6a40      	ldr	r0, [r0, #36]	; 0x24
   b5f98:	f000 fa06 	bl	b63a8 <_ZN6MB85RC5beginEv>
    nodeDatabase
   b5f9c:	f7ff ffe8 	bl	b5f70 <_ZN10nodeIDData8instanceEv>
            saveDelayMs = value;
   b5fa0:	f44f 72fa 	mov.w	r2, #500	; 0x1f4
        .load();
   b5fa4:	6803      	ldr	r3, [r0, #0]
   b5fa6:	61c2      	str	r2, [r0, #28]
}
   b5fa8:	e8bd 4010 	ldmia.w	sp!, {r4, lr}
        .load();
   b5fac:	685b      	ldr	r3, [r3, #4]
   b5fae:	4718      	bx	r3

000b5fb0 <_ZN10nodeIDData19nodeDataStorageSizeEv>:
}
   b5fb0:	f44f 6041 	mov.w	r0, #3088	; 0xc10
   b5fb4:	4770      	bx	lr
	...

000b5fb8 <_ZNK10nodeIDData14get_nodeIDJsonEv>:
    nodeIDData::resetNodeIDs();
    updateHash();                                       // If you manually update fields here, be sure to update the hash
}


String nodeIDData::get_nodeIDJson() const {
   b5fb8:	b538      	push	{r3, r4, r5, lr}
   b5fba:	4604      	mov	r4, r0
   b5fbc:	460d      	mov	r5, r1
	String result;
   b5fbe:	4906      	ldr	r1, [pc, #24]	; (b5fd8 <_ZNK10nodeIDData14get_nodeIDJsonEv+0x20>)
   b5fc0:	f002 ffbf 	bl	b8f42 <_ZN6StringC1EPK19__FlashStringHelper>
	getValueString(offsetof(NodeData, nodeIDJson), sizeof(NodeData::nodeIDJson), result);
   b5fc4:	4623      	mov	r3, r4
   b5fc6:	f44f 6240 	mov.w	r2, #3072	; 0xc00
   b5fca:	2110      	movs	r1, #16
   b5fcc:	4628      	mov	r0, r5
   b5fce:	f000 fb39 	bl	b6644 <_ZNK15StorageHelperRK18PersistentDataBase14getValueStringEjjR6String>
	return result;
}
   b5fd2:	4620      	mov	r0, r4
   b5fd4:	bd38      	pop	{r3, r4, r5, pc}
   b5fd6:	bf00      	nop
   b5fd8:	000bacc7 	.word	0x000bacc7

000b5fdc <_ZN10nodeIDData14set_nodeIDJsonEPKc>:

bool nodeIDData::set_nodeIDJson(const char* str) {
   b5fdc:	e92d 4ff0 	stmdb	sp!, {r4, r5, r6, r7, r8, r9, sl, fp, lr}
   b5fe0:	f5ad 7d21 	sub.w	sp, sp, #644	; 0x284
   b5fe4:	4680      	mov	r8, r0
   b5fe6:	460c      	mov	r4, r1
    static bool connected(void) { return spark_cloud_flag_connected(); }
   b5fe8:	f000 ff66 	bl	b6eb8 <spark_cloud_flag_connected>

    if (Particle.connected()) {
   b5fec:	b360      	cbz	r0, b6048 <_ZN10nodeIDData14set_nodeIDJsonEPKc+0x6c>
        const size_t maxChunkSize = 622; // max report size
        size_t messageLength = strlen(str);
   b5fee:	4620      	mov	r0, r4
   b5ff0:	f003 fd51 	bl	b9a96 <strlen>
            // Calculate chunk size for the current iteration
            size_t chunkSize = std::min(maxChunkSize, messageLength - offset);

            // Create a buffer for the current chunk
            char chunk[maxChunkSize + 1]; // +1 for null terminator
            snprintf(chunk, sizeof(chunk), "%.*s", static_cast<int>(chunkSize), str + offset);
   b5ff4:	f8df b0d0 	ldr.w	fp, [pc, #208]	; b60c8 <_ZN10nodeIDData14set_nodeIDJsonEPKc+0xec>
   b5ff8:	f8df a0d0 	ldr.w	sl, [pc, #208]	; b60cc <_ZN10nodeIDData14set_nodeIDJsonEPKc+0xf0>
        return publish_event(eventName, eventData, ttl, flags1 | flags2);
   b5ffc:	f8df 90d0 	ldr.w	r9, [pc, #208]	; b60d0 <_ZN10nodeIDData14set_nodeIDJsonEPKc+0xf4>
        size_t messageLength = strlen(str);
   b6000:	4607      	mov	r7, r0
        size_t offset = 0;
   b6002:	2500      	movs	r5, #0
        while (offset < messageLength) {
   b6004:	42bd      	cmp	r5, r7
   b6006:	d21f      	bcs.n	b6048 <_ZN10nodeIDData14set_nodeIDJsonEPKc+0x6c>
            size_t chunkSize = std::min(maxChunkSize, messageLength - offset);
   b6008:	1b7e      	subs	r6, r7, r5
      // concept requirements
      __glibcxx_function_requires(_LessThanComparableConcept<_Tp>)
      //return __b < __a ? __b : __a;
      if (__b < __a)
	return __b;
      return __a;
   b600a:	f240 226d 	movw	r2, #621	; 0x26d
   b600e:	f240 236e 	movw	r3, #622	; 0x26e
   b6012:	4296      	cmp	r6, r2
   b6014:	bf88      	it	hi
   b6016:	461e      	movhi	r6, r3
            snprintf(chunk, sizeof(chunk), "%.*s", static_cast<int>(chunkSize), str + offset);
   b6018:	1963      	adds	r3, r4, r5
   b601a:	9300      	str	r3, [sp, #0]
   b601c:	465a      	mov	r2, fp
   b601e:	4633      	mov	r3, r6
   b6020:	f240 216f 	movw	r1, #623	; 0x26f
   b6024:	a804      	add	r0, sp, #16
   b6026:	f000 ffe7 	bl	b6ff8 <snprintf>
inline particle::Flags<TagT, ValueT>::Flags(ValueT val) :
   b602a:	f89a 3000 	ldrb.w	r3, [sl]
   b602e:	f88d 3000 	strb.w	r3, [sp]
   b6032:	aa04      	add	r2, sp, #16
   b6034:	233c      	movs	r3, #60	; 0x3c
   b6036:	4649      	mov	r1, r9
   b6038:	a802      	add	r0, sp, #8
   b603a:	f001 f9f5 	bl	b7428 <_ZN10CloudClass13publish_eventEPKcS1_iN8particle5FlagsI15PublishFlagTypehEE>
   b603e:	a803      	add	r0, sp, #12
   b6040:	f7fe f910 	bl	b4264 <_ZNSt14__shared_countILN9__gnu_cxx12_Lock_policyE0EED1Ev>

            // Publish the current chunk
            Particle.publish("Node Database before set:", chunk, PRIVATE);

            // Move to the next chunk
            offset += chunkSize;
   b6044:	4435      	add	r5, r6
        while (offset < messageLength) {
   b6046:	e7dd      	b.n	b6004 <_ZN10nodeIDData14set_nodeIDJsonEPKc+0x28>
    // char cleanedJson[3072];
    // strcpy(cleanedJson, str);
    // cleanJSON(cleanedJson);

    // Set the cleaned JSON value
    bool result = setValueString(offsetof(NodeData, nodeIDJson), sizeof(NodeData::nodeIDJson), str);
   b6048:	4623      	mov	r3, r4
   b604a:	f44f 6240 	mov.w	r2, #3072	; 0xc00
   b604e:	2110      	movs	r1, #16
   b6050:	4640      	mov	r0, r8
   b6052:	f000 fb75 	bl	b6740 <_ZN15StorageHelperRK18PersistentDataBase14setValueStringEjjPKc>

    if (result && Particle.connected()) {
   b6056:	4607      	mov	r7, r0
   b6058:	b380      	cbz	r0, b60bc <_ZN10nodeIDData14set_nodeIDJsonEPKc+0xe0>
    static bool connected(void) { return spark_cloud_flag_connected(); }
   b605a:	f000 ff2d 	bl	b6eb8 <spark_cloud_flag_connected>
   b605e:	b368      	cbz	r0, b60bc <_ZN10nodeIDData14set_nodeIDJsonEPKc+0xe0>
        const size_t maxChunkSize = 622; // max report size
        size_t messageLength = strlen(str);
   b6060:	4620      	mov	r0, r4
   b6062:	f003 fd18 	bl	b9a96 <strlen>
            // Calculate chunk size for the current iteration
            size_t chunkSize = std::min(maxChunkSize, messageLength - offset);

            // Create a buffer for the current chunk
            char chunk[maxChunkSize + 1]; // +1 for null terminator
            snprintf(chunk, sizeof(chunk), "%.*s", static_cast<int>(chunkSize), str + offset);
   b6066:	f8df b060 	ldr.w	fp, [pc, #96]	; b60c8 <_ZN10nodeIDData14set_nodeIDJsonEPKc+0xec>
   b606a:	f8df a060 	ldr.w	sl, [pc, #96]	; b60cc <_ZN10nodeIDData14set_nodeIDJsonEPKc+0xf0>
        return publish_event(eventName, eventData, ttl, flags1 | flags2);
   b606e:	f8df 9064 	ldr.w	r9, [pc, #100]	; b60d4 <_ZN10nodeIDData14set_nodeIDJsonEPKc+0xf8>
        size_t messageLength = strlen(str);
   b6072:	4680      	mov	r8, r0
        size_t offset = 0;
   b6074:	2500      	movs	r5, #0
        while (offset < messageLength) {
   b6076:	4545      	cmp	r5, r8
   b6078:	d220      	bcs.n	b60bc <_ZN10nodeIDData14set_nodeIDJsonEPKc+0xe0>
            size_t chunkSize = std::min(maxChunkSize, messageLength - offset);
   b607a:	eba8 0605 	sub.w	r6, r8, r5
   b607e:	f240 226d 	movw	r2, #621	; 0x26d
   b6082:	f240 236e 	movw	r3, #622	; 0x26e
   b6086:	4296      	cmp	r6, r2
   b6088:	bf88      	it	hi
   b608a:	461e      	movhi	r6, r3
            snprintf(chunk, sizeof(chunk), "%.*s", static_cast<int>(chunkSize), str + offset);
   b608c:	1963      	adds	r3, r4, r5
   b608e:	9300      	str	r3, [sp, #0]
   b6090:	465a      	mov	r2, fp
   b6092:	4633      	mov	r3, r6
   b6094:	f240 216f 	movw	r1, #623	; 0x26f
   b6098:	a804      	add	r0, sp, #16
   b609a:	f000 ffad 	bl	b6ff8 <snprintf>
   b609e:	f89a 3000 	ldrb.w	r3, [sl]
   b60a2:	f88d 3000 	strb.w	r3, [sp]
   b60a6:	aa04      	add	r2, sp, #16
   b60a8:	233c      	movs	r3, #60	; 0x3c
   b60aa:	4649      	mov	r1, r9
   b60ac:	a802      	add	r0, sp, #8
   b60ae:	f001 f9bb 	bl	b7428 <_ZN10CloudClass13publish_eventEPKcS1_iN8particle5FlagsI15PublishFlagTypehEE>
   b60b2:	a803      	add	r0, sp, #12
   b60b4:	f7fe f8d6 	bl	b4264 <_ZNSt14__shared_countILN9__gnu_cxx12_Lock_policyE0EED1Ev>

            // Publish the current chunk
            Particle.publish("Node Database after set:", chunk, PRIVATE);

            // Move to the next chunk
            offset += chunkSize;
   b60b8:	4435      	add	r5, r6
        while (offset < messageLength) {
   b60ba:	e7dc      	b.n	b6076 <_ZN10nodeIDData14set_nodeIDJsonEPKc+0x9a>
        }
    }

    return result;
}
   b60bc:	4638      	mov	r0, r7
   b60be:	f50d 7d21 	add.w	sp, sp, #644	; 0x284
   b60c2:	e8bd 8ff0 	ldmia.w	sp!, {r4, r5, r6, r7, r8, r9, sl, fp, pc}
   b60c6:	bf00      	nop
   b60c8:	000ba968 	.word	0x000ba968
   b60cc:	2003e614 	.word	0x2003e614
   b60d0:	000ba96d 	.word	0x000ba96d
   b60d4:	000ba987 	.word	0x000ba987

000b60d8 <_ZN10nodeIDData12resetNodeIDsEv>:
void nodeIDData::resetNodeIDs() {
   b60d8:	b510      	push	{r4, lr}
    Log.info("Resettig NodeID config to: %s", blank.c_str());
   b60da:	4c14      	ldr	r4, [pc, #80]	; (b612c <_ZN10nodeIDData12resetNodeIDsEv+0x54>)
    String blank = "{\"nodes\":[]}";
   b60dc:	4914      	ldr	r1, [pc, #80]	; (b6130 <_ZN10nodeIDData12resetNodeIDsEv+0x58>)
void nodeIDData::resetNodeIDs() {
   b60de:	b088      	sub	sp, #32
    String blank = "{\"nodes\":[]}";
   b60e0:	4668      	mov	r0, sp
   b60e2:	f002 ff2e 	bl	b8f42 <_ZN6StringC1EPK19__FlashStringHelper>
    Log.info("Resettig NodeID config to: %s", blank.c_str());
   b60e6:	9a00      	ldr	r2, [sp, #0]
   b60e8:	4912      	ldr	r1, [pc, #72]	; (b6134 <_ZN10nodeIDData12resetNodeIDsEv+0x5c>)
   b60ea:	4620      	mov	r0, r4
   b60ec:	f7fe f83a 	bl	b4164 <_ZNK5spark6Logger4infoEPKcz>
    nodeDatabase.set_nodeIDJson(blank);
   b60f0:	f7ff ff3e 	bl	b5f70 <_ZN10nodeIDData8instanceEv>
   b60f4:	9900      	ldr	r1, [sp, #0]
   b60f6:	f7ff ff71 	bl	b5fdc <_ZN10nodeIDData14set_nodeIDJsonEPKc>
    nodeDatabase.flush(true);
   b60fa:	f7ff ff39 	bl	b5f70 <_ZN10nodeIDData8instanceEv>
   b60fe:	6803      	ldr	r3, [r0, #0]
   b6100:	2101      	movs	r1, #1
   b6102:	68db      	ldr	r3, [r3, #12]
   b6104:	4798      	blx	r3
    Log.info("NodeID data is now %s", nodeDatabase.get_nodeIDJson().c_str());
   b6106:	f7ff ff33 	bl	b5f70 <_ZN10nodeIDData8instanceEv>
   b610a:	4601      	mov	r1, r0
   b610c:	a804      	add	r0, sp, #16
   b610e:	f7ff ff53 	bl	b5fb8 <_ZNK10nodeIDData14get_nodeIDJsonEv>
   b6112:	9a04      	ldr	r2, [sp, #16]
   b6114:	4908      	ldr	r1, [pc, #32]	; (b6138 <_ZN10nodeIDData12resetNodeIDsEv+0x60>)
   b6116:	4620      	mov	r0, r4
   b6118:	f7fe f824 	bl	b4164 <_ZNK5spark6Logger4infoEPKcz>
   b611c:	a804      	add	r0, sp, #16
   b611e:	f002 fec5 	bl	b8eac <_ZN6StringD1Ev>
    String blank = "{\"nodes\":[]}";
   b6122:	4668      	mov	r0, sp
   b6124:	f002 fec2 	bl	b8eac <_ZN6StringD1Ev>
}
   b6128:	b008      	add	sp, #32
   b612a:	bd10      	pop	{r4, pc}
   b612c:	2003e6b0 	.word	0x2003e6b0
   b6130:	000ba9a0 	.word	0x000ba9a0
   b6134:	000ba9ad 	.word	0x000ba9ad
   b6138:	000ba9cb 	.word	0x000ba9cb

000b613c <_ZN10nodeIDData10initializeEv>:
void nodeIDData::initialize() {
   b613c:	b5f8      	push	{r3, r4, r5, r6, r7, lr}
    Log.info("Erasing FRAM region");
   b613e:	4910      	ldr	r1, [pc, #64]	; (b6180 <_ZN10nodeIDData10initializeEv+0x44>)
void nodeIDData::initialize() {
   b6140:	4604      	mov	r4, r0
    Log.info("Erasing FRAM region");
   b6142:	4810      	ldr	r0, [pc, #64]	; (b6184 <_ZN10nodeIDData10initializeEv+0x48>)
   b6144:	f7fe f80e 	bl	b4164 <_ZNK5spark6Logger4infoEPKcz>
   b6148:	25c8      	movs	r5, #200	; 0xc8
    for (unsigned int i=0; i < sizeof(NodeData); i++) {
   b614a:	f640 46d8 	movw	r6, #3288	; 0xcd8
        fram.writeData(i+200,(uint8_t *)0xFF,2);
   b614e:	6a60      	ldr	r0, [r4, #36]	; 0x24
   b6150:	6803      	ldr	r3, [r0, #0]
   b6152:	4629      	mov	r1, r5
   b6154:	68df      	ldr	r7, [r3, #12]
   b6156:	22ff      	movs	r2, #255	; 0xff
   b6158:	2302      	movs	r3, #2
    for (unsigned int i=0; i < sizeof(NodeData); i++) {
   b615a:	3501      	adds	r5, #1
        fram.writeData(i+200,(uint8_t *)0xFF,2);
   b615c:	47b8      	blx	r7
    for (unsigned int i=0; i < sizeof(NodeData); i++) {
   b615e:	42b5      	cmp	r5, r6
   b6160:	d1f5      	bne.n	b614e <_ZN10nodeIDData10initializeEv+0x12>
    Log.info("Initializing data");
   b6162:	4909      	ldr	r1, [pc, #36]	; (b6188 <_ZN10nodeIDData10initializeEv+0x4c>)
   b6164:	4807      	ldr	r0, [pc, #28]	; (b6184 <_ZN10nodeIDData10initializeEv+0x48>)
   b6166:	f7fd fffd 	bl	b4164 <_ZNK5spark6Logger4infoEPKcz>
    PersistentDataFRAM::initialize();
   b616a:	4620      	mov	r0, r4
   b616c:	f000 fb84 	bl	b6878 <_ZN15StorageHelperRK18PersistentDataBase10initializeEv>
    nodeIDData::resetNodeIDs();
   b6170:	4620      	mov	r0, r4
   b6172:	f7ff ffb1 	bl	b60d8 <_ZN10nodeIDData12resetNodeIDsEv>
    updateHash();                                       // If you manually update fields here, be sure to update the hash
   b6176:	4620      	mov	r0, r4
}
   b6178:	e8bd 40f8 	ldmia.w	sp!, {r3, r4, r5, r6, r7, lr}
    updateHash();                                       // If you manually update fields here, be sure to update the hash
   b617c:	f000 bad4 	b.w	b6728 <_ZN15StorageHelperRK18PersistentDataBase10updateHashEv>
   b6180:	000ba9e1 	.word	0x000ba9e1
   b6184:	2003e6b0 	.word	0x2003e6b0
   b6188:	000ba9f5 	.word	0x000ba9f5

000b618c <_ZNK15StorageHelperRK18PersistentDataBase8getValueIhEET_j>:
        T getValue(size_t offset) const {
   b618c:	b538      	push	{r3, r4, r5, lr}
   b618e:	4604      	mov	r4, r0
   b6190:	3004      	adds	r0, #4
   b6192:	460d      	mov	r5, r1
   b6194:	f7ff fdda 	bl	b5d4c <_ZNK15StorageHelperRK20CustomRecursiveMutex4lockEv>
                if (offset <= (savedDataSize - sizeof(T))) {
   b6198:	68e3      	ldr	r3, [r4, #12]
            os_mutex_recursive_unlock(handle_); 
   b619a:	6860      	ldr	r0, [r4, #4]
                if (offset <= (savedDataSize - sizeof(T))) {
   b619c:	3b01      	subs	r3, #1
   b619e:	42ab      	cmp	r3, r5
                    const uint8_t *p = (uint8_t *)savedDataHeader;
   b61a0:	bf26      	itte	cs
   b61a2:	68a3      	ldrcs	r3, [r4, #8]
                    result = *(const T *)p;
   b61a4:	5d5d      	ldrbcs	r5, [r3, r5]
            T result = 0;
   b61a6:	2500      	movcc	r5, #0
            os_mutex_recursive_unlock(handle_); 
   b61a8:	f000 fcda 	bl	b6b60 <os_mutex_recursive_unlock>
        }
   b61ac:	4628      	mov	r0, r5
   b61ae:	bd38      	pop	{r3, r4, r5, pc}

000b61b0 <_ZNK17currentStatusData14get_nodeNumberEv>:
uint8_t currentStatusData::get_nodeNumber() const {
   b61b0:	b508      	push	{r3, lr}
    return getValue<uint8_t>(offsetof(CurrentData, nodeNumber));
   b61b2:	2110      	movs	r1, #16
   b61b4:	f7ff ffea 	bl	b618c <_ZNK15StorageHelperRK18PersistentDataBase8getValueIhEET_j>
}
   b61b8:	bd08      	pop	{r3, pc}

000b61ba <_ZNK17currentStatusData12get_payload1Ev>:
uint8_t currentStatusData::get_payload1() const {
   b61ba:	b508      	push	{r3, lr}
    return getValue<uint8_t>(offsetof(CurrentData, payload1));
   b61bc:	211c      	movs	r1, #28
   b61be:	f7ff ffe5 	bl	b618c <_ZNK15StorageHelperRK18PersistentDataBase8getValueIhEET_j>
}
   b61c2:	bd08      	pop	{r3, pc}

000b61c4 <_ZNK17currentStatusData12get_payload2Ev>:
uint8_t currentStatusData::get_payload2() const {
   b61c4:	b508      	push	{r3, lr}
    return getValue<uint8_t>(offsetof(CurrentData, payload2));
   b61c6:	211d      	movs	r1, #29
   b61c8:	f7ff ffe0 	bl	b618c <_ZNK15StorageHelperRK18PersistentDataBase8getValueIhEET_j>
}
   b61cc:	bd08      	pop	{r3, pc}

000b61ce <_ZNK17currentStatusData12get_payload3Ev>:
uint8_t currentStatusData::get_payload3() const {
   b61ce:	b508      	push	{r3, lr}
    return getValue<uint8_t>(offsetof(CurrentData, payload3));
   b61d0:	211e      	movs	r1, #30
   b61d2:	f7ff ffdb 	bl	b618c <_ZNK15StorageHelperRK18PersistentDataBase8getValueIhEET_j>
}
   b61d6:	bd08      	pop	{r3, pc}

000b61d8 <_ZNK17currentStatusData12get_payload4Ev>:
uint8_t currentStatusData::get_payload4() const {
   b61d8:	b508      	push	{r3, lr}
    return getValue<uint8_t>(offsetof(CurrentData, payload4));
   b61da:	211f      	movs	r1, #31
   b61dc:	f7ff ffd6 	bl	b618c <_ZNK15StorageHelperRK18PersistentDataBase8getValueIhEET_j>
}
   b61e0:	bd08      	pop	{r3, pc}

000b61e2 <_ZN15StorageHelperRK18PersistentDataBase8setValueIhEEvjT_>:
        void setValue(size_t offset, T value)  {
   b61e2:	b570      	push	{r4, r5, r6, lr}
   b61e4:	4604      	mov	r4, r0
   b61e6:	3004      	adds	r0, #4
   b61e8:	460d      	mov	r5, r1
   b61ea:	4616      	mov	r6, r2
   b61ec:	f7ff fdae 	bl	b5d4c <_ZNK15StorageHelperRK20CustomRecursiveMutex4lockEv>
                if (offset <= (savedDataSize - sizeof(T))) {
   b61f0:	68e3      	ldr	r3, [r4, #12]
   b61f2:	3b01      	subs	r3, #1
   b61f4:	42ab      	cmp	r3, r5
   b61f6:	d307      	bcc.n	b6208 <_ZN15StorageHelperRK18PersistentDataBase8setValueIhEEvjT_+0x26>
                    uint8_t *p = (uint8_t *)savedDataHeader;
   b61f8:	68a3      	ldr	r3, [r4, #8]
                    if (oldValue != value) {
   b61fa:	5d5a      	ldrb	r2, [r3, r5]
   b61fc:	42b2      	cmp	r2, r6
   b61fe:	d003      	beq.n	b6208 <_ZN15StorageHelperRK18PersistentDataBase8setValueIhEEvjT_+0x26>
                        *(T *)p = value;
   b6200:	555e      	strb	r6, [r3, r5]
                        updateHash();
   b6202:	4620      	mov	r0, r4
   b6204:	f000 fa90 	bl	b6728 <_ZN15StorageHelperRK18PersistentDataBase10updateHashEv>
            os_mutex_recursive_unlock(handle_); 
   b6208:	6860      	ldr	r0, [r4, #4]
        }
   b620a:	e8bd 4070 	ldmia.w	sp!, {r4, r5, r6, lr}
            os_mutex_recursive_unlock(handle_); 
   b620e:	f000 bca7 	b.w	b6b60 <os_mutex_recursive_unlock>

000b6212 <_ZN17currentStatusData14set_sensorTypeEh>:
void currentStatusData::set_sensorType(uint8_t value) {
   b6212:	b508      	push	{r3, lr}
   b6214:	460a      	mov	r2, r1
    setValue<uint8_t>(offsetof(CurrentData, sensorType), value);
   b6216:	2114      	movs	r1, #20
   b6218:	f7ff ffe3 	bl	b61e2 <_ZN15StorageHelperRK18PersistentDataBase8setValueIhEEvjT_>
}
   b621c:	bd08      	pop	{r3, pc}

000b621e <_ZN17currentStatusData12set_payload1Eh>:
void currentStatusData::set_payload1(uint8_t value) {
   b621e:	b508      	push	{r3, lr}
   b6220:	460a      	mov	r2, r1
    setValue<uint8_t>(offsetof(CurrentData, payload1), value);
   b6222:	211c      	movs	r1, #28
   b6224:	f7ff ffdd 	bl	b61e2 <_ZN15StorageHelperRK18PersistentDataBase8setValueIhEEvjT_>
}   
   b6228:	bd08      	pop	{r3, pc}

000b622a <_ZN17currentStatusData12set_payload2Eh>:
void currentStatusData::set_payload2(uint8_t value) {
   b622a:	b508      	push	{r3, lr}
   b622c:	460a      	mov	r2, r1
    setValue<uint8_t>(offsetof(CurrentData, payload2), value);
   b622e:	211d      	movs	r1, #29
   b6230:	f7ff ffd7 	bl	b61e2 <_ZN15StorageHelperRK18PersistentDataBase8setValueIhEEvjT_>
}   
   b6234:	bd08      	pop	{r3, pc}

000b6236 <_ZN17currentStatusData12set_payload3Eh>:
void currentStatusData::set_payload3(uint8_t value) {
   b6236:	b508      	push	{r3, lr}
   b6238:	460a      	mov	r2, r1
    setValue<uint8_t>(offsetof(CurrentData, payload3), value);
   b623a:	211e      	movs	r1, #30
   b623c:	f7ff ffd1 	bl	b61e2 <_ZN15StorageHelperRK18PersistentDataBase8setValueIhEEvjT_>
}
   b6240:	bd08      	pop	{r3, pc}

000b6242 <_ZN17currentStatusData12set_payload4Eh>:
void currentStatusData::set_payload4(uint8_t value) {
   b6242:	b508      	push	{r3, lr}
   b6244:	460a      	mov	r2, r1
    setValue<uint8_t>(offsetof(CurrentData, payload4), value);
   b6246:	211f      	movs	r1, #31
   b6248:	f7ff ffcb 	bl	b61e2 <_ZN15StorageHelperRK18PersistentDataBase8setValueIhEEvjT_>
}   
   b624c:	bd08      	pop	{r3, pc}

000b624e <_ZN17currentStatusData12set_payload5Eh>:
void currentStatusData::set_payload5(uint8_t value) {
   b624e:	b508      	push	{r3, lr}
   b6250:	460a      	mov	r2, r1
    setValue<uint8_t>(offsetof(CurrentData, payload5), value);
   b6252:	2120      	movs	r1, #32
   b6254:	f7ff ffc5 	bl	b61e2 <_ZN15StorageHelperRK18PersistentDataBase8setValueIhEEvjT_>
}
   b6258:	bd08      	pop	{r3, pc}

000b625a <_ZN17currentStatusData12set_payload6Eh>:
void currentStatusData::set_payload6(uint8_t value) {
   b625a:	b508      	push	{r3, lr}
   b625c:	460a      	mov	r2, r1
    setValue<uint8_t>(offsetof(CurrentData, payload6), value);
   b625e:	2121      	movs	r1, #33	; 0x21
   b6260:	f7ff ffbf 	bl	b61e2 <_ZN15StorageHelperRK18PersistentDataBase8setValueIhEEvjT_>
}
   b6264:	bd08      	pop	{r3, pc}

000b6266 <_ZN17currentStatusData12set_payload7Eh>:
void currentStatusData::set_payload7(uint8_t value) {
   b6266:	b508      	push	{r3, lr}
   b6268:	460a      	mov	r2, r1
    setValue<uint8_t>(offsetof(CurrentData, payload7), value);
   b626a:	2122      	movs	r1, #34	; 0x22
   b626c:	f7ff ffb9 	bl	b61e2 <_ZN15StorageHelperRK18PersistentDataBase8setValueIhEEvjT_>
}
   b6270:	bd08      	pop	{r3, pc}

000b6272 <_ZN17currentStatusData12set_payload8Eh>:
void currentStatusData::set_payload8(uint8_t value) {
   b6272:	b508      	push	{r3, lr}
   b6274:	460a      	mov	r2, r1
    setValue<uint8_t>(offsetof(CurrentData, payload8), value);
   b6276:	2123      	movs	r1, #35	; 0x23
   b6278:	f7ff ffb3 	bl	b61e2 <_ZN15StorageHelperRK18PersistentDataBase8setValueIhEEvjT_>
}
   b627c:	bd08      	pop	{r3, pc}

000b627e <_ZN17currentStatusData17set_internalTempCEh>:
void currentStatusData::set_internalTempC(uint8_t value) {
   b627e:	b508      	push	{r3, lr}
   b6280:	460a      	mov	r2, r1
    setValue<uint8_t>(offsetof(CurrentData, internalTempC), value);
   b6282:	2124      	movs	r1, #36	; 0x24
   b6284:	f7ff ffad 	bl	b61e2 <_ZN15StorageHelperRK18PersistentDataBase8setValueIhEEvjT_>
}
   b6288:	bd08      	pop	{r3, pc}

000b628a <_ZN17currentStatusData16set_batteryStateEh>:
void currentStatusData::set_batteryState(uint8_t value) {
   b628a:	b508      	push	{r3, lr}
   b628c:	460a      	mov	r2, r1
    setValue<uint8_t>(offsetof(CurrentData, batteryState), value);
   b628e:	2126      	movs	r1, #38	; 0x26
   b6290:	f7ff ffa7 	bl	b61e2 <_ZN15StorageHelperRK18PersistentDataBase8setValueIhEEvjT_>
}
   b6294:	bd08      	pop	{r3, pc}

000b6296 <_ZN17currentStatusData14set_resetCountEh>:
void currentStatusData::set_resetCount(uint8_t value) {
   b6296:	b508      	push	{r3, lr}
   b6298:	460a      	mov	r2, r1
    setValue<uint8_t>(offsetof(CurrentData, resetCount), value);
   b629a:	2127      	movs	r1, #39	; 0x27
   b629c:	f7ff ffa1 	bl	b61e2 <_ZN15StorageHelperRK18PersistentDataBase8setValueIhEEvjT_>
}
   b62a0:	bd08      	pop	{r3, pc}

000b62a2 <_ZN17currentStatusData17set_alertCodeNodeEh>:
void currentStatusData::set_alertCodeNode(uint8_t value) {
   b62a2:	b508      	push	{r3, lr}
   b62a4:	460a      	mov	r2, r1
    setValue<uint8_t>(offsetof(CurrentData, alertCodeNode), value);
   b62a6:	212c      	movs	r1, #44	; 0x2c
   b62a8:	f7ff ff9b 	bl	b61e2 <_ZN15StorageHelperRK18PersistentDataBase8setValueIhEEvjT_>
}
   b62ac:	bd08      	pop	{r3, pc}

000b62ae <_ZN17currentStatusData14set_retryCountEh>:
void currentStatusData::set_retryCount(uint8_t value) {
   b62ae:	b508      	push	{r3, lr}
   b62b0:	460a      	mov	r2, r1
    setValue<uint8_t>(offsetof(CurrentData, retryCount), value);
   b62b2:	2130      	movs	r1, #48	; 0x30
   b62b4:	f7ff ff95 	bl	b61e2 <_ZN15StorageHelperRK18PersistentDataBase8setValueIhEEvjT_>
}
   b62b8:	bd08      	pop	{r3, pc}

000b62ba <_ZN17currentStatusData23set_retransmissionDelayEh>:
void currentStatusData::set_retransmissionDelay(uint8_t value) {
   b62ba:	b508      	push	{r3, lr}
   b62bc:	460a      	mov	r2, r1
    setValue<uint8_t>(offsetof(CurrentData, retransmissionDelay), value);
   b62be:	2131      	movs	r1, #49	; 0x31
   b62c0:	f7ff ff8f 	bl	b61e2 <_ZN15StorageHelperRK18PersistentDataBase8setValueIhEEvjT_>
}
   b62c4:	bd08      	pop	{r3, pc}

000b62c6 <_ZN15StorageHelperRK18PersistentDataBase8setValueItEEvjT_>:
        void setValue(size_t offset, T value)  {
   b62c6:	b570      	push	{r4, r5, r6, lr}
   b62c8:	4604      	mov	r4, r0
   b62ca:	3004      	adds	r0, #4
   b62cc:	460d      	mov	r5, r1
   b62ce:	4616      	mov	r6, r2
   b62d0:	f7ff fd3c 	bl	b5d4c <_ZNK15StorageHelperRK20CustomRecursiveMutex4lockEv>
                if (offset <= (savedDataSize - sizeof(T))) {
   b62d4:	68e3      	ldr	r3, [r4, #12]
   b62d6:	3b02      	subs	r3, #2
   b62d8:	42ab      	cmp	r3, r5
   b62da:	d307      	bcc.n	b62ec <_ZN15StorageHelperRK18PersistentDataBase8setValueItEEvjT_+0x26>
                    uint8_t *p = (uint8_t *)savedDataHeader;
   b62dc:	68a3      	ldr	r3, [r4, #8]
                    if (oldValue != value) {
   b62de:	5b5a      	ldrh	r2, [r3, r5]
   b62e0:	42b2      	cmp	r2, r6
   b62e2:	d003      	beq.n	b62ec <_ZN15StorageHelperRK18PersistentDataBase8setValueItEEvjT_+0x26>
                        *(T *)p = value;
   b62e4:	535e      	strh	r6, [r3, r5]
                        updateHash();
   b62e6:	4620      	mov	r0, r4
   b62e8:	f000 fa1e 	bl	b6728 <_ZN15StorageHelperRK18PersistentDataBase10updateHashEv>
            os_mutex_recursive_unlock(handle_); 
   b62ec:	6860      	ldr	r0, [r4, #4]
        }
   b62ee:	e8bd 4070 	ldmia.w	sp!, {r4, r5, r6, lr}
            os_mutex_recursive_unlock(handle_); 
   b62f2:	f000 bc35 	b.w	b6b60 <os_mutex_recursive_unlock>

000b62f6 <_ZN17currentStatusData9set_tokenEt>:
void currentStatusData::set_token(uint16_t value) {
   b62f6:	b508      	push	{r3, lr}
   b62f8:	460a      	mov	r2, r1
    setValue<uint16_t>(offsetof(CurrentData, token), value);
   b62fa:	2112      	movs	r1, #18
   b62fc:	f7ff ffe3 	bl	b62c6 <_ZN15StorageHelperRK18PersistentDataBase8setValueItEEvjT_>
}
   b6300:	bd08      	pop	{r3, pc}

000b6302 <_ZN15StorageHelperRK18PersistentDataBase8setValueIsEEvjT_>:
        void setValue(size_t offset, T value)  {
   b6302:	b570      	push	{r4, r5, r6, lr}
   b6304:	4604      	mov	r4, r0
   b6306:	3004      	adds	r0, #4
   b6308:	460d      	mov	r5, r1
   b630a:	4616      	mov	r6, r2
   b630c:	f7ff fd1e 	bl	b5d4c <_ZNK15StorageHelperRK20CustomRecursiveMutex4lockEv>
                if (offset <= (savedDataSize - sizeof(T))) {
   b6310:	68e3      	ldr	r3, [r4, #12]
   b6312:	3b02      	subs	r3, #2
   b6314:	42ab      	cmp	r3, r5
   b6316:	d307      	bcc.n	b6328 <_ZN15StorageHelperRK18PersistentDataBase8setValueIsEEvjT_+0x26>
                    uint8_t *p = (uint8_t *)savedDataHeader;
   b6318:	68a3      	ldr	r3, [r4, #8]
                    if (oldValue != value) {
   b631a:	5f5a      	ldrsh	r2, [r3, r5]
   b631c:	42b2      	cmp	r2, r6
   b631e:	d003      	beq.n	b6328 <_ZN15StorageHelperRK18PersistentDataBase8setValueIsEEvjT_+0x26>
                        *(T *)p = value;
   b6320:	535e      	strh	r6, [r3, r5]
                        updateHash();
   b6322:	4620      	mov	r0, r4
   b6324:	f000 fa00 	bl	b6728 <_ZN15StorageHelperRK18PersistentDataBase10updateHashEv>
            os_mutex_recursive_unlock(handle_); 
   b6328:	6860      	ldr	r0, [r4, #4]
        }
   b632a:	e8bd 4070 	ldmia.w	sp!, {r4, r5, r6, lr}
            os_mutex_recursive_unlock(handle_); 
   b632e:	f000 bc17 	b.w	b6b60 <os_mutex_recursive_unlock>

000b6332 <_ZN17currentStatusData8set_RSSIEs>:
void currentStatusData::set_RSSI(int16_t value) {
   b6332:	b508      	push	{r3, lr}
   b6334:	460a      	mov	r2, r1
    setValue<int16_t>(offsetof(CurrentData, RSSI), value);
   b6336:	2128      	movs	r1, #40	; 0x28
   b6338:	f7ff ffe3 	bl	b6302 <_ZN15StorageHelperRK18PersistentDataBase8setValueIsEEvjT_>
}
   b633c:	bd08      	pop	{r3, pc}

000b633e <_ZN17currentStatusData7set_SNREs>:
void currentStatusData::set_SNR(int16_t value) {
   b633e:	b508      	push	{r3, lr}
   b6340:	460a      	mov	r2, r1
    setValue<int16_t>(offsetof(CurrentData, SNR), value);
   b6342:	212a      	movs	r1, #42	; 0x2a
   b6344:	f7ff ffdd 	bl	b6302 <_ZN15StorageHelperRK18PersistentDataBase8setValueIsEEvjT_>
}
   b6348:	bd08      	pop	{r3, pc}
	...

000b634c <_GLOBAL__sub_I_fram>:
        val_(val) {
   b634c:	4b08      	ldr	r3, [pc, #32]	; (b6370 <_GLOBAL__sub_I_fram+0x24>)
   b634e:	2201      	movs	r2, #1
    // Null-terminate the withoutDoubleCommas array
    withoutDoubleCommas[j] = '\0';

    // Copy the cleaned JSON back to the original string
    strcpy(jsonString, withoutDoubleCommas);
   b6350:	b510      	push	{r4, lr}
   b6352:	701a      	strb	r2, [r3, #0]
MB85RC64 fram(Wire, 0);
   b6354:	f003 f886 	bl	b9464 <_Z19__fetch_global_Wirev>
	 *
	 * @param addr The address 0-7 based on the setting of A0, A1 and A2.
	 *
	 * You typically create one of these objects as a global variable.
	 */
	MB85RC64(TwoWire &wire, int addr = 0) : MB85RC(wire, 8192, addr) {};
   b6358:	4c06      	ldr	r4, [pc, #24]	; (b6374 <_GLOBAL__sub_I_fram+0x28>)
   b635a:	4601      	mov	r1, r0
   b635c:	2300      	movs	r3, #0
   b635e:	f44f 5200 	mov.w	r2, #8192	; 0x2000
   b6362:	4620      	mov	r0, r4
   b6364:	f000 f816 	bl	b6394 <_ZN6MB85RCC1ER7TwoWireji>
   b6368:	4b03      	ldr	r3, [pc, #12]	; (b6378 <_GLOBAL__sub_I_fram+0x2c>)
   b636a:	6023      	str	r3, [r4, #0]
   b636c:	bd10      	pop	{r4, pc}
   b636e:	bf00      	nop
   b6370:	2003e614 	.word	0x2003e614
   b6374:	2003e620 	.word	0x2003e620
   b6378:	000baa10 	.word	0x000baa10

000b637c <_ZN6MB85RCD1Ev>:
MB85RC::MB85RC(TwoWire &wire, size_t memorySize, int addr) :
	wire(wire), memorySize(memorySize), addr(addr) {
}

MB85RC::~MB85RC() {
}
   b637c:	4770      	bx	lr

000b637e <_ZN6MB85RCD0Ev>:
MB85RC::~MB85RC() {
   b637e:	b510      	push	{r4, lr}
}
   b6380:	2110      	movs	r1, #16
MB85RC::~MB85RC() {
   b6382:	4604      	mov	r4, r0
}
   b6384:	f7fd fe89 	bl	b409a <_ZdlPvj>
   b6388:	4620      	mov	r0, r4
   b638a:	bd10      	pop	{r4, pc}

000b638c <_ZN7TwoWire5writeEj>:
  bool lock();
  bool unlock();

  inline size_t write(unsigned long n) { return write((uint8_t)n); }
  inline size_t write(long n) { return write((uint8_t)n); }
  inline size_t write(unsigned int n) { return write((uint8_t)n); }
   b638c:	6803      	ldr	r3, [r0, #0]
   b638e:	b2c9      	uxtb	r1, r1
   b6390:	689b      	ldr	r3, [r3, #8]
   b6392:	4718      	bx	r3

000b6394 <_ZN6MB85RCC1ER7TwoWireji>:
MB85RC::MB85RC(TwoWire &wire, size_t memorySize, int addr) :
   b6394:	b530      	push	{r4, r5, lr}
	wire(wire), memorySize(memorySize), addr(addr) {
   b6396:	4d03      	ldr	r5, [pc, #12]	; (b63a4 <_ZN6MB85RCC1ER7TwoWireji+0x10>)
   b6398:	e9c0 2302 	strd	r2, r3, [r0, #8]
   b639c:	e9c0 5100 	strd	r5, r1, [r0]
}
   b63a0:	bd30      	pop	{r4, r5, pc}
   b63a2:	bf00      	nop
   b63a4:	000baa84 	.word	0x000baa84

000b63a8 <_ZN6MB85RC5beginEv>:

void MB85RC::begin() {
	wire.begin();
   b63a8:	6840      	ldr	r0, [r0, #4]
   b63aa:	f001 ba31 	b.w	b7810 <_ZN7TwoWire5beginEv>

000b63ae <_ZNSt10lock_guardIR7TwoWireED1Ev>:

      lock_guard(mutex_type& __m, adopt_lock_t) noexcept : _M_device(__m)
      { } // calling thread owns mutex

      ~lock_guard()
   b63ae:	b510      	push	{r4, lr}
   b63b0:	4604      	mov	r4, r0
      { _M_device.unlock(); }
   b63b2:	6800      	ldr	r0, [r0, #0]
   b63b4:	f001 fa6f 	bl	b7896 <_ZN7TwoWire6unlockEv>
   b63b8:	4620      	mov	r0, r4
   b63ba:	bd10      	pop	{r4, pc}

000b63bc <_ZN6MB85RC8readDataEjPhj>:

	return true;
}


bool MB85RC::readData(size_t framAddr, uint8_t *data, size_t dataLen) {
   b63bc:	e92d 43f7 	stmdb	sp!, {r0, r1, r2, r4, r5, r6, r7, r8, r9, lr}
   b63c0:	4604      	mov	r4, r0
	bool result = true;

	WITH_LOCK(wire) {
   b63c2:	6840      	ldr	r0, [r0, #4]
      explicit lock_guard(mutex_type& __m) : _M_device(__m)
   b63c4:	9001      	str	r0, [sp, #4]
bool MB85RC::readData(size_t framAddr, uint8_t *data, size_t dataLen) {
   b63c6:	460d      	mov	r5, r1
   b63c8:	4616      	mov	r6, r2
   b63ca:	461f      	mov	r7, r3
      { _M_device.lock(); }
   b63cc:	f001 fa5a 	bl	b7884 <_ZN7TwoWire4lockEv>

		while(dataLen > 0) {
   b63d0:	b1a7      	cbz	r7, b63fc <_ZN6MB85RC8readDataEjPhj+0x40>
			wire.beginTransmission(addr | DEVICE_ADDR);
   b63d2:	68e1      	ldr	r1, [r4, #12]
   b63d4:	6860      	ldr	r0, [r4, #4]
   b63d6:	f041 0150 	orr.w	r1, r1, #80	; 0x50
   b63da:	f001 fa4c 	bl	b7876 <_ZN7TwoWire17beginTransmissionEi>
			wire.write(framAddr >> 8);
   b63de:	0a29      	lsrs	r1, r5, #8
   b63e0:	6860      	ldr	r0, [r4, #4]
   b63e2:	f7ff ffd3 	bl	b638c <_ZN7TwoWire5writeEj>
			wire.write(framAddr);
   b63e6:	4629      	mov	r1, r5
   b63e8:	6860      	ldr	r0, [r4, #4]
   b63ea:	f7ff ffcf 	bl	b638c <_ZN7TwoWire5writeEj>
			int stat = wire.endTransmission(false);
   b63ee:	6860      	ldr	r0, [r4, #4]
   b63f0:	2100      	movs	r1, #0
   b63f2:	f001 fa43 	bl	b787c <_ZN7TwoWire15endTransmissionEh>
			if (stat != 0) {
   b63f6:	b148      	cbz	r0, b640c <_ZN6MB85RC8readDataEjPhj+0x50>
				//Serial.printlnf("read set address failed %d", stat);
				result = false;
   b63f8:	2400      	movs	r4, #0
   b63fa:	e000      	b.n	b63fe <_ZN6MB85RC8readDataEjPhj+0x42>
   b63fc:	2401      	movs	r4, #1
	WITH_LOCK(wire) {
   b63fe:	a801      	add	r0, sp, #4
   b6400:	f7ff ffd5 	bl	b63ae <_ZNSt10lock_guardIR7TwoWireED1Ev>
				dataLen--;
			}
		}
	}
	return result;
}
   b6404:	4620      	mov	r0, r4
   b6406:	b003      	add	sp, #12
   b6408:	e8bd 83f0 	ldmia.w	sp!, {r4, r5, r6, r7, r8, r9, pc}
			if (bytesToRead > 32) {
   b640c:	2f20      	cmp	r7, #32
			wire.requestFrom((uint8_t)(addr | DEVICE_ADDR), bytesToRead, (uint8_t) true);
   b640e:	7b21      	ldrb	r1, [r4, #12]
   b6410:	6860      	ldr	r0, [r4, #4]
   b6412:	46b8      	mov	r8, r7
   b6414:	bf28      	it	cs
   b6416:	f04f 0820 	movcs.w	r8, #32
   b641a:	2301      	movs	r3, #1
   b641c:	4642      	mov	r2, r8
   b641e:	f041 0150 	orr.w	r1, r1, #80	; 0x50
   b6422:	f001 fa12 	bl	b784a <_ZN7TwoWire11requestFromEhjh>
			if (Wire.available() < (int) bytesToRead) {
   b6426:	f003 f81d 	bl	b9464 <_Z19__fetch_global_Wirev>
   b642a:	6803      	ldr	r3, [r0, #0]
   b642c:	691b      	ldr	r3, [r3, #16]
   b642e:	4798      	blx	r3
   b6430:	4540      	cmp	r0, r8
   b6432:	dbe1      	blt.n	b63f8 <_ZN6MB85RC8readDataEjPhj+0x3c>
   b6434:	eb06 0908 	add.w	r9, r6, r8
				*data++ = Wire.read();    // receive a byte as character
   b6438:	f003 f814 	bl	b9464 <_Z19__fetch_global_Wirev>
   b643c:	6803      	ldr	r3, [r0, #0]
   b643e:	695b      	ldr	r3, [r3, #20]
   b6440:	4798      	blx	r3
   b6442:	f806 0b01 	strb.w	r0, [r6], #1
			for(size_t ii = 0; ii < bytesToRead; ii++) {
   b6446:	454e      	cmp	r6, r9
   b6448:	d1f6      	bne.n	b6438 <_ZN6MB85RC8readDataEjPhj+0x7c>
				framAddr++;
   b644a:	4445      	add	r5, r8
				dataLen--;
   b644c:	eba7 0708 	sub.w	r7, r7, r8
   b6450:	e7be      	b.n	b63d0 <_ZN6MB85RC8readDataEjPhj+0x14>

000b6452 <_ZN6MB85RC9writeDataEjPKhj>:


bool MB85RC::writeData(size_t framAddr, const uint8_t *data, size_t dataLen) {
   b6452:	e92d 4ff7 	stmdb	sp!, {r0, r1, r2, r4, r5, r6, r7, r8, r9, sl, fp, lr}
   b6456:	4604      	mov	r4, r0
	bool result = true;

	WITH_LOCK(wire) {
   b6458:	6840      	ldr	r0, [r0, #4]
      explicit lock_guard(mutex_type& __m) : _M_device(__m)
   b645a:	9001      	str	r0, [sp, #4]
bool MB85RC::writeData(size_t framAddr, const uint8_t *data, size_t dataLen) {
   b645c:	460e      	mov	r6, r1
   b645e:	4690      	mov	r8, r2
   b6460:	461d      	mov	r5, r3
      { _M_device.lock(); }
   b6462:	f001 fa0f 	bl	b7884 <_ZN7TwoWire4lockEv>
   b6466:	f04f 0901 	mov.w	r9, #1
	WITH_LOCK(wire) {
   b646a:	f1b9 0f00 	cmp.w	r9, #0
   b646e:	d02a      	beq.n	b64c6 <_ZN6MB85RC9writeDataEjPKhj+0x74>
		while(dataLen > 0) {
   b6470:	b34d      	cbz	r5, b64c6 <_ZN6MB85RC9writeDataEjPKhj+0x74>
			wire.beginTransmission(addr | DEVICE_ADDR);
   b6472:	68e1      	ldr	r1, [r4, #12]
   b6474:	6860      	ldr	r0, [r4, #4]
   b6476:	f041 0150 	orr.w	r1, r1, #80	; 0x50
   b647a:	f001 f9fc 	bl	b7876 <_ZN7TwoWire17beginTransmissionEi>
			wire.write(framAddr >> 8);
   b647e:	0a31      	lsrs	r1, r6, #8
   b6480:	6860      	ldr	r0, [r4, #4]
   b6482:	f7ff ff83 	bl	b638c <_ZN7TwoWire5writeEj>
			wire.write(framAddr);
   b6486:	6860      	ldr	r0, [r4, #4]
   b6488:	4631      	mov	r1, r6
   b648a:	f7ff ff7f 	bl	b638c <_ZN7TwoWire5writeEj>

			for(size_t ii = 0; ii < 30 && dataLen > 0; ii++) {
   b648e:	f1a5 0a1e 	sub.w	sl, r5, #30
			wire.write(framAddr);
   b6492:	4647      	mov	r7, r8
   b6494:	eba6 0b08 	sub.w	fp, r6, r8
				wire.write(*data);
   b6498:	6860      	ldr	r0, [r4, #4]
   b649a:	f817 1b01 	ldrb.w	r1, [r7], #1
   b649e:	6803      	ldr	r3, [r0, #0]
				framAddr++;
				data++;
				dataLen--;
   b64a0:	3d01      	subs	r5, #1
				wire.write(*data);
   b64a2:	689b      	ldr	r3, [r3, #8]
   b64a4:	4798      	blx	r3
			for(size_t ii = 0; ii < 30 && dataLen > 0; ii++) {
   b64a6:	4555      	cmp	r5, sl
   b64a8:	eb0b 0607 	add.w	r6, fp, r7
				data++;
   b64ac:	46b8      	mov	r8, r7
			for(size_t ii = 0; ii < 30 && dataLen > 0; ii++) {
   b64ae:	d001      	beq.n	b64b4 <_ZN6MB85RC9writeDataEjPKhj+0x62>
   b64b0:	2d00      	cmp	r5, #0
   b64b2:	d1f1      	bne.n	b6498 <_ZN6MB85RC9writeDataEjPKhj+0x46>
			}

			int stat = wire.endTransmission(true);
   b64b4:	6860      	ldr	r0, [r4, #4]
   b64b6:	2101      	movs	r1, #1
   b64b8:	f001 f9e0 	bl	b787c <_ZN7TwoWire15endTransmissionEh>
			if (stat != 0) {
   b64bc:	2800      	cmp	r0, #0
   b64be:	d0d7      	beq.n	b6470 <_ZN6MB85RC9writeDataEjPKhj+0x1e>
				//Serial.printlnf("write failed %d", stat);
				result = false;
   b64c0:	f04f 0900 	mov.w	r9, #0
   b64c4:	e7d1      	b.n	b646a <_ZN6MB85RC9writeDataEjPKhj+0x18>
	WITH_LOCK(wire) {
   b64c6:	a801      	add	r0, sp, #4
   b64c8:	f7ff ff71 	bl	b63ae <_ZNSt10lock_guardIR7TwoWireED1Ev>
				break;
			}
		}
	}
	return result;
}
   b64cc:	4648      	mov	r0, r9
   b64ce:	b003      	add	sp, #12
   b64d0:	e8bd 8ff0 	ldmia.w	sp!, {r4, r5, r6, r7, r8, r9, sl, fp, pc}

000b64d4 <_ZN6MB85RC8moveDataEjjj>:


bool MB85RC::moveData(size_t framAddrFrom, size_t framAddrTo, size_t numBytes) {
   b64d4:	e92d 43f0 	stmdb	sp!, {r4, r5, r6, r7, r8, r9, lr}
   b64d8:	b08b      	sub	sp, #44	; 0x2c
   b64da:	460e      	mov	r6, r1
   b64dc:	4615      	mov	r5, r2
   b64de:	4680      	mov	r8, r0
	bool result = true;

	// Maximum number of bytes we can write is 30
	uint8_t buf[30];

	WITH_LOCK(wire) {
   b64e0:	6840      	ldr	r0, [r0, #4]
      explicit lock_guard(mutex_type& __m) : _M_device(__m)
   b64e2:	9001      	str	r0, [sp, #4]
bool MB85RC::moveData(size_t framAddrFrom, size_t framAddrTo, size_t numBytes) {
   b64e4:	461c      	mov	r4, r3
      { _M_device.lock(); }
   b64e6:	f001 f9cd 	bl	b7884 <_ZN7TwoWire4lockEv>
		if (framAddrFrom < framAddrTo) {
   b64ea:	42ae      	cmp	r6, r5
   b64ec:	d229      	bcs.n	b6542 <_ZN6MB85RC8moveDataEjjj+0x6e>
			// Moving to a higher address - copy from the end of the from buffer
			framAddrFrom += numBytes;
   b64ee:	4426      	add	r6, r4
			framAddrTo += numBytes;
   b64f0:	4425      	add	r5, r4
			while(numBytes > 0) {
   b64f2:	b18c      	cbz	r4, b6518 <_ZN6MB85RC8moveDataEjjj+0x44>
				size_t count = numBytes;
				if (count > sizeof(buf)) {
   b64f4:	2c1e      	cmp	r4, #30
   b64f6:	4627      	mov	r7, r4
					count = sizeof(buf);
				}
				framAddrFrom -= count;
				framAddrTo -= count;

				result = readData(framAddrFrom, buf, count);
   b64f8:	f8d8 3000 	ldr.w	r3, [r8]
   b64fc:	bf28      	it	cs
   b64fe:	271e      	movcs	r7, #30
				framAddrFrom -= count;
   b6500:	1bf6      	subs	r6, r6, r7
				result = readData(framAddrFrom, buf, count);
   b6502:	f8d3 9008 	ldr.w	r9, [r3, #8]
   b6506:	aa02      	add	r2, sp, #8
   b6508:	463b      	mov	r3, r7
   b650a:	4631      	mov	r1, r6
   b650c:	4640      	mov	r0, r8
				framAddrTo -= count;
   b650e:	1bed      	subs	r5, r5, r7
				result = readData(framAddrFrom, buf, count);
   b6510:	47c8      	blx	r9
				if (!result) {
   b6512:	b948      	cbnz	r0, b6528 <_ZN6MB85RC8moveDataEjjj+0x54>
bool MB85RC::moveData(size_t framAddrFrom, size_t framAddrTo, size_t numBytes) {
   b6514:	2400      	movs	r4, #0
   b6516:	e000      	b.n	b651a <_ZN6MB85RC8moveDataEjjj+0x46>
   b6518:	2401      	movs	r4, #1
	WITH_LOCK(wire) {
   b651a:	a801      	add	r0, sp, #4
   b651c:	f7ff ff47 	bl	b63ae <_ZNSt10lock_guardIR7TwoWireED1Ev>
				numBytes -= count;
			}
		}
	}
	return result;
}
   b6520:	4620      	mov	r0, r4
   b6522:	b00b      	add	sp, #44	; 0x2c
   b6524:	e8bd 83f0 	ldmia.w	sp!, {r4, r5, r6, r7, r8, r9, pc}
				result = writeData(framAddrTo, buf, count);
   b6528:	f8d8 3000 	ldr.w	r3, [r8]
   b652c:	aa02      	add	r2, sp, #8
   b652e:	f8d3 900c 	ldr.w	r9, [r3, #12]
   b6532:	4629      	mov	r1, r5
   b6534:	463b      	mov	r3, r7
   b6536:	4640      	mov	r0, r8
   b6538:	47c8      	blx	r9
				if (!result) {
   b653a:	2800      	cmp	r0, #0
   b653c:	d0ea      	beq.n	b6514 <_ZN6MB85RC8moveDataEjjj+0x40>
				numBytes -= count;
   b653e:	1be4      	subs	r4, r4, r7
			while(numBytes > 0) {
   b6540:	e7d7      	b.n	b64f2 <_ZN6MB85RC8moveDataEjjj+0x1e>
		if (framAddrFrom > framAddrTo) {
   b6542:	d9e9      	bls.n	b6518 <_ZN6MB85RC8moveDataEjjj+0x44>
			while(numBytes > 0) {
   b6544:	2c00      	cmp	r4, #0
   b6546:	d0e7      	beq.n	b6518 <_ZN6MB85RC8moveDataEjjj+0x44>
				result = readData(framAddrFrom, buf, count);
   b6548:	f8d8 3000 	ldr.w	r3, [r8]
   b654c:	2c1e      	cmp	r4, #30
   b654e:	4627      	mov	r7, r4
   b6550:	bf28      	it	cs
   b6552:	271e      	movcs	r7, #30
   b6554:	f8d3 9008 	ldr.w	r9, [r3, #8]
   b6558:	aa02      	add	r2, sp, #8
   b655a:	463b      	mov	r3, r7
   b655c:	4631      	mov	r1, r6
   b655e:	4640      	mov	r0, r8
   b6560:	47c8      	blx	r9
				if (!result) {
   b6562:	2800      	cmp	r0, #0
   b6564:	d0d6      	beq.n	b6514 <_ZN6MB85RC8moveDataEjjj+0x40>
				result = writeData(framAddrTo, buf, count);
   b6566:	f8d8 3000 	ldr.w	r3, [r8]
   b656a:	aa02      	add	r2, sp, #8
   b656c:	f8d3 900c 	ldr.w	r9, [r3, #12]
   b6570:	4629      	mov	r1, r5
   b6572:	463b      	mov	r3, r7
   b6574:	4640      	mov	r0, r8
   b6576:	47c8      	blx	r9
				if (!result) {
   b6578:	2800      	cmp	r0, #0
   b657a:	d0cb      	beq.n	b6514 <_ZN6MB85RC8moveDataEjjj+0x40>
				framAddrFrom += count;
   b657c:	443e      	add	r6, r7
				framAddrTo += count;
   b657e:	443d      	add	r5, r7
				numBytes -= count;
   b6580:	1be4      	subs	r4, r4, r7
			while(numBytes > 0) {
   b6582:	e7df      	b.n	b6544 <_ZN6MB85RC8moveDataEjjj+0x70>

000b6584 <_ZN15StorageHelperRK18PersistentDataBase5setupEv>:
// PersistentDataBase
//

void StorageHelperRK::PersistentDataBase::setup() {
    // Load data at boot
    load();
   b6584:	6803      	ldr	r3, [r0, #0]
   b6586:	685b      	ldr	r3, [r3, #4]
   b6588:	4718      	bx	r3

000b658a <_ZN15StorageHelperRK18PersistentDataBase5flushEb>:

    return true;
}


void StorageHelperRK::PersistentDataBase::flush(bool force) {
   b658a:	b510      	push	{r4, lr}
    if (lastUpdate) {
   b658c:	6983      	ldr	r3, [r0, #24]
void StorageHelperRK::PersistentDataBase::flush(bool force) {
   b658e:	4604      	mov	r4, r0
    if (lastUpdate) {
   b6590:	b133      	cbz	r3, b65a0 <_ZN15StorageHelperRK18PersistentDataBase5flushEb+0x16>
        if (force || (millis() - lastUpdate >= saveDelayMs)) {
   b6592:	b131      	cbz	r1, b65a2 <_ZN15StorageHelperRK18PersistentDataBase5flushEb+0x18>
            save();
   b6594:	6823      	ldr	r3, [r4, #0]
   b6596:	4620      	mov	r0, r4
   b6598:	689b      	ldr	r3, [r3, #8]
   b659a:	4798      	blx	r3
            lastUpdate = 0;
   b659c:	2300      	movs	r3, #0
   b659e:	61a3      	str	r3, [r4, #24]
        }
    }
}
   b65a0:	bd10      	pop	{r4, pc}

#ifdef __cplusplus
extern "C" {
#endif

inline system_tick_t millis(void) { return HAL_Timer_Get_Milli_Seconds(); }
   b65a2:	f000 faf5 	bl	b6b90 <HAL_Timer_Get_Milli_Seconds>
        if (force || (millis() - lastUpdate >= saveDelayMs)) {
   b65a6:	69a3      	ldr	r3, [r4, #24]
   b65a8:	1ac0      	subs	r0, r0, r3
   b65aa:	69e3      	ldr	r3, [r4, #28]
   b65ac:	4298      	cmp	r0, r3
   b65ae:	d2f1      	bcs.n	b6594 <_ZN15StorageHelperRK18PersistentDataBase5flushEb+0xa>
   b65b0:	e7f6      	b.n	b65a0 <_ZN15StorageHelperRK18PersistentDataBase5flushEb+0x16>

000b65b2 <_ZN15StorageHelperRK18PersistentDataBase11saveOrDeferEv>:

void StorageHelperRK::PersistentDataBase::saveOrDefer() {
   b65b2:	b510      	push	{r4, lr}
    if (saveDelayMs) {
   b65b4:	69c3      	ldr	r3, [r0, #28]
void StorageHelperRK::PersistentDataBase::saveOrDefer() {
   b65b6:	4604      	mov	r4, r0
    if (saveDelayMs) {
   b65b8:	b11b      	cbz	r3, b65c2 <_ZN15StorageHelperRK18PersistentDataBase11saveOrDeferEv+0x10>
   b65ba:	f000 fae9 	bl	b6b90 <HAL_Timer_Get_Milli_Seconds>
        lastUpdate = millis();
   b65be:	61a0      	str	r0, [r4, #24]
    }
    else {
        save();
    }
}
   b65c0:	bd10      	pop	{r4, pc}
        save();
   b65c2:	6803      	ldr	r3, [r0, #0]
}
   b65c4:	e8bd 4010 	ldmia.w	sp!, {r4, lr}
        save();
   b65c8:	689b      	ldr	r3, [r3, #8]
   b65ca:	4718      	bx	r3

000b65cc <_ZNK15StorageHelperRK20CustomRecursiveMutex6unlockEv.isra.0>:
   b65cc:	f000 bac8 	b.w	b6b60 <os_mutex_recursive_unlock>

000b65d0 <_ZNK5spark6Logger5traceEPKcz>:
inline void spark::Logger::trace(const char *fmt, ...) const {
   b65d0:	b40e      	push	{r1, r2, r3}
   b65d2:	b500      	push	{lr}
   b65d4:	b08c      	sub	sp, #48	; 0x30
   b65d6:	aa0d      	add	r2, sp, #52	; 0x34
    attr.flags = 0;
   b65d8:	f04f 0c20 	mov.w	ip, #32
inline void spark::Logger::trace(const char *fmt, ...) const {
   b65dc:	f852 1b04 	ldr.w	r1, [r2], #4
    va_start(args, fmt);
   b65e0:	9203      	str	r2, [sp, #12]
    log_message_v(level, name_, &attr, nullptr, fmt, args);
   b65e2:	e9cd 1200 	strd	r1, r2, [sp]
    attr.flags = 0;
   b65e6:	2300      	movs	r3, #0
    log_message_v(level, name_, &attr, nullptr, fmt, args);
   b65e8:	6801      	ldr	r1, [r0, #0]
   b65ea:	aa04      	add	r2, sp, #16
   b65ec:	2001      	movs	r0, #1
    attr.flags = 0;
   b65ee:	e9cd c304 	strd	ip, r3, [sp, #16]
    log_message_v(level, name_, &attr, nullptr, fmt, args);
   b65f2:	f000 fbed 	bl	b6dd0 <log_message_v>
}
   b65f6:	b00c      	add	sp, #48	; 0x30
   b65f8:	f85d eb04 	ldr.w	lr, [sp], #4
   b65fc:	b003      	add	sp, #12
   b65fe:	4770      	bx	lr

000b6600 <_ZNK5spark6Logger4dumpEPKvj>:
inline void spark::Logger::dump(const void *data, size_t size) const {
   b6600:	b507      	push	{r0, r1, r2, lr}
   b6602:	4613      	mov	r3, r2
    if (data) {
   b6604:	b139      	cbz	r1, b6616 <_ZNK5spark6Logger4dumpEPKvj+0x16>
        log_dump(level, name_, data, size, 0, nullptr);
   b6606:	2200      	movs	r2, #0
   b6608:	e9cd 2200 	strd	r2, r2, [sp]
   b660c:	460a      	mov	r2, r1
   b660e:	6801      	ldr	r1, [r0, #0]
   b6610:	201e      	movs	r0, #30
   b6612:	f000 fbed 	bl	b6df0 <log_dump>
}
   b6616:	b003      	add	sp, #12
   b6618:	f85d fb04 	ldr.w	pc, [sp], #4

000b661c <_ZN15StorageHelperRK18PersistentDataBase4loadEv>:
bool StorageHelperRK::PersistentDataBase::load() {
   b661c:	b510      	push	{r4, lr}
   b661e:	4604      	mov	r4, r0
   b6620:	3004      	adds	r0, #4
   b6622:	f7ff fb93 	bl	b5d4c <_ZNK15StorageHelperRK20CustomRecursiveMutex4lockEv>
        if (!validate(savedDataSize)) {
   b6626:	6823      	ldr	r3, [r4, #0]
   b6628:	68e1      	ldr	r1, [r4, #12]
   b662a:	695b      	ldr	r3, [r3, #20]
   b662c:	4620      	mov	r0, r4
   b662e:	4798      	blx	r3
   b6630:	b918      	cbnz	r0, b663a <_ZN15StorageHelperRK18PersistentDataBase4loadEv+0x1e>
            initialize();
   b6632:	6823      	ldr	r3, [r4, #0]
   b6634:	4620      	mov	r0, r4
   b6636:	699b      	ldr	r3, [r3, #24]
   b6638:	4798      	blx	r3
      { _M_device.unlock(); }
   b663a:	6860      	ldr	r0, [r4, #4]
   b663c:	f7ff ffc6 	bl	b65cc <_ZNK15StorageHelperRK20CustomRecursiveMutex6unlockEv.isra.0>
}
   b6640:	2001      	movs	r0, #1
   b6642:	bd10      	pop	{r4, pc}

000b6644 <_ZNK15StorageHelperRK18PersistentDataBase14getValueStringEjjR6String>:



bool StorageHelperRK::PersistentDataBase::getValueString(size_t offset, size_t size, String &value) const {
   b6644:	b5f8      	push	{r3, r4, r5, r6, r7, lr}
   b6646:	4605      	mov	r5, r0
      { _M_device.lock(); }
   b6648:	3004      	adds	r0, #4
   b664a:	4614      	mov	r4, r2
   b664c:	460e      	mov	r6, r1
   b664e:	461f      	mov	r7, r3
   b6650:	f7ff fb7c 	bl	b5d4c <_ZNK15StorageHelperRK20CustomRecursiveMutex4lockEv>
    bool result = false;

    WITH_LOCK(*this) {
        if (offset <= (savedDataSize - (size - 1))) {
   b6654:	68ea      	ldr	r2, [r5, #12]
   b6656:	f1c4 0401 	rsb	r4, r4, #1
   b665a:	4414      	add	r4, r2
   b665c:	42b4      	cmp	r4, r6
   b665e:	d30a      	bcc.n	b6676 <_ZNK15StorageHelperRK18PersistentDataBase14getValueStringEjjR6String+0x32>
            const char *p = (const char *)savedDataHeader;
   b6660:	68a9      	ldr	r1, [r5, #8]
            p += offset;
            value = p; // copies string
   b6662:	4638      	mov	r0, r7
   b6664:	4431      	add	r1, r6
   b6666:	f002 fcc3 	bl	b8ff0 <_ZN6StringaSEPKc>
            result = true;
   b666a:	2401      	movs	r4, #1
      { _M_device.unlock(); }
   b666c:	6868      	ldr	r0, [r5, #4]
   b666e:	f7ff ffad 	bl	b65cc <_ZNK15StorageHelperRK20CustomRecursiveMutex6unlockEv.isra.0>
        }
    }
    return result;
}
   b6672:	4620      	mov	r0, r4
   b6674:	bdf8      	pop	{r3, r4, r5, r6, r7, pc}
    bool result = false;
   b6676:	2400      	movs	r4, #0
   b6678:	e7f8      	b.n	b666c <_ZNK15StorageHelperRK18PersistentDataBase14getValueStringEjjR6String+0x28>
	...

000b667c <_ZN15StorageHelperRK10murmur3_32EPKhjm>:
    }
    PersistentDataBase::save();
}


uint32_t StorageHelperRK::murmur3_32(const uint8_t* key, size_t len, uint32_t seed) {
   b667c:	b5f0      	push	{r4, r5, r6, r7, lr}
   b667e:	f021 0403 	bic.w	r4, r1, #3
     * 
     * @param k 
     * @return uint32_t 
     */
    static inline uint32_t murmur_32_scramble(uint32_t k) {
        k *= 0xcc9e2d51;
   b6682:	4f18      	ldr	r7, [pc, #96]	; (b66e4 <_ZN15StorageHelperRK10murmur3_32EPKhjm+0x68>)
        k = (k << 15) | (k >> 17);
        k *= 0x1b873593;
   b6684:	4e18      	ldr	r6, [pc, #96]	; (b66e8 <_ZN15StorageHelperRK10murmur3_32EPKhjm+0x6c>)
        // A swap here has no effects on hash properties though.
        memcpy(&k, key, sizeof(uint32_t));
        key += sizeof(uint32_t);
        h ^= murmur_32_scramble(k);
        h = (h << 13) | (h >> 19);
        h = h * 5 + 0xe6546b64;
   b6686:	4d19      	ldr	r5, [pc, #100]	; (b66ec <_ZN15StorageHelperRK10murmur3_32EPKhjm+0x70>)
   b6688:	4404      	add	r4, r0
    for (size_t i = len >> 2; i; i--) {
   b668a:	42a0      	cmp	r0, r4
   b668c:	d00c      	beq.n	b66a8 <_ZN15StorageHelperRK10murmur3_32EPKhjm+0x2c>
        memcpy(&k, key, sizeof(uint32_t));
   b668e:	f850 3b04 	ldr.w	r3, [r0], #4
        k *= 0xcc9e2d51;
   b6692:	437b      	muls	r3, r7
        k = (k << 15) | (k >> 17);
   b6694:	ea4f 4373 	mov.w	r3, r3, ror #17
        k *= 0x1b873593;
   b6698:	4373      	muls	r3, r6
        h ^= murmur_32_scramble(k);
   b669a:	405a      	eors	r2, r3
        h = (h << 13) | (h >> 19);
   b669c:	ea4f 42f2 	mov.w	r2, r2, ror #19
        h = h * 5 + 0xe6546b64;
   b66a0:	eb02 0282 	add.w	r2, r2, r2, lsl #2
   b66a4:	442a      	add	r2, r5
    for (size_t i = len >> 2; i; i--) {
   b66a6:	e7f0      	b.n	b668a <_ZN15StorageHelperRK10murmur3_32EPKhjm+0xe>
    }
    /* Read the rest. */
    k = 0;
    for (size_t i = len & 3; i; i--) {
   b66a8:	f001 0403 	and.w	r4, r1, #3
   b66ac:	4404      	add	r4, r0
    k = 0;
   b66ae:	2300      	movs	r3, #0
    for (size_t i = len & 3; i; i--) {
   b66b0:	42a0      	cmp	r0, r4
   b66b2:	d004      	beq.n	b66be <_ZN15StorageHelperRK10murmur3_32EPKhjm+0x42>
        k <<= 8;
        k |= key[i - 1];
   b66b4:	f814 5d01 	ldrb.w	r5, [r4, #-1]!
   b66b8:	ea45 2303 	orr.w	r3, r5, r3, lsl #8
    for (size_t i = len & 3; i; i--) {
   b66bc:	e7f8      	b.n	b66b0 <_ZN15StorageHelperRK10murmur3_32EPKhjm+0x34>
        k *= 0xcc9e2d51;
   b66be:	4809      	ldr	r0, [pc, #36]	; (b66e4 <_ZN15StorageHelperRK10murmur3_32EPKhjm+0x68>)
   b66c0:	4343      	muls	r3, r0
        k *= 0x1b873593;
   b66c2:	4809      	ldr	r0, [pc, #36]	; (b66e8 <_ZN15StorageHelperRK10murmur3_32EPKhjm+0x6c>)
        k = (k << 15) | (k >> 17);
   b66c4:	ea4f 4373 	mov.w	r3, r3, ror #17
        return k;
   b66c8:	404a      	eors	r2, r1
        k *= 0x1b873593;
   b66ca:	4358      	muls	r0, r3
    // A swap is *not* necessary here because the preceding loop already
    // places the low bytes in the low places according to whatever endianness
    // we use. Swaps only apply when the memory is copied in a chunk.
    h ^= murmur_32_scramble(k);
    /* Finalize. */
	h ^= len;
   b66cc:	4050      	eors	r0, r2
	h ^= h >> 16;
	h *= 0x85ebca6b;
   b66ce:	4b08      	ldr	r3, [pc, #32]	; (b66f0 <_ZN15StorageHelperRK10murmur3_32EPKhjm+0x74>)
	h ^= h >> 16;
   b66d0:	ea80 4010 	eor.w	r0, r0, r0, lsr #16
	h *= 0x85ebca6b;
   b66d4:	4358      	muls	r0, r3
	h ^= h >> 13;
	h *= 0xc2b2ae35;
   b66d6:	4b07      	ldr	r3, [pc, #28]	; (b66f4 <_ZN15StorageHelperRK10murmur3_32EPKhjm+0x78>)
	h ^= h >> 13;
   b66d8:	ea80 3050 	eor.w	r0, r0, r0, lsr #13
	h *= 0xc2b2ae35;
   b66dc:	4358      	muls	r0, r3
	h ^= h >> 16;
	return h;
}
   b66de:	ea80 4010 	eor.w	r0, r0, r0, lsr #16
   b66e2:	bdf0      	pop	{r4, r5, r6, r7, pc}
   b66e4:	cc9e2d51 	.word	0xcc9e2d51
   b66e8:	1b873593 	.word	0x1b873593
   b66ec:	e6546b64 	.word	0xe6546b64
   b66f0:	85ebca6b 	.word	0x85ebca6b
   b66f4:	c2b2ae35 	.word	0xc2b2ae35

000b66f8 <_ZNK15StorageHelperRK18PersistentDataBase7getHashEv>:
uint32_t StorageHelperRK::PersistentDataBase::getHash() const {
   b66f8:	b5f8      	push	{r3, r4, r5, r6, r7, lr}
   b66fa:	4604      	mov	r4, r0
      { _M_device.lock(); }
   b66fc:	3004      	adds	r0, #4
   b66fe:	f7ff fb25 	bl	b5d4c <_ZNK15StorageHelperRK20CustomRecursiveMutex4lockEv>
        uint32_t savedHash = savedDataHeader->hash;
   b6702:	68a3      	ldr	r3, [r4, #8]
        savedDataHeader->hash = 0;
   b6704:	2200      	movs	r2, #0
        uint32_t savedHash = savedDataHeader->hash;
   b6706:	689f      	ldr	r7, [r3, #8]
        savedDataHeader->hash = 0;
   b6708:	609a      	str	r2, [r3, #8]
        hash = StorageHelperRK::murmur3_32((const uint8_t *)savedDataHeader, savedDataHeader->size, HASH_SEED);
   b670a:	68a6      	ldr	r6, [r4, #8]
   b670c:	4a05      	ldr	r2, [pc, #20]	; (b6724 <_ZNK15StorageHelperRK18PersistentDataBase7getHashEv+0x2c>)
   b670e:	88f1      	ldrh	r1, [r6, #6]
   b6710:	4630      	mov	r0, r6
   b6712:	f7ff ffb3 	bl	b667c <_ZN15StorageHelperRK10murmur3_32EPKhjm>
        savedDataHeader->hash = savedHash;
   b6716:	60b7      	str	r7, [r6, #8]
        hash = StorageHelperRK::murmur3_32((const uint8_t *)savedDataHeader, savedDataHeader->size, HASH_SEED);
   b6718:	4605      	mov	r5, r0
      { _M_device.unlock(); }
   b671a:	6860      	ldr	r0, [r4, #4]
   b671c:	f7ff ff56 	bl	b65cc <_ZNK15StorageHelperRK20CustomRecursiveMutex6unlockEv.isra.0>
}
   b6720:	4628      	mov	r0, r5
   b6722:	bdf8      	pop	{r3, r4, r5, r6, r7, pc}
   b6724:	851c2a3f 	.word	0x851c2a3f

000b6728 <_ZN15StorageHelperRK18PersistentDataBase10updateHashEv>:
void StorageHelperRK::PersistentDataBase::updateHash() {
   b6728:	b570      	push	{r4, r5, r6, lr}
   b672a:	4604      	mov	r4, r0
    savedDataHeader->hash = getHash();
   b672c:	6885      	ldr	r5, [r0, #8]
   b672e:	f7ff ffe3 	bl	b66f8 <_ZNK15StorageHelperRK18PersistentDataBase7getHashEv>
   b6732:	60a8      	str	r0, [r5, #8]
    saveOrDefer();
   b6734:	6823      	ldr	r3, [r4, #0]
   b6736:	4620      	mov	r0, r4
   b6738:	691b      	ldr	r3, [r3, #16]
}
   b673a:	e8bd 4070 	ldmia.w	sp!, {r4, r5, r6, lr}
    saveOrDefer();
   b673e:	4718      	bx	r3

000b6740 <_ZN15StorageHelperRK18PersistentDataBase14setValueStringEjjPKc>:
bool StorageHelperRK::PersistentDataBase::setValueString(size_t offset, size_t size, const char *value) {
   b6740:	e92d 41f0 	stmdb	sp!, {r4, r5, r6, r7, r8, lr}
   b6744:	4604      	mov	r4, r0
      { _M_device.lock(); }
   b6746:	3004      	adds	r0, #4
   b6748:	4690      	mov	r8, r2
   b674a:	460d      	mov	r5, r1
   b674c:	461f      	mov	r7, r3
   b674e:	f7ff fafd 	bl	b5d4c <_ZNK15StorageHelperRK20CustomRecursiveMutex4lockEv>
        if (offset <= (savedDataSize - (size - 1)) && strlen(value) < size) {
   b6752:	68e2      	ldr	r2, [r4, #12]
   b6754:	f1c8 0301 	rsb	r3, r8, #1
   b6758:	4413      	add	r3, r2
   b675a:	42ab      	cmp	r3, r5
   b675c:	d319      	bcc.n	b6792 <_ZN15StorageHelperRK18PersistentDataBase14setValueStringEjjPKc+0x52>
   b675e:	4638      	mov	r0, r7
   b6760:	f003 f999 	bl	b9a96 <strlen>
   b6764:	4540      	cmp	r0, r8
   b6766:	d214      	bcs.n	b6792 <_ZN15StorageHelperRK18PersistentDataBase14setValueStringEjjPKc+0x52>
            char *p = (char *)savedDataHeader;
   b6768:	68a6      	ldr	r6, [r4, #8]
            p += offset;
   b676a:	4435      	add	r5, r6
            if (strcmp(value, p) != 0) {
   b676c:	4629      	mov	r1, r5
   b676e:	4638      	mov	r0, r7
   b6770:	f003 f961 	bl	b9a36 <strcmp>
   b6774:	b158      	cbz	r0, b678e <_ZN15StorageHelperRK18PersistentDataBase14setValueStringEjjPKc+0x4e>
                memset(p, 0, size);
   b6776:	4642      	mov	r2, r8
   b6778:	2100      	movs	r1, #0
   b677a:	4628      	mov	r0, r5
   b677c:	f003 f8d0 	bl	b9920 <memset>
                strcpy(p, value);
   b6780:	4639      	mov	r1, r7
   b6782:	4628      	mov	r0, r5
   b6784:	f003 f961 	bl	b9a4a <strcpy>
                updateHash();
   b6788:	4620      	mov	r0, r4
   b678a:	f7ff ffcd 	bl	b6728 <_ZN15StorageHelperRK18PersistentDataBase10updateHashEv>
            result = true;
   b678e:	2501      	movs	r5, #1
   b6790:	e000      	b.n	b6794 <_ZN15StorageHelperRK18PersistentDataBase14setValueStringEjjPKc+0x54>
    bool result = false;
   b6792:	2500      	movs	r5, #0
      { _M_device.unlock(); }
   b6794:	6860      	ldr	r0, [r4, #4]
   b6796:	f7ff ff19 	bl	b65cc <_ZNK15StorageHelperRK20CustomRecursiveMutex6unlockEv.isra.0>
}
   b679a:	4628      	mov	r0, r5
   b679c:	e8bd 81f0 	ldmia.w	sp!, {r4, r5, r6, r7, r8, pc}

000b67a0 <_ZN15StorageHelperRK18PersistentDataBase8validateEj>:
bool StorageHelperRK::PersistentDataBase::validate(size_t dataSize) {
   b67a0:	b573      	push	{r0, r1, r4, r5, r6, lr}
    if (logData && dataSize < 4096) {
   b67a2:	f890 3020 	ldrb.w	r3, [r0, #32]
bool StorageHelperRK::PersistentDataBase::validate(size_t dataSize) {
   b67a6:	4604      	mov	r4, r0
   b67a8:	460d      	mov	r5, r1
    if (logData && dataSize < 4096) {
   b67aa:	b1ab      	cbz	r3, b67d8 <_ZN15StorageHelperRK18PersistentDataBase8validateEj+0x38>
   b67ac:	f5b1 5f80 	cmp.w	r1, #4096	; 0x1000
   b67b0:	d217      	bcs.n	b67e2 <_ZN15StorageHelperRK18PersistentDataBase8validateEj+0x42>
        Log.info("validating data size=%d", (int)dataSize);
   b67b2:	4e2c      	ldr	r6, [pc, #176]	; (b6864 <_ZN15StorageHelperRK18PersistentDataBase8validateEj+0xc4>)
   b67b4:	460a      	mov	r2, r1
   b67b6:	4630      	mov	r0, r6
   b67b8:	492b      	ldr	r1, [pc, #172]	; (b6868 <_ZN15StorageHelperRK18PersistentDataBase8validateEj+0xc8>)
   b67ba:	f7fd fcd3 	bl	b4164 <_ZNK5spark6Logger4infoEPKcz>
        Log.dump((const uint8_t *)savedDataHeader, dataSize);
   b67be:	68a1      	ldr	r1, [r4, #8]
   b67c0:	462a      	mov	r2, r5
   b67c2:	4630      	mov	r0, r6
   b67c4:	f7ff ff1c 	bl	b6600 <_ZNK5spark6Logger4dumpEPKvj>
        log_write(level, name_, data, size, nullptr);
   b67c8:	2300      	movs	r3, #0
   b67ca:	9300      	str	r3, [sp, #0]
   b67cc:	4a27      	ldr	r2, [pc, #156]	; (b686c <_ZN15StorageHelperRK18PersistentDataBase8validateEj+0xcc>)
   b67ce:	6831      	ldr	r1, [r6, #0]
   b67d0:	2301      	movs	r3, #1
   b67d2:	201e      	movs	r0, #30
   b67d4:	f000 fb04 	bl	b6de0 <log_write>
    if (dataSize >= 12 && 
   b67d8:	2d0b      	cmp	r5, #11
   b67da:	d802      	bhi.n	b67e2 <_ZN15StorageHelperRK18PersistentDataBase8validateEj+0x42>
    if (!isValid && dataSize != 0 && savedDataHeader->magic != 0) {
   b67dc:	bb55      	cbnz	r5, b6834 <_ZN15StorageHelperRK18PersistentDataBase8validateEj+0x94>
   b67de:	2000      	movs	r0, #0
   b67e0:	e026      	b.n	b6830 <_ZN15StorageHelperRK18PersistentDataBase8validateEj+0x90>
        savedDataHeader->magic == savedDataMagic && 
   b67e2:	68a3      	ldr	r3, [r4, #8]
    if (dataSize >= 12 && 
   b67e4:	6922      	ldr	r2, [r4, #16]
   b67e6:	6819      	ldr	r1, [r3, #0]
   b67e8:	4291      	cmp	r1, r2
   b67ea:	d123      	bne.n	b6834 <_ZN15StorageHelperRK18PersistentDataBase8validateEj+0x94>
        savedDataHeader->magic == savedDataMagic && 
   b67ec:	8899      	ldrh	r1, [r3, #4]
   b67ee:	8aa2      	ldrh	r2, [r4, #20]
   b67f0:	4291      	cmp	r1, r2
   b67f2:	d11f      	bne.n	b6834 <_ZN15StorageHelperRK18PersistentDataBase8validateEj+0x94>
        savedDataHeader->version == savedDataVersion &&
   b67f4:	88da      	ldrh	r2, [r3, #6]
   b67f6:	b2ab      	uxth	r3, r5
   b67f8:	429a      	cmp	r2, r3
   b67fa:	d81b      	bhi.n	b6834 <_ZN15StorageHelperRK18PersistentDataBase8validateEj+0x94>
        hash = getHash();
   b67fc:	4620      	mov	r0, r4
   b67fe:	f7ff ff7b 	bl	b66f8 <_ZNK15StorageHelperRK18PersistentDataBase7getHashEv>
        if (savedDataHeader->hash == hash) {                
   b6802:	68a3      	ldr	r3, [r4, #8]
   b6804:	689a      	ldr	r2, [r3, #8]
   b6806:	4282      	cmp	r2, r0
        hash = getHash();
   b6808:	4606      	mov	r6, r0
        if (savedDataHeader->hash == hash) {                
   b680a:	d114      	bne.n	b6836 <_ZN15StorageHelperRK18PersistentDataBase8validateEj+0x96>
            if ((size_t)dataSize < savedDataSize) {
   b680c:	68e2      	ldr	r2, [r4, #12]
   b680e:	42aa      	cmp	r2, r5
   b6810:	d905      	bls.n	b681e <_ZN15StorageHelperRK18PersistentDataBase8validateEj+0x7e>
                    p[ii] = 0;
   b6812:	2100      	movs	r1, #0
   b6814:	5559      	strb	r1, [r3, r5]
                for(size_t ii = (size_t)dataSize; ii < savedDataSize; ii++) {
   b6816:	68e2      	ldr	r2, [r4, #12]
   b6818:	3501      	adds	r5, #1
   b681a:	42aa      	cmp	r2, r5
   b681c:	d8fa      	bhi.n	b6814 <_ZN15StorageHelperRK18PersistentDataBase8validateEj+0x74>
            savedDataHeader->size = (uint16_t) savedDataSize;
   b681e:	e9d4 3202 	ldrd	r3, r2, [r4, #8]
            savedDataHeader->hash = getHash();
   b6822:	4620      	mov	r0, r4
            savedDataHeader->size = (uint16_t) savedDataSize;
   b6824:	80da      	strh	r2, [r3, #6]
            savedDataHeader->hash = getHash();
   b6826:	68a5      	ldr	r5, [r4, #8]
   b6828:	f7ff ff66 	bl	b66f8 <_ZNK15StorageHelperRK18PersistentDataBase7getHashEv>
   b682c:	60a8      	str	r0, [r5, #8]
            isValid = true;
   b682e:	2001      	movs	r0, #1
}
   b6830:	b002      	add	sp, #8
   b6832:	bd70      	pop	{r4, r5, r6, pc}
    uint32_t hash = 0;
   b6834:	2600      	movs	r6, #0
    if (!isValid && dataSize != 0 && savedDataHeader->magic != 0) {
   b6836:	68a1      	ldr	r1, [r4, #8]
   b6838:	680a      	ldr	r2, [r1, #0]
   b683a:	2a00      	cmp	r2, #0
   b683c:	d0cf      	beq.n	b67de <_ZN15StorageHelperRK18PersistentDataBase8validateEj+0x3e>
        Log.trace("got: magic=%08x version=%04x size=%04x hash=%08x", (int)savedDataHeader->magic, (int)savedDataHeader->version, (int)savedDataHeader->size, (int)savedDataHeader->hash);
   b683e:	6888      	ldr	r0, [r1, #8]
   b6840:	888b      	ldrh	r3, [r1, #4]
   b6842:	9001      	str	r0, [sp, #4]
   b6844:	88c9      	ldrh	r1, [r1, #6]
   b6846:	9100      	str	r1, [sp, #0]
   b6848:	4806      	ldr	r0, [pc, #24]	; (b6864 <_ZN15StorageHelperRK18PersistentDataBase8validateEj+0xc4>)
   b684a:	4909      	ldr	r1, [pc, #36]	; (b6870 <_ZN15StorageHelperRK18PersistentDataBase8validateEj+0xd0>)
   b684c:	f7ff fec0 	bl	b65d0 <_ZNK5spark6Logger5traceEPKcz>
        Log.trace("exp: magic=%08x version=%04x size=%04x hash=%08x", (int)savedDataMagic, (int)savedDataVersion, (int)dataSize, (int)hash);
   b6850:	e9cd 5600 	strd	r5, r6, [sp]
   b6854:	8aa3      	ldrh	r3, [r4, #20]
   b6856:	6922      	ldr	r2, [r4, #16]
   b6858:	4906      	ldr	r1, [pc, #24]	; (b6874 <_ZN15StorageHelperRK18PersistentDataBase8validateEj+0xd4>)
   b685a:	4802      	ldr	r0, [pc, #8]	; (b6864 <_ZN15StorageHelperRK18PersistentDataBase8validateEj+0xc4>)
   b685c:	f7ff feb8 	bl	b65d0 <_ZNK5spark6Logger5traceEPKcz>
   b6860:	e7bd      	b.n	b67de <_ZN15StorageHelperRK18PersistentDataBase8validateEj+0x3e>
   b6862:	bf00      	nop
   b6864:	2003e6b0 	.word	0x2003e6b0
   b6868:	000baa98 	.word	0x000baa98
   b686c:	000bacc6 	.word	0x000bacc6
   b6870:	000baab0 	.word	0x000baab0
   b6874:	000baae1 	.word	0x000baae1

000b6878 <_ZN15StorageHelperRK18PersistentDataBase10initializeEv>:
void StorageHelperRK::PersistentDataBase::initialize() {
   b6878:	b538      	push	{r3, r4, r5, lr}
   b687a:	4604      	mov	r4, r0
    memset(savedDataHeader, 0, savedDataSize);
   b687c:	68c2      	ldr	r2, [r0, #12]
   b687e:	6880      	ldr	r0, [r0, #8]
   b6880:	2100      	movs	r1, #0
   b6882:	f003 f84d 	bl	b9920 <memset>
    savedDataHeader->magic = savedDataMagic;
   b6886:	68a3      	ldr	r3, [r4, #8]
   b6888:	6922      	ldr	r2, [r4, #16]
   b688a:	601a      	str	r2, [r3, #0]
    savedDataHeader->version = savedDataVersion;
   b688c:	68a3      	ldr	r3, [r4, #8]
   b688e:	8aa2      	ldrh	r2, [r4, #20]
   b6890:	809a      	strh	r2, [r3, #4]
    savedDataHeader->size = (uint16_t) savedDataSize;
   b6892:	e9d4 3202 	ldrd	r3, r2, [r4, #8]
    savedDataHeader->hash = getHash();
   b6896:	4620      	mov	r0, r4
    savedDataHeader->size = (uint16_t) savedDataSize;
   b6898:	80da      	strh	r2, [r3, #6]
    savedDataHeader->hash = getHash();
   b689a:	68a5      	ldr	r5, [r4, #8]
   b689c:	f7ff ff2c 	bl	b66f8 <_ZNK15StorageHelperRK18PersistentDataBase7getHashEv>
   b68a0:	60a8      	str	r0, [r5, #8]
}
   b68a2:	bd38      	pop	{r3, r4, r5, pc}

000b68a4 <_ZN15StorageHelperRK18PersistentDataBase4saveEv>:
void StorageHelperRK::PersistentDataBase::save() {
   b68a4:	b537      	push	{r0, r1, r2, r4, r5, lr}
   b68a6:	4604      	mov	r4, r0
    savedDataHeader->hash = getHash();
   b68a8:	6885      	ldr	r5, [r0, #8]
   b68aa:	f7ff ff25 	bl	b66f8 <_ZNK15StorageHelperRK18PersistentDataBase7getHashEv>
   b68ae:	60a8      	str	r0, [r5, #8]
    if (logData) {
   b68b0:	f894 3020 	ldrb.w	r3, [r4, #32]
   b68b4:	b19b      	cbz	r3, b68de <_ZN15StorageHelperRK18PersistentDataBase4saveEv+0x3a>
        Log.info("saving data size=%d", (int)savedDataHeader->size);
   b68b6:	68a3      	ldr	r3, [r4, #8]
   b68b8:	4d0a      	ldr	r5, [pc, #40]	; (b68e4 <_ZN15StorageHelperRK18PersistentDataBase4saveEv+0x40>)
   b68ba:	88da      	ldrh	r2, [r3, #6]
   b68bc:	490a      	ldr	r1, [pc, #40]	; (b68e8 <_ZN15StorageHelperRK18PersistentDataBase4saveEv+0x44>)
   b68be:	4628      	mov	r0, r5
   b68c0:	f7fd fc50 	bl	b4164 <_ZNK5spark6Logger4infoEPKcz>
        Log.dump((const uint8_t *)savedDataHeader, savedDataHeader->size);
   b68c4:	68a1      	ldr	r1, [r4, #8]
   b68c6:	4628      	mov	r0, r5
   b68c8:	88ca      	ldrh	r2, [r1, #6]
   b68ca:	f7ff fe99 	bl	b6600 <_ZNK5spark6Logger4dumpEPKvj>
   b68ce:	2300      	movs	r3, #0
   b68d0:	9300      	str	r3, [sp, #0]
   b68d2:	4a06      	ldr	r2, [pc, #24]	; (b68ec <_ZN15StorageHelperRK18PersistentDataBase4saveEv+0x48>)
   b68d4:	6829      	ldr	r1, [r5, #0]
   b68d6:	2301      	movs	r3, #1
   b68d8:	201e      	movs	r0, #30
   b68da:	f000 fa81 	bl	b6de0 <log_write>
}
   b68de:	b003      	add	sp, #12
   b68e0:	bd30      	pop	{r4, r5, pc}
   b68e2:	bf00      	nop
   b68e4:	2003e6b0 	.word	0x2003e6b0
   b68e8:	000bab12 	.word	0x000bab12
   b68ec:	000bacc6 	.word	0x000bacc6

000b68f0 <_ZN10DataReportC1Em>:
#include "DataReport.h"

// Constructor with default initialization to 0
DataReport::DataReport(uint32_t uniqueID) : 
   b68f0:	b510      	push	{r4, lr}
                            batteryState(0),
                            resetCount(0), 
                            RSSI(0), 
                            SNR(0),
                            retransmissions(0), 
                            retransmissionDelays(0) {}
   b68f2:	2200      	movs	r2, #0
   b68f4:	f243 0439 	movw	r4, #12345	; 0x3039
   b68f8:	e9c0 1209 	strd	r1, r2, [r0, #36]	; 0x24
   b68fc:	e9c0 220b 	strd	r2, r2, [r0, #44]	; 0x2c
   b6900:	8382      	strh	r2, [r0, #28]
   b6902:	7782      	strb	r2, [r0, #30]
   b6904:	8404      	strh	r4, [r0, #32]
   b6906:	f880 2022 	strb.w	r2, [r0, #34]	; 0x22
   b690a:	6342      	str	r2, [r0, #52]	; 0x34
   b690c:	8702      	strh	r2, [r0, #56]	; 0x38
   b690e:	bd10      	pop	{r4, pc}

000b6910 <_ZN10DataReport13setNodeNumberEh>:
void DataReport::setMagicNumber(uint16_t magicNumber) {
    this->magicNumber = magicNumber;
}

void DataReport::setNodeNumber(uint8_t nodeNumber) {
    this->nodeNumber = nodeNumber;
   b6910:	7781      	strb	r1, [r0, #30]
}
   b6912:	4770      	bx	lr

000b6914 <_ZN10DataReport13setSensorTypeEh>:
void DataReport::setToken(uint16_t token) {
    this->token = token;
}

void DataReport::setSensorType(uint8_t sensorType) {
    this->sensorType = sensorType;
   b6914:	f880 1022 	strb.w	r1, [r0, #34]	; 0x22
}
   b6918:	4770      	bx	lr

000b691a <_ZN10DataReport17setOccupancyGrossEt>:

void DataReport::setOccupancyGross(uint16_t occupancyGross) {
    this->occupancyGross = occupancyGross;
   b691a:	8501      	strh	r1, [r0, #40]	; 0x28
}
   b691c:	4770      	bx	lr

000b691e <_ZN10DataReport15setOccupancyNetEt>:

void DataReport::setOccupancyNet(uint16_t occupancyNet) {
    this->occupancyNet = occupancyNet;
   b691e:	8541      	strh	r1, [r0, #42]	; 0x2a
}
   b6920:	4770      	bx	lr

000b6922 <_ZNK10DataReport13getReportDataEPhj>:
    this->retransmissionDelays = retransmissionDelays;
}

// Function to populate a passed-in buffer with the data
bool DataReport::getReportData(uint8_t* buf, size_t size) const {
    if (size < 28) {
   b6922:	2a1b      	cmp	r2, #27
   b6924:	d94c      	bls.n	b69c0 <_ZNK10DataReport13getReportDataEPhj+0x9e>
        return false;
    }
    buf[0] = highByte(magicNumber);
   b6926:	8b83      	ldrh	r3, [r0, #28]
   b6928:	0a1b      	lsrs	r3, r3, #8
   b692a:	700b      	strb	r3, [r1, #0]
    buf[1] = lowByte(magicNumber);
   b692c:	8b83      	ldrh	r3, [r0, #28]
   b692e:	704b      	strb	r3, [r1, #1]
    buf[2] = nodeNumber;
   b6930:	7f83      	ldrb	r3, [r0, #30]
   b6932:	708b      	strb	r3, [r1, #2]
    buf[3] = highByte(token);
   b6934:	8c03      	ldrh	r3, [r0, #32]
   b6936:	0a1b      	lsrs	r3, r3, #8
   b6938:	70cb      	strb	r3, [r1, #3]
    buf[4] = lowByte(token);
   b693a:	8c03      	ldrh	r3, [r0, #32]
   b693c:	710b      	strb	r3, [r1, #4]
    buf[5] = sensorType;
   b693e:	f890 3022 	ldrb.w	r3, [r0, #34]	; 0x22
   b6942:	714b      	strb	r3, [r1, #5]
    buf[6] = uniqueID >> 24;
   b6944:	f890 3027 	ldrb.w	r3, [r0, #39]	; 0x27
   b6948:	718b      	strb	r3, [r1, #6]
    buf[7] = uniqueID >> 16;
   b694a:	8cc3      	ldrh	r3, [r0, #38]	; 0x26
   b694c:	71cb      	strb	r3, [r1, #7]
    buf[8] = uniqueID >> 8;
   b694e:	6a43      	ldr	r3, [r0, #36]	; 0x24
   b6950:	0a1b      	lsrs	r3, r3, #8
   b6952:	720b      	strb	r3, [r1, #8]
    buf[9] = uniqueID;
   b6954:	6a43      	ldr	r3, [r0, #36]	; 0x24
   b6956:	724b      	strb	r3, [r1, #9]
    buf[10] = highByte(occupancyGross);
   b6958:	8d03      	ldrh	r3, [r0, #40]	; 0x28
   b695a:	0a1b      	lsrs	r3, r3, #8
   b695c:	728b      	strb	r3, [r1, #10]
    buf[11] = lowByte(occupancyGross);
   b695e:	8d03      	ldrh	r3, [r0, #40]	; 0x28
   b6960:	72cb      	strb	r3, [r1, #11]
    buf[12] = highByte(occupancyNet);
   b6962:	8d43      	ldrh	r3, [r0, #42]	; 0x2a
   b6964:	0a1b      	lsrs	r3, r3, #8
   b6966:	730b      	strb	r3, [r1, #12]
    buf[13] = lowByte(occupancyNet);
   b6968:	8d43      	ldrh	r3, [r0, #42]	; 0x2a
   b696a:	734b      	strb	r3, [r1, #13]
    buf[14] = space;
   b696c:	f890 302c 	ldrb.w	r3, [r0, #44]	; 0x2c
   b6970:	738b      	strb	r3, [r1, #14]
    buf[15] = placement;
   b6972:	f890 302d 	ldrb.w	r3, [r0, #45]	; 0x2d
   b6976:	73cb      	strb	r3, [r1, #15]
    buf[16] = multi;
   b6978:	f890 302e 	ldrb.w	r3, [r0, #46]	; 0x2e
   b697c:	740b      	strb	r3, [r1, #16]
    buf[17] = zoneMode;
   b697e:	f890 302f 	ldrb.w	r3, [r0, #47]	; 0x2f
   b6982:	744b      	strb	r3, [r1, #17]
    buf[18] = internalTempC;
   b6984:	f890 3030 	ldrb.w	r3, [r0, #48]	; 0x30
   b6988:	748b      	strb	r3, [r1, #18]
    buf[19] = stateOfCharge;
   b698a:	f890 3031 	ldrb.w	r3, [r0, #49]	; 0x31
   b698e:	74cb      	strb	r3, [r1, #19]
    buf[20] = batteryState;
   b6990:	f890 3032 	ldrb.w	r3, [r0, #50]	; 0x32
   b6994:	750b      	strb	r3, [r1, #20]
    buf[21] = resetCount;
   b6996:	f890 3033 	ldrb.w	r3, [r0, #51]	; 0x33
   b699a:	754b      	strb	r3, [r1, #21]
    buf[22] = highByte(RSSI);
   b699c:	8e83      	ldrh	r3, [r0, #52]	; 0x34
   b699e:	0a1b      	lsrs	r3, r3, #8
   b69a0:	758b      	strb	r3, [r1, #22]
    buf[23] = lowByte(RSSI);
   b69a2:	8e83      	ldrh	r3, [r0, #52]	; 0x34
   b69a4:	75cb      	strb	r3, [r1, #23]
    buf[24] = highByte(SNR);
   b69a6:	8ec3      	ldrh	r3, [r0, #54]	; 0x36
   b69a8:	0a1b      	lsrs	r3, r3, #8
   b69aa:	760b      	strb	r3, [r1, #24]
    buf[25] = lowByte(SNR);
   b69ac:	8ec3      	ldrh	r3, [r0, #54]	; 0x36
   b69ae:	764b      	strb	r3, [r1, #25]
    buf[26] = retransmissions;
   b69b0:	f890 3038 	ldrb.w	r3, [r0, #56]	; 0x38
   b69b4:	768b      	strb	r3, [r1, #26]
    buf[27] = retransmissionDelays;
   b69b6:	f890 3039 	ldrb.w	r3, [r0, #57]	; 0x39
   b69ba:	76cb      	strb	r3, [r1, #27]
   b69bc:	2001      	movs	r0, #1
   b69be:	4770      	bx	lr
        return false;
   b69c0:	2000      	movs	r0, #0

    return true;
   b69c2:	4770      	bx	lr

000b69c4 <_ZN7GatewayD1Ev>:
    return *_instance;
}

Gateway::Gateway() {}

Gateway::~Gateway() {}
   b69c4:	4770      	bx	lr

000b69c6 <_ZN7GatewayD0Ev>:
   b69c6:	b510      	push	{r4, lr}
   b69c8:	2104      	movs	r1, #4
   b69ca:	4604      	mov	r4, r0
   b69cc:	f7fd fb65 	bl	b409a <_ZdlPvj>
   b69d0:	4620      	mov	r0, r4
   b69d2:	bd10      	pop	{r4, pc}

000b69d4 <_ZN7Gateway8instanceEv>:
Gateway &Gateway::instance() {
   b69d4:	b510      	push	{r4, lr}
    if (!_instance) {
   b69d6:	4c06      	ldr	r4, [pc, #24]	; (b69f0 <_ZN7Gateway8instanceEv+0x1c>)
   b69d8:	6823      	ldr	r3, [r4, #0]
   b69da:	b933      	cbnz	r3, b69ea <_ZN7Gateway8instanceEv+0x16>
        _instance = new Gateway();
   b69dc:	2004      	movs	r0, #4
   b69de:	f7fd fb58 	bl	b4092 <_Znwj>
   b69e2:	b108      	cbz	r0, b69e8 <_ZN7Gateway8instanceEv+0x14>
Gateway::Gateway() {}
   b69e4:	4b03      	ldr	r3, [pc, #12]	; (b69f4 <_ZN7Gateway8instanceEv+0x20>)
   b69e6:	6003      	str	r3, [r0, #0]
        _instance = new Gateway();
   b69e8:	6020      	str	r0, [r4, #0]
}
   b69ea:	6820      	ldr	r0, [r4, #0]
   b69ec:	bd10      	pop	{r4, pc}
   b69ee:	bf00      	nop
   b69f0:	2003e630 	.word	0x2003e630
   b69f4:	000bab8c 	.word	0x000bab8c

000b69f8 <_ZN7Gateway18decipherDataReportEv>:
    Log.info("Node %d with uniqueID %lu sent a data report message", current.get_nodeNumber(), current.get_uniqueID());

    Gateway::instance().decipherDataReport();
}

void Gateway::decipherDataReport() {
   b69f8:	b510      	push	{r4, lr}
    // buf[2] - nodeNumber processed above
    // buf[3] - buf[4] is token - processed above
    // buf[5] - Sensor type - processed above
    // buf[6] - buf[9] is the unique ID of the node - processed above
    current.set_payload1(buf[10]);
   b69fa:	4c2b      	ldr	r4, [pc, #172]	; (b6aa8 <_ZN7Gateway18decipherDataReportEv+0xb0>)
   b69fc:	f7ff fa38 	bl	b5e70 <_ZN17currentStatusData8instanceEv>
   b6a00:	7aa1      	ldrb	r1, [r4, #10]
   b6a02:	f7ff fc0c 	bl	b621e <_ZN17currentStatusData12set_payload1Eh>
    current.set_payload2(buf[11]);
   b6a06:	f7ff fa33 	bl	b5e70 <_ZN17currentStatusData8instanceEv>
   b6a0a:	7ae1      	ldrb	r1, [r4, #11]
   b6a0c:	f7ff fc0d 	bl	b622a <_ZN17currentStatusData12set_payload2Eh>
    current.set_payload3(buf[12]);
   b6a10:	f7ff fa2e 	bl	b5e70 <_ZN17currentStatusData8instanceEv>
   b6a14:	7b21      	ldrb	r1, [r4, #12]
   b6a16:	f7ff fc0e 	bl	b6236 <_ZN17currentStatusData12set_payload3Eh>
    current.set_payload4(buf[13]);
   b6a1a:	f7ff fa29 	bl	b5e70 <_ZN17currentStatusData8instanceEv>
   b6a1e:	7b61      	ldrb	r1, [r4, #13]
   b6a20:	f7ff fc0f 	bl	b6242 <_ZN17currentStatusData12set_payload4Eh>
    current.set_payload5(buf[14]);
   b6a24:	f7ff fa24 	bl	b5e70 <_ZN17currentStatusData8instanceEv>
   b6a28:	7ba1      	ldrb	r1, [r4, #14]
   b6a2a:	f7ff fc10 	bl	b624e <_ZN17currentStatusData12set_payload5Eh>
    current.set_payload6(buf[15]);
   b6a2e:	f7ff fa1f 	bl	b5e70 <_ZN17currentStatusData8instanceEv>
   b6a32:	7be1      	ldrb	r1, [r4, #15]
   b6a34:	f7ff fc11 	bl	b625a <_ZN17currentStatusData12set_payload6Eh>
    current.set_payload7(buf[16]);
   b6a38:	f7ff fa1a 	bl	b5e70 <_ZN17currentStatusData8instanceEv>
   b6a3c:	7c21      	ldrb	r1, [r4, #16]
   b6a3e:	f7ff fc12 	bl	b6266 <_ZN17currentStatusData12set_payload7Eh>
    current.set_payload8(buf[17]);
   b6a42:	f7ff fa15 	bl	b5e70 <_ZN17currentStatusData8instanceEv>
   b6a46:	7c61      	ldrb	r1, [r4, #17]
   b6a48:	f7ff fc13 	bl	b6272 <_ZN17currentStatusData12set_payload8Eh>
    // Then, we will get the rest of the data from the report
    current.set_internalTempC(buf[18]);
   b6a4c:	f7ff fa10 	bl	b5e70 <_ZN17currentStatusData8instanceEv>
   b6a50:	7ca1      	ldrb	r1, [r4, #18]
   b6a52:	f7ff fc14 	bl	b627e <_ZN17currentStatusData17set_internalTempCEh>
    current.set_stateOfCharge(buf[19]);
   b6a56:	f7ff fa0b 	bl	b5e70 <_ZN17currentStatusData8instanceEv>
   b6a5a:	f994 1013 	ldrsb.w	r1, [r4, #19]
   b6a5e:	f7ff fa4d 	bl	b5efc <_ZN17currentStatusData17set_stateOfChargeEa>
    current.set_batteryState(buf[20]);
   b6a62:	f7ff fa05 	bl	b5e70 <_ZN17currentStatusData8instanceEv>
   b6a66:	7d21      	ldrb	r1, [r4, #20]
   b6a68:	f7ff fc0f 	bl	b628a <_ZN17currentStatusData16set_batteryStateEh>
    current.set_resetCount(buf[21]);
   b6a6c:	f7ff fa00 	bl	b5e70 <_ZN17currentStatusData8instanceEv>
   b6a70:	7d61      	ldrb	r1, [r4, #21]
   b6a72:	f7ff fc10 	bl	b6296 <_ZN17currentStatusData14set_resetCountEh>
    current.set_RSSI(buf[22] << 8 | buf[23]);
   b6a76:	f7ff f9fb 	bl	b5e70 <_ZN17currentStatusData8instanceEv>
   b6a7a:	8ae1      	ldrh	r1, [r4, #22]
   b6a7c:	bac9      	revsh	r1, r1
   b6a7e:	f7ff fc58 	bl	b6332 <_ZN17currentStatusData8set_RSSIEs>
    current.set_SNR(buf[24] << 8 | buf[25]);
   b6a82:	f7ff f9f5 	bl	b5e70 <_ZN17currentStatusData8instanceEv>
   b6a86:	8b21      	ldrh	r1, [r4, #24]
   b6a88:	bac9      	revsh	r1, r1
   b6a8a:	f7ff fc58 	bl	b633e <_ZN17currentStatusData7set_SNREs>
    current.set_retryCount(buf[26]);
   b6a8e:	f7ff f9ef 	bl	b5e70 <_ZN17currentStatusData8instanceEv>
   b6a92:	7ea1      	ldrb	r1, [r4, #26]
   b6a94:	f7ff fc0b 	bl	b62ae <_ZN17currentStatusData14set_retryCountEh>
    current.set_retransmissionDelay(buf[27]);
   b6a98:	f7ff f9ea 	bl	b5e70 <_ZN17currentStatusData8instanceEv>
   b6a9c:	7ee1      	ldrb	r1, [r4, #27]
}
   b6a9e:	e8bd 4010 	ldmia.w	sp!, {r4, lr}
    current.set_retransmissionDelay(buf[27]);
   b6aa2:	f7ff bc0a 	b.w	b62ba <_ZN17currentStatusData23set_retransmissionDelayEh>
   b6aa6:	bf00      	nop
   b6aa8:	2003e634 	.word	0x2003e634

000b6aac <_ZN7Gateway17processDataReportE10DataReport>:
void Gateway::processDataReport(DataReport report) {
   b6aac:	b084      	sub	sp, #16
   b6aae:	b513      	push	{r0, r1, r4, lr}
    report.getReportData(buf, sizeof(buf));
   b6ab0:	4c1c      	ldr	r4, [pc, #112]	; (b6b24 <_ZN7Gateway17processDataReportE10DataReport+0x78>)
void Gateway::processDataReport(DataReport report) {
   b6ab2:	a805      	add	r0, sp, #20
   b6ab4:	e880 000e 	stmia.w	r0, {r1, r2, r3}
    report.getReportData(buf, sizeof(buf));
   b6ab8:	2232      	movs	r2, #50	; 0x32
   b6aba:	4621      	mov	r1, r4
   b6abc:	f7ff ff31 	bl	b6922 <_ZNK10DataReport13getReportDataEPhj>
    current.set_alertCodeNode(0);			// reset data report							
   b6ac0:	f7ff f9d6 	bl	b5e70 <_ZN17currentStatusData8instanceEv>
   b6ac4:	2100      	movs	r1, #0
   b6ac6:	f7ff fbec 	bl	b62a2 <_ZN17currentStatusData17set_alertCodeNodeEh>
    current.set_token(buf[3] << 8 | buf[4]);									
   b6aca:	f7ff f9d1 	bl	b5e70 <_ZN17currentStatusData8instanceEv>
   b6ace:	f8b4 1003 	ldrh.w	r1, [r4, #3]
   b6ad2:	ba49      	rev16	r1, r1
   b6ad4:	b289      	uxth	r1, r1
   b6ad6:	f7ff fc0e 	bl	b62f6 <_ZN17currentStatusData9set_tokenEt>
    current.set_sensorType(buf[5]);												
   b6ada:	f7ff f9c9 	bl	b5e70 <_ZN17currentStatusData8instanceEv>
   b6ade:	7961      	ldrb	r1, [r4, #5]
   b6ae0:	f7ff fb97 	bl	b6212 <_ZN17currentStatusData14set_sensorTypeEh>
    current.set_uniqueID(buf[6] << 24 | buf[7] << 16 | buf[8] << 8 | buf[9]);	
   b6ae4:	f7ff f9c4 	bl	b5e70 <_ZN17currentStatusData8instanceEv>
   b6ae8:	f8d4 1006 	ldr.w	r1, [r4, #6]
   b6aec:	ba09      	rev	r1, r1
   b6aee:	f7ff f9ee 	bl	b5ece <_ZN17currentStatusData12set_uniqueIDEm>
    Log.info("Node %d with uniqueID %lu sent a data report message", current.get_nodeNumber(), current.get_uniqueID());
   b6af2:	f7ff f9bd 	bl	b5e70 <_ZN17currentStatusData8instanceEv>
   b6af6:	f7ff fb5b 	bl	b61b0 <_ZNK17currentStatusData14get_nodeNumberEv>
   b6afa:	9001      	str	r0, [sp, #4]
   b6afc:	f7ff f9b8 	bl	b5e70 <_ZN17currentStatusData8instanceEv>
   b6b00:	f7ff f9d4 	bl	b5eac <_ZNK17currentStatusData12get_uniqueIDEv>
   b6b04:	9a01      	ldr	r2, [sp, #4]
   b6b06:	4908      	ldr	r1, [pc, #32]	; (b6b28 <_ZN7Gateway17processDataReportE10DataReport+0x7c>)
   b6b08:	4603      	mov	r3, r0
   b6b0a:	4808      	ldr	r0, [pc, #32]	; (b6b2c <_ZN7Gateway17processDataReportE10DataReport+0x80>)
   b6b0c:	f7fd fb2a 	bl	b4164 <_ZNK5spark6Logger4infoEPKcz>
    Gateway::instance().decipherDataReport();
   b6b10:	f7ff ff60 	bl	b69d4 <_ZN7Gateway8instanceEv>
   b6b14:	f7ff ff70 	bl	b69f8 <_ZN7Gateway18decipherDataReportEv>
}
   b6b18:	b002      	add	sp, #8
   b6b1a:	e8bd 4010 	ldmia.w	sp!, {r4, lr}
   b6b1e:	b004      	add	sp, #16
   b6b20:	4770      	bx	lr
   b6b22:	bf00      	nop
   b6b24:	2003e634 	.word	0x2003e634
   b6b28:	000bab4c 	.word	0x000bab4c
   b6b2c:	2003e6b0 	.word	0x2003e6b0

000b6b30 <os_mutex_recursive_create>:
DYNALIB_FN(13, hal_concurrent, os_mutex_destroy, int(os_mutex_t))
DYNALIB_FN(14, hal_concurrent, os_mutex_lock, int(os_mutex_t))
DYNALIB_FN(15, hal_concurrent, os_mutex_trylock, int(os_mutex_t))
DYNALIB_FN(16, hal_concurrent, os_mutex_unlock, int(os_mutex_t))

DYNALIB_FN(17, hal_concurrent, os_mutex_recursive_create, int(os_mutex_recursive_t*))
   b6b30:	b508      	push	{r3, lr}
   b6b32:	4b02      	ldr	r3, [pc, #8]	; (b6b3c <os_mutex_recursive_create+0xc>)
   b6b34:	681b      	ldr	r3, [r3, #0]
   b6b36:	6c5b      	ldr	r3, [r3, #68]	; 0x44
   b6b38:	9301      	str	r3, [sp, #4]
   b6b3a:	bd08      	pop	{r3, pc}
   b6b3c:	00030248 	.word	0x00030248

000b6b40 <os_mutex_recursive_destroy>:
DYNALIB_FN(18, hal_concurrent, os_mutex_recursive_destroy, int(os_mutex_recursive_t))
   b6b40:	b508      	push	{r3, lr}
   b6b42:	4b02      	ldr	r3, [pc, #8]	; (b6b4c <os_mutex_recursive_destroy+0xc>)
   b6b44:	681b      	ldr	r3, [r3, #0]
   b6b46:	6c9b      	ldr	r3, [r3, #72]	; 0x48
   b6b48:	9301      	str	r3, [sp, #4]
   b6b4a:	bd08      	pop	{r3, pc}
   b6b4c:	00030248 	.word	0x00030248

000b6b50 <os_mutex_recursive_lock>:
DYNALIB_FN(19, hal_concurrent, os_mutex_recursive_lock, int(os_mutex_recursive_t))
   b6b50:	b508      	push	{r3, lr}
   b6b52:	4b02      	ldr	r3, [pc, #8]	; (b6b5c <os_mutex_recursive_lock+0xc>)
   b6b54:	681b      	ldr	r3, [r3, #0]
   b6b56:	6cdb      	ldr	r3, [r3, #76]	; 0x4c
   b6b58:	9301      	str	r3, [sp, #4]
   b6b5a:	bd08      	pop	{r3, pc}
   b6b5c:	00030248 	.word	0x00030248

000b6b60 <os_mutex_recursive_unlock>:
DYNALIB_FN(20, hal_concurrent, os_mutex_recursive_trylock, int(os_mutex_recursive_t))
DYNALIB_FN(21, hal_concurrent, os_mutex_recursive_unlock, int(os_mutex_recursive_t))
   b6b60:	b508      	push	{r3, lr}
   b6b62:	4b02      	ldr	r3, [pc, #8]	; (b6b6c <os_mutex_recursive_unlock+0xc>)
   b6b64:	681b      	ldr	r3, [r3, #0]
   b6b66:	6d5b      	ldr	r3, [r3, #84]	; 0x54
   b6b68:	9301      	str	r3, [sp, #4]
   b6b6a:	bd08      	pop	{r3, pc}
   b6b6c:	00030248 	.word	0x00030248

000b6b70 <HAL_RNG_GetRandomNumber>:

DYNALIB_BEGIN(hal)

#if PLATFORM_ID > PLATFORM_GCC
DYNALIB_FN(0, hal, HAL_RNG_Configuration, void(void))
DYNALIB_FN(1, hal, HAL_RNG_GetRandomNumber, uint32_t(void))
   b6b70:	b508      	push	{r3, lr}
   b6b72:	4b02      	ldr	r3, [pc, #8]	; (b6b7c <HAL_RNG_GetRandomNumber+0xc>)
   b6b74:	681b      	ldr	r3, [r3, #0]
   b6b76:	685b      	ldr	r3, [r3, #4]
   b6b78:	9301      	str	r3, [sp, #4]
   b6b7a:	bd08      	pop	{r3, pc}
   b6b7c:	00030218 	.word	0x00030218

000b6b80 <HAL_Delay_Microseconds>:
#else
#define BASE_IDX 0
#endif // PLATFORM_ID > PLATFORM_GCC

DYNALIB_FN(BASE_IDX + 0, hal, HAL_Delay_Milliseconds, void(uint32_t))
DYNALIB_FN(BASE_IDX + 1, hal, HAL_Delay_Microseconds, void(uint32_t))
   b6b80:	b508      	push	{r3, lr}
   b6b82:	4b02      	ldr	r3, [pc, #8]	; (b6b8c <HAL_Delay_Microseconds+0xc>)
   b6b84:	681b      	ldr	r3, [r3, #0]
   b6b86:	68db      	ldr	r3, [r3, #12]
   b6b88:	9301      	str	r3, [sp, #4]
   b6b8a:	bd08      	pop	{r3, pc}
   b6b8c:	00030218 	.word	0x00030218

000b6b90 <HAL_Timer_Get_Milli_Seconds>:
DYNALIB_FN(BASE_IDX + 2, hal, HAL_Timer_Get_Micro_Seconds, system_tick_t(void))
DYNALIB_FN(BASE_IDX + 3, hal, HAL_Timer_Get_Milli_Seconds, system_tick_t(void))
   b6b90:	b508      	push	{r3, lr}
   b6b92:	4b02      	ldr	r3, [pc, #8]	; (b6b9c <HAL_Timer_Get_Milli_Seconds+0xc>)
   b6b94:	681b      	ldr	r3, [r3, #0]
   b6b96:	695b      	ldr	r3, [r3, #20]
   b6b98:	9301      	str	r3, [sp, #4]
   b6b9a:	bd08      	pop	{r3, pc}
   b6b9c:	00030218 	.word	0x00030218

000b6ba0 <hal_rtc_time_is_valid>:
DYNALIB_FN(BASE_IDX + 15, hal, HAL_EEPROM_Get, void(uint32_t, void *, size_t))
DYNALIB_FN(BASE_IDX + 16, hal, HAL_EEPROM_Put, void(uint32_t, const void *, size_t))
DYNALIB_FN(BASE_IDX + 17, hal, HAL_EEPROM_Clear, void(void))
DYNALIB_FN(BASE_IDX + 18, hal, HAL_EEPROM_Has_Pending_Erase, bool(void))
DYNALIB_FN(BASE_IDX + 19, hal, HAL_EEPROM_Perform_Pending_Erase, void(void))
DYNALIB_FN(BASE_IDX + 20, hal, hal_rtc_time_is_valid, bool(void*))
   b6ba0:	b508      	push	{r3, lr}
   b6ba2:	4b02      	ldr	r3, [pc, #8]	; (b6bac <hal_rtc_time_is_valid+0xc>)
   b6ba4:	681b      	ldr	r3, [r3, #0]
   b6ba6:	6d9b      	ldr	r3, [r3, #88]	; 0x58
   b6ba8:	9301      	str	r3, [sp, #4]
   b6baa:	bd08      	pop	{r3, pc}
   b6bac:	00030218 	.word	0x00030218

000b6bb0 <hal_rtc_get_time>:

DYNALIB_FN(BASE_IDX + 21, hal, hal_timer_millis, uint64_t(void*))
DYNALIB_FN(BASE_IDX + 22, hal, hal_timer_micros, uint64_t(void*))

DYNALIB_FN(BASE_IDX + 23, hal, hal_rtc_get_time, int(struct timeval*, void*))
   b6bb0:	b508      	push	{r3, lr}
   b6bb2:	4b02      	ldr	r3, [pc, #8]	; (b6bbc <hal_rtc_get_time+0xc>)
   b6bb4:	681b      	ldr	r3, [r3, #0]
   b6bb6:	6e5b      	ldr	r3, [r3, #100]	; 0x64
   b6bb8:	9301      	str	r3, [sp, #4]
   b6bba:	bd08      	pop	{r3, pc}
   b6bbc:	00030218 	.word	0x00030218

000b6bc0 <hal_i2c_begin>:
DYNALIB_BEGIN(hal_i2c)

DYNALIB_FN(0, hal_i2c, hal_i2c_set_speed, void(hal_i2c_interface_t, uint32_t, void*))
DYNALIB_FN(1, hal_i2c, hal_i2c_enable_dma_mode, void(hal_i2c_interface_t, bool, void*))
DYNALIB_FN(2, hal_i2c, hal_i2c_stretch_clock, void(hal_i2c_interface_t, bool, void*))
DYNALIB_FN(3, hal_i2c, hal_i2c_begin, void(hal_i2c_interface_t, hal_i2c_mode_t, uint8_t, void*))
   b6bc0:	b508      	push	{r3, lr}
   b6bc2:	4b02      	ldr	r3, [pc, #8]	; (b6bcc <hal_i2c_begin+0xc>)
   b6bc4:	681b      	ldr	r3, [r3, #0]
   b6bc6:	68db      	ldr	r3, [r3, #12]
   b6bc8:	9301      	str	r3, [sp, #4]
   b6bca:	bd08      	pop	{r3, pc}
   b6bcc:	00030228 	.word	0x00030228

000b6bd0 <hal_i2c_begin_transmission>:
DYNALIB_FN(4, hal_i2c, hal_i2c_end, void(hal_i2c_interface_t, void*))
DYNALIB_FN(5, hal_i2c, hal_i2c_request, uint32_t(hal_i2c_interface_t, uint8_t, uint8_t, uint8_t, void*))
DYNALIB_FN(6, hal_i2c, hal_i2c_begin_transmission, void(hal_i2c_interface_t, uint8_t, const hal_i2c_transmission_config_t*))
   b6bd0:	b508      	push	{r3, lr}
   b6bd2:	4b02      	ldr	r3, [pc, #8]	; (b6bdc <hal_i2c_begin_transmission+0xc>)
   b6bd4:	681b      	ldr	r3, [r3, #0]
   b6bd6:	699b      	ldr	r3, [r3, #24]
   b6bd8:	9301      	str	r3, [sp, #4]
   b6bda:	bd08      	pop	{r3, pc}
   b6bdc:	00030228 	.word	0x00030228

000b6be0 <hal_i2c_end_transmission>:
DYNALIB_FN(7, hal_i2c, hal_i2c_end_transmission, uint8_t(hal_i2c_interface_t, uint8_t, void*))
   b6be0:	b508      	push	{r3, lr}
   b6be2:	4b02      	ldr	r3, [pc, #8]	; (b6bec <hal_i2c_end_transmission+0xc>)
   b6be4:	681b      	ldr	r3, [r3, #0]
   b6be6:	69db      	ldr	r3, [r3, #28]
   b6be8:	9301      	str	r3, [sp, #4]
   b6bea:	bd08      	pop	{r3, pc}
   b6bec:	00030228 	.word	0x00030228

000b6bf0 <hal_i2c_write>:
DYNALIB_FN(8, hal_i2c, hal_i2c_write, uint32_t(hal_i2c_interface_t, uint8_t, void*))
   b6bf0:	b508      	push	{r3, lr}
   b6bf2:	4b02      	ldr	r3, [pc, #8]	; (b6bfc <hal_i2c_write+0xc>)
   b6bf4:	681b      	ldr	r3, [r3, #0]
   b6bf6:	6a1b      	ldr	r3, [r3, #32]
   b6bf8:	9301      	str	r3, [sp, #4]
   b6bfa:	bd08      	pop	{r3, pc}
   b6bfc:	00030228 	.word	0x00030228

000b6c00 <hal_i2c_available>:
DYNALIB_FN(9, hal_i2c, hal_i2c_available, int32_t(hal_i2c_interface_t, void*))
   b6c00:	b508      	push	{r3, lr}
   b6c02:	4b02      	ldr	r3, [pc, #8]	; (b6c0c <hal_i2c_available+0xc>)
   b6c04:	681b      	ldr	r3, [r3, #0]
   b6c06:	6a5b      	ldr	r3, [r3, #36]	; 0x24
   b6c08:	9301      	str	r3, [sp, #4]
   b6c0a:	bd08      	pop	{r3, pc}
   b6c0c:	00030228 	.word	0x00030228

000b6c10 <hal_i2c_read>:
DYNALIB_FN(10, hal_i2c, hal_i2c_read, int32_t(hal_i2c_interface_t, void*))
   b6c10:	b508      	push	{r3, lr}
   b6c12:	4b02      	ldr	r3, [pc, #8]	; (b6c1c <hal_i2c_read+0xc>)
   b6c14:	681b      	ldr	r3, [r3, #0]
   b6c16:	6a9b      	ldr	r3, [r3, #40]	; 0x28
   b6c18:	9301      	str	r3, [sp, #4]
   b6c1a:	bd08      	pop	{r3, pc}
   b6c1c:	00030228 	.word	0x00030228

000b6c20 <hal_i2c_peek>:
DYNALIB_FN(11, hal_i2c, hal_i2c_peek, int32_t(hal_i2c_interface_t, void*))
   b6c20:	b508      	push	{r3, lr}
   b6c22:	4b02      	ldr	r3, [pc, #8]	; (b6c2c <hal_i2c_peek+0xc>)
   b6c24:	681b      	ldr	r3, [r3, #0]
   b6c26:	6adb      	ldr	r3, [r3, #44]	; 0x2c
   b6c28:	9301      	str	r3, [sp, #4]
   b6c2a:	bd08      	pop	{r3, pc}
   b6c2c:	00030228 	.word	0x00030228

000b6c30 <hal_i2c_flush>:
DYNALIB_FN(12, hal_i2c, hal_i2c_flush, void(hal_i2c_interface_t, void*))
   b6c30:	b508      	push	{r3, lr}
   b6c32:	4b02      	ldr	r3, [pc, #8]	; (b6c3c <hal_i2c_flush+0xc>)
   b6c34:	681b      	ldr	r3, [r3, #0]
   b6c36:	6b1b      	ldr	r3, [r3, #48]	; 0x30
   b6c38:	9301      	str	r3, [sp, #4]
   b6c3a:	bd08      	pop	{r3, pc}
   b6c3c:	00030228 	.word	0x00030228

000b6c40 <hal_i2c_init>:
DYNALIB_FN(13, hal_i2c, hal_i2c_is_enabled, bool(hal_i2c_interface_t, void*))
DYNALIB_FN(14, hal_i2c, hal_i2c_set_callback_on_received, void(hal_i2c_interface_t, void(*)(int), void*))
DYNALIB_FN(15, hal_i2c, hal_i2c_set_callback_on_requested, void(hal_i2c_interface_t, void(*)(void), void*))
DYNALIB_FN(16, hal_i2c, hal_i2c_init, int(hal_i2c_interface_t, const hal_i2c_config_t*))
   b6c40:	b508      	push	{r3, lr}
   b6c42:	4b02      	ldr	r3, [pc, #8]	; (b6c4c <hal_i2c_init+0xc>)
   b6c44:	681b      	ldr	r3, [r3, #0]
   b6c46:	6c1b      	ldr	r3, [r3, #64]	; 0x40
   b6c48:	9301      	str	r3, [sp, #4]
   b6c4a:	bd08      	pop	{r3, pc}
   b6c4c:	00030228 	.word	0x00030228

000b6c50 <hal_i2c_lock>:
DYNALIB_FN(17, hal_i2c, hal_i2c_reset, uint8_t(hal_i2c_interface_t, uint32_t, void*))
DYNALIB_FN(18, hal_i2c, hal_i2c_lock, int32_t(hal_i2c_interface_t, void*))
   b6c50:	b508      	push	{r3, lr}
   b6c52:	4b02      	ldr	r3, [pc, #8]	; (b6c5c <hal_i2c_lock+0xc>)
   b6c54:	681b      	ldr	r3, [r3, #0]
   b6c56:	6c9b      	ldr	r3, [r3, #72]	; 0x48
   b6c58:	9301      	str	r3, [sp, #4]
   b6c5a:	bd08      	pop	{r3, pc}
   b6c5c:	00030228 	.word	0x00030228

000b6c60 <hal_i2c_unlock>:
DYNALIB_FN(19, hal_i2c, hal_i2c_unlock, int32_t(hal_i2c_interface_t, void*))
   b6c60:	b508      	push	{r3, lr}
   b6c62:	4b02      	ldr	r3, [pc, #8]	; (b6c6c <hal_i2c_unlock+0xc>)
   b6c64:	681b      	ldr	r3, [r3, #0]
   b6c66:	6cdb      	ldr	r3, [r3, #76]	; 0x4c
   b6c68:	9301      	str	r3, [sp, #4]
   b6c6a:	bd08      	pop	{r3, pc}
   b6c6c:	00030228 	.word	0x00030228

000b6c70 <hal_i2c_request_ex>:
DYNALIB_FN(20, hal_i2c, hal_i2c_request_ex, int32_t(hal_i2c_interface_t, const hal_i2c_transmission_config_t*, void*))
   b6c70:	b508      	push	{r3, lr}
   b6c72:	4b02      	ldr	r3, [pc, #8]	; (b6c7c <hal_i2c_request_ex+0xc>)
   b6c74:	681b      	ldr	r3, [r3, #0]
   b6c76:	6d1b      	ldr	r3, [r3, #80]	; 0x50
   b6c78:	9301      	str	r3, [sp, #4]
   b6c7a:	bd08      	pop	{r3, pc}
   b6c7c:	00030228 	.word	0x00030228

000b6c80 <inet_inet_ntop>:
DYNALIB_FN(0, hal_inet, inet_inet_addr, in_addr_t(const char*))
DYNALIB_FN(1, hal_inet, inet_inet_aton, int(const char*, struct in_addr*))
DYNALIB_FN(2, hal_inet, inet_inet_network, in_addr_t(const char*))
DYNALIB_FN(3, hal_inet, inet_inet_ntoa, char*(struct in_addr))
DYNALIB_FN(4, hal_inet, inet_inet_ntoa_r, char*(struct in_addr, char*, socklen_t))
DYNALIB_FN(5, hal_inet, inet_inet_ntop, const char*(int, const void*, char*, socklen_t))
   b6c80:	b508      	push	{r3, lr}
   b6c82:	4b02      	ldr	r3, [pc, #8]	; (b6c8c <inet_inet_ntop+0xc>)
   b6c84:	681b      	ldr	r3, [r3, #0]
   b6c86:	695b      	ldr	r3, [r3, #20]
   b6c88:	9301      	str	r3, [sp, #4]
   b6c8a:	bd08      	pop	{r3, pc}
   b6c8c:	00030264 	.word	0x00030264

000b6c90 <netdb_freeaddrinfo>:

DYNALIB_BEGIN(hal_netdb)

DYNALIB_FN(0, hal_netdb, netdb_gethostbyname, struct hostent*(const char*))
DYNALIB_FN(1, hal_netdb, netdb_gethostbyname_r, int(const char*, struct hostent*, char*, size_t, struct hostent**, int*))
DYNALIB_FN(2, hal_netdb, netdb_freeaddrinfo, void(struct addrinfo*))
   b6c90:	b508      	push	{r3, lr}
   b6c92:	4b02      	ldr	r3, [pc, #8]	; (b6c9c <netdb_freeaddrinfo+0xc>)
   b6c94:	681b      	ldr	r3, [r3, #0]
   b6c96:	689b      	ldr	r3, [r3, #8]
   b6c98:	9301      	str	r3, [sp, #4]
   b6c9a:	bd08      	pop	{r3, pc}
   b6c9c:	00030268 	.word	0x00030268

000b6ca0 <netdb_getaddrinfo>:
DYNALIB_FN(3, hal_netdb, netdb_getaddrinfo, int(const char*, const char*, const struct addrinfo*, struct addrinfo**))
   b6ca0:	b508      	push	{r3, lr}
   b6ca2:	4b02      	ldr	r3, [pc, #8]	; (b6cac <netdb_getaddrinfo+0xc>)
   b6ca4:	681b      	ldr	r3, [r3, #0]
   b6ca6:	68db      	ldr	r3, [r3, #12]
   b6ca8:	9301      	str	r3, [sp, #4]
   b6caa:	bd08      	pop	{r3, pc}
   b6cac:	00030268 	.word	0x00030268

000b6cb0 <hal_usart_end>:
#define BASE_IDX 0
#endif

DYNALIB_FN(BASE_IDX + 0, hal_usart, hal_usart_init, void(hal_usart_interface_t, hal_usart_ring_buffer_t*, hal_usart_ring_buffer_t*))
DYNALIB_FN(BASE_IDX + 1, hal_usart, hal_usart_begin, void(hal_usart_interface_t, uint32_t))
DYNALIB_FN(BASE_IDX + 2, hal_usart, hal_usart_end, void(hal_usart_interface_t))
   b6cb0:	b508      	push	{r3, lr}
   b6cb2:	4b02      	ldr	r3, [pc, #8]	; (b6cbc <hal_usart_end+0xc>)
   b6cb4:	681b      	ldr	r3, [r3, #0]
   b6cb6:	689b      	ldr	r3, [r3, #8]
   b6cb8:	9301      	str	r3, [sp, #4]
   b6cba:	bd08      	pop	{r3, pc}
   b6cbc:	0003023c 	.word	0x0003023c

000b6cc0 <hal_usart_write>:
DYNALIB_FN(BASE_IDX + 3, hal_usart, hal_usart_write, uint32_t(hal_usart_interface_t, uint8_t))
   b6cc0:	b508      	push	{r3, lr}
   b6cc2:	4b02      	ldr	r3, [pc, #8]	; (b6ccc <hal_usart_write+0xc>)
   b6cc4:	681b      	ldr	r3, [r3, #0]
   b6cc6:	68db      	ldr	r3, [r3, #12]
   b6cc8:	9301      	str	r3, [sp, #4]
   b6cca:	bd08      	pop	{r3, pc}
   b6ccc:	0003023c 	.word	0x0003023c

000b6cd0 <hal_usart_available>:
DYNALIB_FN(BASE_IDX + 4, hal_usart, hal_usart_available, int32_t(hal_usart_interface_t))
   b6cd0:	b508      	push	{r3, lr}
   b6cd2:	4b02      	ldr	r3, [pc, #8]	; (b6cdc <hal_usart_available+0xc>)
   b6cd4:	681b      	ldr	r3, [r3, #0]
   b6cd6:	691b      	ldr	r3, [r3, #16]
   b6cd8:	9301      	str	r3, [sp, #4]
   b6cda:	bd08      	pop	{r3, pc}
   b6cdc:	0003023c 	.word	0x0003023c

000b6ce0 <hal_usart_read>:
DYNALIB_FN(BASE_IDX + 5, hal_usart, hal_usart_read, int32_t(hal_usart_interface_t))
   b6ce0:	b508      	push	{r3, lr}
   b6ce2:	4b02      	ldr	r3, [pc, #8]	; (b6cec <hal_usart_read+0xc>)
   b6ce4:	681b      	ldr	r3, [r3, #0]
   b6ce6:	695b      	ldr	r3, [r3, #20]
   b6ce8:	9301      	str	r3, [sp, #4]
   b6cea:	bd08      	pop	{r3, pc}
   b6cec:	0003023c 	.word	0x0003023c

000b6cf0 <hal_usart_peek>:
DYNALIB_FN(BASE_IDX + 6, hal_usart, hal_usart_peek, int32_t(hal_usart_interface_t))
   b6cf0:	b508      	push	{r3, lr}
   b6cf2:	4b02      	ldr	r3, [pc, #8]	; (b6cfc <hal_usart_peek+0xc>)
   b6cf4:	681b      	ldr	r3, [r3, #0]
   b6cf6:	699b      	ldr	r3, [r3, #24]
   b6cf8:	9301      	str	r3, [sp, #4]
   b6cfa:	bd08      	pop	{r3, pc}
   b6cfc:	0003023c 	.word	0x0003023c

000b6d00 <hal_usart_flush>:
DYNALIB_FN(BASE_IDX + 7, hal_usart, hal_usart_flush, void(hal_usart_interface_t))
   b6d00:	b508      	push	{r3, lr}
   b6d02:	4b02      	ldr	r3, [pc, #8]	; (b6d0c <hal_usart_flush+0xc>)
   b6d04:	681b      	ldr	r3, [r3, #0]
   b6d06:	69db      	ldr	r3, [r3, #28]
   b6d08:	9301      	str	r3, [sp, #4]
   b6d0a:	bd08      	pop	{r3, pc}
   b6d0c:	0003023c 	.word	0x0003023c

000b6d10 <hal_usart_available_data_for_write>:
DYNALIB_FN(BASE_IDX + 8, hal_usart, hal_usart_is_enabled, bool(hal_usart_interface_t))
DYNALIB_FN(BASE_IDX + 9, hal_usart, hal_usart_half_duplex, void(hal_usart_interface_t, bool))
DYNALIB_FN(BASE_IDX + 10, hal_usart, hal_usart_available_data_for_write, int32_t(hal_usart_interface_t))
   b6d10:	b508      	push	{r3, lr}
   b6d12:	4b02      	ldr	r3, [pc, #8]	; (b6d1c <hal_usart_available_data_for_write+0xc>)
   b6d14:	681b      	ldr	r3, [r3, #0]
   b6d16:	6a9b      	ldr	r3, [r3, #40]	; 0x28
   b6d18:	9301      	str	r3, [sp, #4]
   b6d1a:	bd08      	pop	{r3, pc}
   b6d1c:	0003023c 	.word	0x0003023c

000b6d20 <hal_usart_begin_config>:
#define BASE_IDX2 (BASE_IDX+13)
#else
#define BASE_IDX2 (BASE_IDX+11)
#endif

DYNALIB_FN(BASE_IDX2 + 0, hal_usart, hal_usart_begin_config, void(hal_usart_interface_t serial, uint32_t baud, uint32_t config, void *ptr))
   b6d20:	b508      	push	{r3, lr}
   b6d22:	4b02      	ldr	r3, [pc, #8]	; (b6d2c <hal_usart_begin_config+0xc>)
   b6d24:	681b      	ldr	r3, [r3, #0]
   b6d26:	6adb      	ldr	r3, [r3, #44]	; 0x2c
   b6d28:	9301      	str	r3, [sp, #4]
   b6d2a:	bd08      	pop	{r3, pc}
   b6d2c:	0003023c 	.word	0x0003023c

000b6d30 <hal_usart_init_ex>:
DYNALIB_FN(BASE_IDX2 + 1, hal_usart, hal_usart_write_nine_bits, uint32_t(hal_usart_interface_t serial, uint16_t data))
DYNALIB_FN(BASE_IDX2 + 2, hal_usart, hal_usart_send_break, void(hal_usart_interface_t, void*))
DYNALIB_FN(BASE_IDX2 + 3, hal_usart, hal_usart_break_detected, uint8_t(hal_usart_interface_t))
DYNALIB_FN(BASE_IDX2 + 4, hal_usart, hal_usart_sleep, int(hal_usart_interface_t serial, bool, void*))
DYNALIB_FN(BASE_IDX2 + 5, hal_usart, hal_usart_init_ex, int(hal_usart_interface_t, const hal_usart_buffer_config_t*, void*))
   b6d30:	b508      	push	{r3, lr}
   b6d32:	4b02      	ldr	r3, [pc, #8]	; (b6d3c <hal_usart_init_ex+0xc>)
   b6d34:	681b      	ldr	r3, [r3, #0]
   b6d36:	6c1b      	ldr	r3, [r3, #64]	; 0x40
   b6d38:	9301      	str	r3, [sp, #4]
   b6d3a:	bd08      	pop	{r3, pc}
   b6d3c:	0003023c 	.word	0x0003023c

000b6d40 <HAL_USB_USART_Init>:
// GNINRAW

DYNALIB_BEGIN(hal_usb)

#ifdef USB_CDC_ENABLE
DYNALIB_FN(0, hal_usb, HAL_USB_USART_Init, void(HAL_USB_USART_Serial, const HAL_USB_USART_Config*))
   b6d40:	b508      	push	{r3, lr}
   b6d42:	4b02      	ldr	r3, [pc, #8]	; (b6d4c <HAL_USB_USART_Init+0xc>)
   b6d44:	681b      	ldr	r3, [r3, #0]
   b6d46:	681b      	ldr	r3, [r3, #0]
   b6d48:	9301      	str	r3, [sp, #4]
   b6d4a:	bd08      	pop	{r3, pc}
   b6d4c:	0003024c 	.word	0x0003024c

000b6d50 <HAL_USB_USART_Begin>:
DYNALIB_FN(1, hal_usb, HAL_USB_USART_Begin, void(HAL_USB_USART_Serial, uint32_t, void *))
   b6d50:	b508      	push	{r3, lr}
   b6d52:	4b02      	ldr	r3, [pc, #8]	; (b6d5c <HAL_USB_USART_Begin+0xc>)
   b6d54:	681b      	ldr	r3, [r3, #0]
   b6d56:	685b      	ldr	r3, [r3, #4]
   b6d58:	9301      	str	r3, [sp, #4]
   b6d5a:	bd08      	pop	{r3, pc}
   b6d5c:	0003024c 	.word	0x0003024c

000b6d60 <HAL_USB_USART_End>:
DYNALIB_FN(2, hal_usb, HAL_USB_USART_End, void(HAL_USB_USART_Serial))
   b6d60:	b508      	push	{r3, lr}
   b6d62:	4b02      	ldr	r3, [pc, #8]	; (b6d6c <HAL_USB_USART_End+0xc>)
   b6d64:	681b      	ldr	r3, [r3, #0]
   b6d66:	689b      	ldr	r3, [r3, #8]
   b6d68:	9301      	str	r3, [sp, #4]
   b6d6a:	bd08      	pop	{r3, pc}
   b6d6c:	0003024c 	.word	0x0003024c

000b6d70 <HAL_USB_USART_Available_Data>:
DYNALIB_FN(3, hal_usb, HAL_USB_USART_Baud_Rate, unsigned int(HAL_USB_USART_Serial))
DYNALIB_FN(4, hal_usb, HAL_USB_USART_Available_Data, int32_t(HAL_USB_USART_Serial))
   b6d70:	b508      	push	{r3, lr}
   b6d72:	4b02      	ldr	r3, [pc, #8]	; (b6d7c <HAL_USB_USART_Available_Data+0xc>)
   b6d74:	681b      	ldr	r3, [r3, #0]
   b6d76:	691b      	ldr	r3, [r3, #16]
   b6d78:	9301      	str	r3, [sp, #4]
   b6d7a:	bd08      	pop	{r3, pc}
   b6d7c:	0003024c 	.word	0x0003024c

000b6d80 <HAL_USB_USART_Available_Data_For_Write>:
DYNALIB_FN(5, hal_usb, HAL_USB_USART_Available_Data_For_Write, int32_t(HAL_USB_USART_Serial))
   b6d80:	b508      	push	{r3, lr}
   b6d82:	4b02      	ldr	r3, [pc, #8]	; (b6d8c <HAL_USB_USART_Available_Data_For_Write+0xc>)
   b6d84:	681b      	ldr	r3, [r3, #0]
   b6d86:	695b      	ldr	r3, [r3, #20]
   b6d88:	9301      	str	r3, [sp, #4]
   b6d8a:	bd08      	pop	{r3, pc}
   b6d8c:	0003024c 	.word	0x0003024c

000b6d90 <HAL_USB_USART_Receive_Data>:
DYNALIB_FN(6, hal_usb, HAL_USB_USART_Receive_Data, int32_t(HAL_USB_USART_Serial, uint8_t))
   b6d90:	b508      	push	{r3, lr}
   b6d92:	4b02      	ldr	r3, [pc, #8]	; (b6d9c <HAL_USB_USART_Receive_Data+0xc>)
   b6d94:	681b      	ldr	r3, [r3, #0]
   b6d96:	699b      	ldr	r3, [r3, #24]
   b6d98:	9301      	str	r3, [sp, #4]
   b6d9a:	bd08      	pop	{r3, pc}
   b6d9c:	0003024c 	.word	0x0003024c

000b6da0 <HAL_USB_USART_Send_Data>:
DYNALIB_FN(7, hal_usb, HAL_USB_USART_Send_Data, int32_t(HAL_USB_USART_Serial, uint8_t))
   b6da0:	b508      	push	{r3, lr}
   b6da2:	4b02      	ldr	r3, [pc, #8]	; (b6dac <HAL_USB_USART_Send_Data+0xc>)
   b6da4:	681b      	ldr	r3, [r3, #0]
   b6da6:	69db      	ldr	r3, [r3, #28]
   b6da8:	9301      	str	r3, [sp, #4]
   b6daa:	bd08      	pop	{r3, pc}
   b6dac:	0003024c 	.word	0x0003024c

000b6db0 <HAL_USB_USART_Flush_Data>:
DYNALIB_FN(8, hal_usb, HAL_USB_USART_Flush_Data, void(HAL_USB_USART_Serial))
   b6db0:	b508      	push	{r3, lr}
   b6db2:	4b02      	ldr	r3, [pc, #8]	; (b6dbc <HAL_USB_USART_Flush_Data+0xc>)
   b6db4:	681b      	ldr	r3, [r3, #0]
   b6db6:	6a1b      	ldr	r3, [r3, #32]
   b6db8:	9301      	str	r3, [sp, #4]
   b6dba:	bd08      	pop	{r3, pc}
   b6dbc:	0003024c 	.word	0x0003024c

000b6dc0 <panic_>:
DYNALIB_FN(9, services, LED_Toggle, void(Led_TypeDef))
DYNALIB_FN(10, services, LED_Fade, void(Led_TypeDef))
DYNALIB_FN(11, services, Get_LED_Brightness, uint8_t(void))

DYNALIB_FN(12, services, set_logger_output, void(debug_output_fn, LoggerOutputLevel)) // Deprecated
DYNALIB_FN(13, services, panic_, void(ePanicCode, void*, void(*)(uint32_t)))
   b6dc0:	b508      	push	{r3, lr}
   b6dc2:	4b02      	ldr	r3, [pc, #8]	; (b6dcc <panic_+0xc>)
   b6dc4:	681b      	ldr	r3, [r3, #0]
   b6dc6:	6b5b      	ldr	r3, [r3, #52]	; 0x34
   b6dc8:	9301      	str	r3, [sp, #4]
   b6dca:	bd08      	pop	{r3, pc}
   b6dcc:	00030260 	.word	0x00030260

000b6dd0 <log_message_v>:
DYNALIB_FN(17, services, LED_RGB_SetChangeHandler, void(led_update_handler_fn, void*))
DYNALIB_FN(18, services, log_print_direct_, void(int, void*, const char*, ...)) // Deprecated
DYNALIB_FN(19, services, LED_GetColor, uint32_t(uint32_t, void*))

DYNALIB_FN(20, services, log_message, void(int, const char*, LogAttributes*, void*, const char*, ...))
DYNALIB_FN(21, services, log_message_v, void(int, const char*, LogAttributes*, void*, const char*, va_list))
   b6dd0:	b508      	push	{r3, lr}
   b6dd2:	4b02      	ldr	r3, [pc, #8]	; (b6ddc <log_message_v+0xc>)
   b6dd4:	681b      	ldr	r3, [r3, #0]
   b6dd6:	6d5b      	ldr	r3, [r3, #84]	; 0x54
   b6dd8:	9301      	str	r3, [sp, #4]
   b6dda:	bd08      	pop	{r3, pc}
   b6ddc:	00030260 	.word	0x00030260

000b6de0 <log_write>:
DYNALIB_FN(22, services, log_write, void(int, const char*, const char*, size_t, void*))
   b6de0:	b508      	push	{r3, lr}
   b6de2:	4b02      	ldr	r3, [pc, #8]	; (b6dec <log_write+0xc>)
   b6de4:	681b      	ldr	r3, [r3, #0]
   b6de6:	6d9b      	ldr	r3, [r3, #88]	; 0x58
   b6de8:	9301      	str	r3, [sp, #4]
   b6dea:	bd08      	pop	{r3, pc}
   b6dec:	00030260 	.word	0x00030260

000b6df0 <log_dump>:
DYNALIB_FN(23, services, log_printf, void(int, const char*, void*, const char*, ...))
DYNALIB_FN(24, services, log_printf_v, void(int, const char*, void*, const char*, va_list))
DYNALIB_FN(25, services, log_dump, void(int, const char*, const void*, size_t, int, void*))
   b6df0:	b508      	push	{r3, lr}
   b6df2:	4b02      	ldr	r3, [pc, #8]	; (b6dfc <log_dump+0xc>)
   b6df4:	681b      	ldr	r3, [r3, #0]
   b6df6:	6e5b      	ldr	r3, [r3, #100]	; 0x64
   b6df8:	9301      	str	r3, [sp, #4]
   b6dfa:	bd08      	pop	{r3, pc}
   b6dfc:	00030260 	.word	0x00030260

000b6e00 <log_level_name>:
DYNALIB_FN(26, services, log_enabled, int(int, const char*, void*))
DYNALIB_FN(27, services, log_level_name, const char*(int, void*))
   b6e00:	b508      	push	{r3, lr}
   b6e02:	4b02      	ldr	r3, [pc, #8]	; (b6e0c <log_level_name+0xc>)
   b6e04:	681b      	ldr	r3, [r3, #0]
   b6e06:	6edb      	ldr	r3, [r3, #108]	; 0x6c
   b6e08:	9301      	str	r3, [sp, #4]
   b6e0a:	bd08      	pop	{r3, pc}
   b6e0c:	00030260 	.word	0x00030260

000b6e10 <log_set_callbacks>:
DYNALIB_FN(28, services, log_set_callbacks, void(log_message_callback_type, log_write_callback_type, log_enabled_callback_type, void*))
   b6e10:	b508      	push	{r3, lr}
   b6e12:	4b02      	ldr	r3, [pc, #8]	; (b6e1c <log_set_callbacks+0xc>)
   b6e14:	681b      	ldr	r3, [r3, #0]
   b6e16:	6f1b      	ldr	r3, [r3, #112]	; 0x70
   b6e18:	9301      	str	r3, [sp, #4]
   b6e1a:	bd08      	pop	{r3, pc}
   b6e1c:	00030260 	.word	0x00030260

000b6e20 <system_mode>:
#include "system_ble_prov.h"
#endif

DYNALIB_BEGIN(system)

DYNALIB_FN(0, system, system_mode, System_Mode_TypeDef(void))
   b6e20:	b508      	push	{r3, lr}
   b6e22:	4b02      	ldr	r3, [pc, #8]	; (b6e2c <system_mode+0xc>)
   b6e24:	681b      	ldr	r3, [r3, #0]
   b6e26:	681b      	ldr	r3, [r3, #0]
   b6e28:	9301      	str	r3, [sp, #4]
   b6e2a:	bd08      	pop	{r3, pc}
   b6e2c:	00030220 	.word	0x00030220

000b6e30 <set_system_mode>:
DYNALIB_FN(1, system, set_system_mode, void(System_Mode_TypeDef))
   b6e30:	b508      	push	{r3, lr}
   b6e32:	4b02      	ldr	r3, [pc, #8]	; (b6e3c <set_system_mode+0xc>)
   b6e34:	681b      	ldr	r3, [r3, #0]
   b6e36:	685b      	ldr	r3, [r3, #4]
   b6e38:	9301      	str	r3, [sp, #4]
   b6e3a:	bd08      	pop	{r3, pc}
   b6e3c:	00030220 	.word	0x00030220

000b6e40 <system_delay_ms>:

DYNALIB_FN(2, system, set_ymodem_serial_flash_update_handler, void(ymodem_serial_flash_update_handler))
DYNALIB_FN(3, system, system_firmwareUpdate, bool(Stream*, void*))
DYNALIB_FN(4, system, system_fileTransfer, bool(system_file_transfer_t*, void*))

DYNALIB_FN(5, system, system_delay_ms, void(unsigned long, bool))
   b6e40:	b508      	push	{r3, lr}
   b6e42:	4b02      	ldr	r3, [pc, #8]	; (b6e4c <system_delay_ms+0xc>)
   b6e44:	681b      	ldr	r3, [r3, #0]
   b6e46:	695b      	ldr	r3, [r3, #20]
   b6e48:	9301      	str	r3, [sp, #4]
   b6e4a:	bd08      	pop	{r3, pc}
   b6e4c:	00030220 	.word	0x00030220

000b6e50 <application_thread_current>:
DYNALIB_FN(15, system, system_get_flag, int(system_flag_t, uint8_t*, void*))
DYNALIB_FN(16, system, Spark_Prepare_For_Firmware_Update, int(FileTransfer::Descriptor&, uint32_t, void*))
DYNALIB_FN(17, system, Spark_Save_Firmware_Chunk, int(FileTransfer::Descriptor&, const uint8_t*, void*))
DYNALIB_FN(18, system, Spark_Finish_Firmware_Update, int(FileTransfer::Descriptor&, uint32_t, void*))

DYNALIB_FN(19, system, application_thread_current, uint8_t(void*))
   b6e50:	b508      	push	{r3, lr}
   b6e52:	4b02      	ldr	r3, [pc, #8]	; (b6e5c <application_thread_current+0xc>)
   b6e54:	681b      	ldr	r3, [r3, #0]
   b6e56:	6cdb      	ldr	r3, [r3, #76]	; 0x4c
   b6e58:	9301      	str	r3, [sp, #4]
   b6e5a:	bd08      	pop	{r3, pc}
   b6e5c:	00030220 	.word	0x00030220

000b6e60 <application_thread_invoke>:
DYNALIB_FN(20, system, system_thread_current, uint8_t(void*))
DYNALIB_FN(21, system, application_thread_invoke, uint8_t(void(*)(void*), void*, void*))
   b6e60:	b508      	push	{r3, lr}
   b6e62:	4b02      	ldr	r3, [pc, #8]	; (b6e6c <application_thread_invoke+0xc>)
   b6e64:	681b      	ldr	r3, [r3, #0]
   b6e66:	6d5b      	ldr	r3, [r3, #84]	; 0x54
   b6e68:	9301      	str	r3, [sp, #4]
   b6e6a:	bd08      	pop	{r3, pc}
   b6e6c:	00030220 	.word	0x00030220

000b6e70 <system_thread_get_state>:
DYNALIB_FN(22, system, system_thread_get_state, spark::feature::State(void*))
   b6e70:	b508      	push	{r3, lr}
   b6e72:	4b02      	ldr	r3, [pc, #8]	; (b6e7c <system_thread_get_state+0xc>)
   b6e74:	681b      	ldr	r3, [r3, #0]
   b6e76:	6d9b      	ldr	r3, [r3, #88]	; 0x58
   b6e78:	9301      	str	r3, [sp, #4]
   b6e7a:	bd08      	pop	{r3, pc}
   b6e7c:	00030220 	.word	0x00030220

000b6e80 <system_ctrl_set_app_request_handler>:
DYNALIB_FN(BASE_IDX + 6, system, led_pattern_period, uint16_t(int, int, void*))
DYNALIB_FN(BASE_IDX + 7, system, system_set_tester_handlers, int(system_tester_handlers_t*, void*))
DYNALIB_FN(BASE_IDX + 8, system, system_format_diag_data, int(const uint16_t*, size_t, unsigned, appender_fn, void*, void*))

// Control requests
DYNALIB_FN(BASE_IDX + 9, system, system_ctrl_set_app_request_handler, int(ctrl_request_handler_fn, void*))
   b6e80:	b508      	push	{r3, lr}
   b6e82:	4b03      	ldr	r3, [pc, #12]	; (b6e90 <system_ctrl_set_app_request_handler+0x10>)
   b6e84:	681b      	ldr	r3, [r3, #0]
   b6e86:	f8d3 3088 	ldr.w	r3, [r3, #136]	; 0x88
   b6e8a:	9301      	str	r3, [sp, #4]
   b6e8c:	bd08      	pop	{r3, pc}
   b6e8e:	0000      	.short	0x0000
   b6e90:	00030220 	.word	0x00030220

000b6e94 <system_ctrl_set_result>:
DYNALIB_FN(BASE_IDX + 10, system, system_ctrl_alloc_reply_data, int(ctrl_request*, size_t, void*))
DYNALIB_FN(BASE_IDX + 11, system, system_ctrl_free_request_data, void(ctrl_request*, void*))
DYNALIB_FN(BASE_IDX + 12, system, system_ctrl_set_result, void(ctrl_request*, int, ctrl_completion_handler_fn, void*, void*))
   b6e94:	b508      	push	{r3, lr}
   b6e96:	4b03      	ldr	r3, [pc, #12]	; (b6ea4 <system_ctrl_set_result+0x10>)
   b6e98:	681b      	ldr	r3, [r3, #0]
   b6e9a:	f8d3 3094 	ldr.w	r3, [r3, #148]	; 0x94
   b6e9e:	9301      	str	r3, [sp, #4]
   b6ea0:	bd08      	pop	{r3, pc}
   b6ea2:	0000      	.short	0x0000
   b6ea4:	00030220 	.word	0x00030220

000b6ea8 <spark_process>:

DYNALIB_BEGIN(system_cloud)

DYNALIB_FN(0, system_cloud, spark_variable, bool(const char*, const void*, Spark_Data_TypeDef, spark_variable_t*))
DYNALIB_FN(1, system_cloud, spark_function, bool(const char*, p_user_function_int_str_t, void*))
DYNALIB_FN(2, system_cloud, spark_process, bool(void))
   b6ea8:	b508      	push	{r3, lr}
   b6eaa:	4b02      	ldr	r3, [pc, #8]	; (b6eb4 <spark_process+0xc>)
   b6eac:	681b      	ldr	r3, [r3, #0]
   b6eae:	689b      	ldr	r3, [r3, #8]
   b6eb0:	9301      	str	r3, [sp, #4]
   b6eb2:	bd08      	pop	{r3, pc}
   b6eb4:	00030244 	.word	0x00030244

000b6eb8 <spark_cloud_flag_connected>:
DYNALIB_FN(3, system_cloud, spark_cloud_flag_connect, void(void))
DYNALIB_FN(4, system_cloud, spark_cloud_flag_disconnect, void(void))
DYNALIB_FN(5, system_cloud, spark_cloud_flag_connected, bool(void))
   b6eb8:	b508      	push	{r3, lr}
   b6eba:	4b02      	ldr	r3, [pc, #8]	; (b6ec4 <spark_cloud_flag_connected+0xc>)
   b6ebc:	681b      	ldr	r3, [r3, #0]
   b6ebe:	695b      	ldr	r3, [r3, #20]
   b6ec0:	9301      	str	r3, [sp, #4]
   b6ec2:	bd08      	pop	{r3, pc}
   b6ec4:	00030244 	.word	0x00030244

000b6ec8 <spark_send_event>:
DYNALIB_FN(6, system_cloud, system_cloud_protocol_instance, ProtocolFacade*(void))
DYNALIB_FN(7, system_cloud, spark_deviceID, String(void))
DYNALIB_FN(8, system_cloud, spark_send_event, bool(const char*, const char*, int, uint32_t, void*))
   b6ec8:	b508      	push	{r3, lr}
   b6eca:	4b02      	ldr	r3, [pc, #8]	; (b6ed4 <spark_send_event+0xc>)
   b6ecc:	681b      	ldr	r3, [r3, #0]
   b6ece:	6a1b      	ldr	r3, [r3, #32]
   b6ed0:	9301      	str	r3, [sp, #4]
   b6ed2:	bd08      	pop	{r3, pc}
   b6ed4:	00030244 	.word	0x00030244

000b6ed8 <spark_sync_time_pending>:
DYNALIB_FN(9, system_cloud, spark_subscribe, bool(const char*, EventHandler, void*, Spark_Subscription_Scope_TypeDef, const char*, void*))
DYNALIB_FN(10, system_cloud, spark_unsubscribe, void(void*))
DYNALIB_FN(11, system_cloud, spark_sync_time, bool(void*))
DYNALIB_FN(12, system_cloud, spark_sync_time_pending, bool(void*))
   b6ed8:	b508      	push	{r3, lr}
   b6eda:	4b02      	ldr	r3, [pc, #8]	; (b6ee4 <spark_sync_time_pending+0xc>)
   b6edc:	681b      	ldr	r3, [r3, #0]
   b6ede:	6b1b      	ldr	r3, [r3, #48]	; 0x30
   b6ee0:	9301      	str	r3, [sp, #4]
   b6ee2:	bd08      	pop	{r3, pc}
   b6ee4:	00030244 	.word	0x00030244

000b6ee8 <spark_set_random_seed_from_cloud_handler>:
DYNALIB_FN(13, system_cloud, spark_sync_time_last, system_tick_t(time32_t*, time_t*))
DYNALIB_FN(14, system_cloud, spark_set_connection_property, int(unsigned, unsigned, const void*, void*))
DYNALIB_FN(15, system_cloud, spark_set_random_seed_from_cloud_handler, int(void (*handler)(unsigned int), void*))
   b6ee8:	b508      	push	{r3, lr}
   b6eea:	4b02      	ldr	r3, [pc, #8]	; (b6ef4 <spark_set_random_seed_from_cloud_handler+0xc>)
   b6eec:	681b      	ldr	r3, [r3, #0]
   b6eee:	6bdb      	ldr	r3, [r3, #60]	; 0x3c
   b6ef0:	9301      	str	r3, [sp, #4]
   b6ef2:	bd08      	pop	{r3, pc}
   b6ef4:	00030244 	.word	0x00030244

000b6ef8 <network_connect>:
#endif

DYNALIB_BEGIN(system_net)

DYNALIB_FN(0, system_net, network_config, const void*(network_handle_t, uint32_t, void*))
DYNALIB_FN(1, system_net, network_connect, void(network_handle_t, uint32_t, uint32_t, void*))
   b6ef8:	b508      	push	{r3, lr}
   b6efa:	4b02      	ldr	r3, [pc, #8]	; (b6f04 <network_connect+0xc>)
   b6efc:	681b      	ldr	r3, [r3, #0]
   b6efe:	685b      	ldr	r3, [r3, #4]
   b6f00:	9301      	str	r3, [sp, #4]
   b6f02:	bd08      	pop	{r3, pc}
   b6f04:	00030240 	.word	0x00030240

000b6f08 <network_connecting>:
DYNALIB_FN(2, system_net, network_connecting, bool(network_handle_t, uint32_t, void*))
   b6f08:	b508      	push	{r3, lr}
   b6f0a:	4b02      	ldr	r3, [pc, #8]	; (b6f14 <network_connecting+0xc>)
   b6f0c:	681b      	ldr	r3, [r3, #0]
   b6f0e:	689b      	ldr	r3, [r3, #8]
   b6f10:	9301      	str	r3, [sp, #4]
   b6f12:	bd08      	pop	{r3, pc}
   b6f14:	00030240 	.word	0x00030240

000b6f18 <network_disconnect>:
DYNALIB_FN(3, system_net, network_disconnect, void(network_handle_t, uint32_t, void*))
   b6f18:	b508      	push	{r3, lr}
   b6f1a:	4b02      	ldr	r3, [pc, #8]	; (b6f24 <network_disconnect+0xc>)
   b6f1c:	681b      	ldr	r3, [r3, #0]
   b6f1e:	68db      	ldr	r3, [r3, #12]
   b6f20:	9301      	str	r3, [sp, #4]
   b6f22:	bd08      	pop	{r3, pc}
   b6f24:	00030240 	.word	0x00030240

000b6f28 <network_ready>:
DYNALIB_FN(4, system_net, network_ready, bool(network_handle_t, uint32_t, void*))
   b6f28:	b508      	push	{r3, lr}
   b6f2a:	4b02      	ldr	r3, [pc, #8]	; (b6f34 <network_ready+0xc>)
   b6f2c:	681b      	ldr	r3, [r3, #0]
   b6f2e:	691b      	ldr	r3, [r3, #16]
   b6f30:	9301      	str	r3, [sp, #4]
   b6f32:	bd08      	pop	{r3, pc}
   b6f34:	00030240 	.word	0x00030240

000b6f38 <network_on>:
DYNALIB_FN(5, system_net, network_on, void(network_handle_t, uint32_t, uint32_t, void*))
   b6f38:	b508      	push	{r3, lr}
   b6f3a:	4b02      	ldr	r3, [pc, #8]	; (b6f44 <network_on+0xc>)
   b6f3c:	681b      	ldr	r3, [r3, #0]
   b6f3e:	695b      	ldr	r3, [r3, #20]
   b6f40:	9301      	str	r3, [sp, #4]
   b6f42:	bd08      	pop	{r3, pc}
   b6f44:	00030240 	.word	0x00030240

000b6f48 <network_off>:
DYNALIB_FN(6, system_net, network_off, void(network_handle_t, uint32_t, uint32_t, void*))
   b6f48:	b508      	push	{r3, lr}
   b6f4a:	4b02      	ldr	r3, [pc, #8]	; (b6f54 <network_off+0xc>)
   b6f4c:	681b      	ldr	r3, [r3, #0]
   b6f4e:	699b      	ldr	r3, [r3, #24]
   b6f50:	9301      	str	r3, [sp, #4]
   b6f52:	bd08      	pop	{r3, pc}
   b6f54:	00030240 	.word	0x00030240

000b6f58 <network_listen>:
DYNALIB_FN(7, system_net, network_listen, void(network_handle_t, uint32_t, void*))
   b6f58:	b508      	push	{r3, lr}
   b6f5a:	4b02      	ldr	r3, [pc, #8]	; (b6f64 <network_listen+0xc>)
   b6f5c:	681b      	ldr	r3, [r3, #0]
   b6f5e:	69db      	ldr	r3, [r3, #28]
   b6f60:	9301      	str	r3, [sp, #4]
   b6f62:	bd08      	pop	{r3, pc}
   b6f64:	00030240 	.word	0x00030240

000b6f68 <network_listening>:
DYNALIB_FN(8, system_net, network_listening, bool(network_handle_t, uint32_t, void*))
   b6f68:	b508      	push	{r3, lr}
   b6f6a:	4b02      	ldr	r3, [pc, #8]	; (b6f74 <network_listening+0xc>)
   b6f6c:	681b      	ldr	r3, [r3, #0]
   b6f6e:	6a1b      	ldr	r3, [r3, #32]
   b6f70:	9301      	str	r3, [sp, #4]
   b6f72:	bd08      	pop	{r3, pc}
   b6f74:	00030240 	.word	0x00030240

000b6f78 <network_set_listen_timeout>:
DYNALIB_FN(9, system_net, network_has_credentials, bool(network_handle_t, uint32_t, void*))
DYNALIB_FN(10, system_net, network_set_credentials, int(network_handle_t, uint32_t, NetworkCredentials*, void*))
DYNALIB_FN(11, system_net, network_clear_credentials, bool(network_handle_t, uint32_t, NetworkCredentials*, void*))
DYNALIB_FN(12, system_net, network_set_listen_timeout, void(network_handle_t, uint16_t, void*))
   b6f78:	b508      	push	{r3, lr}
   b6f7a:	4b02      	ldr	r3, [pc, #8]	; (b6f84 <network_set_listen_timeout+0xc>)
   b6f7c:	681b      	ldr	r3, [r3, #0]
   b6f7e:	6b1b      	ldr	r3, [r3, #48]	; 0x30
   b6f80:	9301      	str	r3, [sp, #4]
   b6f82:	bd08      	pop	{r3, pc}
   b6f84:	00030240 	.word	0x00030240

000b6f88 <network_get_listen_timeout>:
DYNALIB_FN(13, system_net, network_get_listen_timeout, uint16_t(network_handle_t, uint32_t, void*))
   b6f88:	b508      	push	{r3, lr}
   b6f8a:	4b02      	ldr	r3, [pc, #8]	; (b6f94 <network_get_listen_timeout+0xc>)
   b6f8c:	681b      	ldr	r3, [r3, #0]
   b6f8e:	6b5b      	ldr	r3, [r3, #52]	; 0x34
   b6f90:	9301      	str	r3, [sp, #4]
   b6f92:	bd08      	pop	{r3, pc}
   b6f94:	00030240 	.word	0x00030240

000b6f98 <network_is_on>:
DYNALIB_FN(14, system_net, network_set_hostname, int(network_handle_t, uint32_t, const char*, void*))
DYNALIB_FN(15, system_net, network_get_hostname, int(network_handle_t, uint32_t, char*, size_t, void*))
DYNALIB_FN(16, system_net, network_is_on, bool(network_handle_t, void*))
   b6f98:	b508      	push	{r3, lr}
   b6f9a:	4b02      	ldr	r3, [pc, #8]	; (b6fa4 <network_is_on+0xc>)
   b6f9c:	681b      	ldr	r3, [r3, #0]
   b6f9e:	6c1b      	ldr	r3, [r3, #64]	; 0x40
   b6fa0:	9301      	str	r3, [sp, #4]
   b6fa2:	bd08      	pop	{r3, pc}
   b6fa4:	00030240 	.word	0x00030240

000b6fa8 <network_is_off>:
DYNALIB_FN(17, system_net, network_is_off, bool(network_handle_t, void*))
   b6fa8:	b508      	push	{r3, lr}
   b6faa:	4b02      	ldr	r3, [pc, #8]	; (b6fb4 <network_is_off+0xc>)
   b6fac:	681b      	ldr	r3, [r3, #0]
   b6fae:	6c5b      	ldr	r3, [r3, #68]	; 0x44
   b6fb0:	9301      	str	r3, [sp, #4]
   b6fb2:	bd08      	pop	{r3, pc}
   b6fb4:	00030240 	.word	0x00030240

000b6fb8 <malloc>:
#include "hal_platform.h"
#endif // defined(DYNALIB_EXPORT) || (defined(DYNALIB_IMPORT) && !defined(RT_DYNALIB_NO_DEPENDENCY_BREAKING_IMPORTS))

DYNALIB_BEGIN(rt)

DYNALIB_FN(0, rt, malloc, void*(size_t))
   b6fb8:	b508      	push	{r3, lr}
   b6fba:	4b02      	ldr	r3, [pc, #8]	; (b6fc4 <malloc+0xc>)
   b6fbc:	681b      	ldr	r3, [r3, #0]
   b6fbe:	681b      	ldr	r3, [r3, #0]
   b6fc0:	9301      	str	r3, [sp, #4]
   b6fc2:	bd08      	pop	{r3, pc}
   b6fc4:	0003021c 	.word	0x0003021c

000b6fc8 <free>:
DYNALIB_FN(1, rt, free, void(void*))
   b6fc8:	b508      	push	{r3, lr}
   b6fca:	4b02      	ldr	r3, [pc, #8]	; (b6fd4 <free+0xc>)
   b6fcc:	681b      	ldr	r3, [r3, #0]
   b6fce:	685b      	ldr	r3, [r3, #4]
   b6fd0:	9301      	str	r3, [sp, #4]
   b6fd2:	bd08      	pop	{r3, pc}
   b6fd4:	0003021c 	.word	0x0003021c

000b6fd8 <realloc>:
DYNALIB_FN(2, rt, realloc, void*(void*, size_t))
   b6fd8:	b508      	push	{r3, lr}
   b6fda:	4b02      	ldr	r3, [pc, #8]	; (b6fe4 <realloc+0xc>)
   b6fdc:	681b      	ldr	r3, [r3, #0]
   b6fde:	689b      	ldr	r3, [r3, #8]
   b6fe0:	9301      	str	r3, [sp, #4]
   b6fe2:	bd08      	pop	{r3, pc}
   b6fe4:	0003021c 	.word	0x0003021c

000b6fe8 <sscanf>:
DYNALIB_FN(3, rt, sprintf, int(char*, const char*, ...))
DYNALIB_FN(4, rt, siprintf, int(char*, const char*, ...))
DYNALIB_FN(5, rt, sscanf, int(const char*, const char*, ...))
   b6fe8:	b508      	push	{r3, lr}
   b6fea:	4b02      	ldr	r3, [pc, #8]	; (b6ff4 <sscanf+0xc>)
   b6fec:	681b      	ldr	r3, [r3, #0]
   b6fee:	695b      	ldr	r3, [r3, #20]
   b6ff0:	9301      	str	r3, [sp, #4]
   b6ff2:	bd08      	pop	{r3, pc}
   b6ff4:	0003021c 	.word	0x0003021c

000b6ff8 <snprintf>:
DYNALIB_FN(6, rt, siscanf, int(const char*, const char*, ...))
DYNALIB_FN(7, rt, snprintf, int(char*, size_t, const char*, ...))
   b6ff8:	b508      	push	{r3, lr}
   b6ffa:	4b02      	ldr	r3, [pc, #8]	; (b7004 <snprintf+0xc>)
   b6ffc:	681b      	ldr	r3, [r3, #0]
   b6ffe:	69db      	ldr	r3, [r3, #28]
   b7000:	9301      	str	r3, [sp, #4]
   b7002:	bd08      	pop	{r3, pc}
   b7004:	0003021c 	.word	0x0003021c

000b7008 <sniprintf>:
DYNALIB_FN(8, rt, sniprintf, int(char*, size_t, const char*, ...))
   b7008:	b508      	push	{r3, lr}
   b700a:	4b02      	ldr	r3, [pc, #8]	; (b7014 <sniprintf+0xc>)
   b700c:	681b      	ldr	r3, [r3, #0]
   b700e:	6a1b      	ldr	r3, [r3, #32]
   b7010:	9301      	str	r3, [sp, #4]
   b7012:	bd08      	pop	{r3, pc}
   b7014:	0003021c 	.word	0x0003021c

000b7018 <vsnprintf>:
DYNALIB_FN(9, rt, vsnprintf, int(char*, size_t, const char*, va_list))
   b7018:	b508      	push	{r3, lr}
   b701a:	4b02      	ldr	r3, [pc, #8]	; (b7024 <vsnprintf+0xc>)
   b701c:	681b      	ldr	r3, [r3, #0]
   b701e:	6a5b      	ldr	r3, [r3, #36]	; 0x24
   b7020:	9301      	str	r3, [sp, #4]
   b7022:	bd08      	pop	{r3, pc}
   b7024:	0003021c 	.word	0x0003021c

000b7028 <abort>:
DYNALIB_FN(10, rt, vsniprintf, int(char*, size_t, const char*, va_list))
DYNALIB_FN(11, rt, abort, void(void))
   b7028:	b508      	push	{r3, lr}
   b702a:	4b02      	ldr	r3, [pc, #8]	; (b7034 <abort+0xc>)
   b702c:	681b      	ldr	r3, [r3, #0]
   b702e:	6adb      	ldr	r3, [r3, #44]	; 0x2c
   b7030:	9301      	str	r3, [sp, #4]
   b7032:	bd08      	pop	{r3, pc}
   b7034:	0003021c 	.word	0x0003021c

000b7038 <_malloc_r>:
DYNALIB_FN(12, rt, _malloc_r, void*(struct _reent*, size_t))
   b7038:	b508      	push	{r3, lr}
   b703a:	4b02      	ldr	r3, [pc, #8]	; (b7044 <_malloc_r+0xc>)
   b703c:	681b      	ldr	r3, [r3, #0]
   b703e:	6b1b      	ldr	r3, [r3, #48]	; 0x30
   b7040:	9301      	str	r3, [sp, #4]
   b7042:	bd08      	pop	{r3, pc}
   b7044:	0003021c 	.word	0x0003021c

000b7048 <__errno>:
DYNALIB_FN(13, rt, _free_r, void(struct _reent*, void*))
DYNALIB_FN(14, rt, _realloc_r, void*(struct _reent*, void*, size_t))
DYNALIB_FN(15, rt, __errno, int*())
   b7048:	b508      	push	{r3, lr}
   b704a:	4b02      	ldr	r3, [pc, #8]	; (b7054 <__errno+0xc>)
   b704c:	681b      	ldr	r3, [r3, #0]
   b704e:	6bdb      	ldr	r3, [r3, #60]	; 0x3c
   b7050:	9301      	str	r3, [sp, #4]
   b7052:	bd08      	pop	{r3, pc}
   b7054:	0003021c 	.word	0x0003021c

000b7058 <__assert_func>:

#if defined(DYNALIB_EXPORT) || (defined(DYNALIB_IMPORT) && !defined(RT_DYNALIB_NO_DEPENDENCY_BREAKING_IMPORTS))
DYNALIB_FN(16, rt, __assert_func, void(const char*, int, const char*, const char*))
   b7058:	b508      	push	{r3, lr}
   b705a:	4b02      	ldr	r3, [pc, #8]	; (b7064 <__assert_func+0xc>)
   b705c:	681b      	ldr	r3, [r3, #0]
   b705e:	6c1b      	ldr	r3, [r3, #64]	; 0x40
   b7060:	9301      	str	r3, [sp, #4]
   b7062:	bd08      	pop	{r3, pc}
   b7064:	0003021c 	.word	0x0003021c

000b7068 <newlib_impure_ptr_callback>:
DYNALIB_FN(17, rt, newlib_impure_ptr_callback, void(void (*)(struct _reent*, size_t, uint32_t, void*), void*))
   b7068:	b508      	push	{r3, lr}
   b706a:	4b02      	ldr	r3, [pc, #8]	; (b7074 <newlib_impure_ptr_callback+0xc>)
   b706c:	681b      	ldr	r3, [r3, #0]
   b706e:	6c5b      	ldr	r3, [r3, #68]	; 0x44
   b7070:	9301      	str	r3, [sp, #4]
   b7072:	bd08      	pop	{r3, pc}
   b7074:	0003021c 	.word	0x0003021c

000b7078 <delay>:
    return (value - fromStart) * (toEnd - toStart) / (fromEnd - fromStart) + toStart;
}

void delay(unsigned long ms)
{
    system_delay_ms(ms, false);
   b7078:	2100      	movs	r1, #0
   b707a:	f7ff bee1 	b.w	b6e40 <system_delay_ms>

000b707e <_ZN8particle6detail21futureCallbackWrapperEPv>:
 * License along with this library; if not, see <http://www.gnu.org/licenses/>.
 */

#include "spark_wiring_async.h"

void particle::detail::futureCallbackWrapper(void* data) {
   b707e:	b510      	push	{r4, lr}
  template<typename _Res, typename... _ArgTypes>
    _Res
    function<_Res(_ArgTypes...)>::
    operator()(_ArgTypes... __args) const
    {
      if (_M_empty())
   b7080:	6883      	ldr	r3, [r0, #8]
   b7082:	4604      	mov	r4, r0
   b7084:	b90b      	cbnz	r3, b708a <_ZN8particle6detail21futureCallbackWrapperEPv+0xc>
	__throw_bad_function_call();
   b7086:	f002 fa55 	bl	b9534 <_ZSt25__throw_bad_function_callv>
      return _M_invoker(_M_functor, std::forward<_ArgTypes>(__args)...);
   b708a:	68c3      	ldr	r3, [r0, #12]
   b708c:	4798      	blx	r3
      if (_M_manager)
   b708e:	68a3      	ldr	r3, [r4, #8]
   b7090:	b11b      	cbz	r3, b709a <_ZN8particle6detail21futureCallbackWrapperEPv+0x1c>
	_M_manager(_M_functor, _M_functor, __destroy_functor);
   b7092:	2203      	movs	r2, #3
   b7094:	4621      	mov	r1, r4
   b7096:	4620      	mov	r0, r4
   b7098:	4798      	blx	r3
    auto callbackPtr = static_cast<const std::function<void()>*>(data);
    (*callbackPtr)();
    delete callbackPtr;
   b709a:	4620      	mov	r0, r4
   b709c:	2110      	movs	r1, #16
}
   b709e:	e8bd 4010 	ldmia.w	sp!, {r4, lr}
    delete callbackPtr;
   b70a2:	f7fc bffa 	b.w	b409a <_ZdlPvj>

000b70a6 <_ZNSt14_Function_baseD1Ev>:
    ~_Function_base()
   b70a6:	b510      	push	{r4, lr}
      if (_M_manager)
   b70a8:	6883      	ldr	r3, [r0, #8]
    ~_Function_base()
   b70aa:	4604      	mov	r4, r0
      if (_M_manager)
   b70ac:	b113      	cbz	r3, b70b4 <_ZNSt14_Function_baseD1Ev+0xe>
	_M_manager(_M_functor, _M_functor, __destroy_functor);
   b70ae:	2203      	movs	r2, #3
   b70b0:	4601      	mov	r1, r0
   b70b2:	4798      	blx	r3
    }
   b70b4:	4620      	mov	r0, r4
   b70b6:	bd10      	pop	{r4, pc}

000b70b8 <_ZNSt16_Sp_counted_baseILN9__gnu_cxx12_Lock_policyE0EE10_M_releaseEv>:
    {
   b70b8:	b510      	push	{r4, lr}
      if (--_M_use_count == 0)
   b70ba:	6843      	ldr	r3, [r0, #4]
   b70bc:	3b01      	subs	r3, #1
    {
   b70be:	4604      	mov	r4, r0
      if (--_M_use_count == 0)
   b70c0:	6043      	str	r3, [r0, #4]
   b70c2:	b963      	cbnz	r3, b70de <_ZNSt16_Sp_counted_baseILN9__gnu_cxx12_Lock_policyE0EE10_M_releaseEv+0x26>
          _M_dispose();
   b70c4:	6803      	ldr	r3, [r0, #0]
   b70c6:	689b      	ldr	r3, [r3, #8]
   b70c8:	4798      	blx	r3
          if (--_M_weak_count == 0)
   b70ca:	68a3      	ldr	r3, [r4, #8]
   b70cc:	3b01      	subs	r3, #1
   b70ce:	60a3      	str	r3, [r4, #8]
   b70d0:	b92b      	cbnz	r3, b70de <_ZNSt16_Sp_counted_baseILN9__gnu_cxx12_Lock_policyE0EE10_M_releaseEv+0x26>
            _M_destroy();
   b70d2:	6823      	ldr	r3, [r4, #0]
   b70d4:	4620      	mov	r0, r4
   b70d6:	68db      	ldr	r3, [r3, #12]
    }
   b70d8:	e8bd 4010 	ldmia.w	sp!, {r4, lr}
            _M_destroy();
   b70dc:	4718      	bx	r3
    }
   b70de:	bd10      	pop	{r4, pc}

000b70e0 <_ZN5spark6VectorI6StringNS_16DefaultAllocatorEED1Ev>:
inline spark::Vector<T, AllocatorT>::Vector(Vector<T, AllocatorT>&& vector) : Vector() {
    swap(*this, vector);
}

template<typename T, typename AllocatorT>
inline spark::Vector<T, AllocatorT>::~Vector() {
   b70e0:	b570      	push	{r4, r5, r6, lr}
    destruct(data_, data_ + size_);
   b70e2:	e9d0 5300 	ldrd	r5, r3, [r0]
inline spark::Vector<T, AllocatorT>::~Vector() {
   b70e6:	4604      	mov	r4, r0
    destruct(data_, data_ + size_);
   b70e8:	eb05 1603 	add.w	r6, r5, r3, lsl #4
        for (; p != end; ++p) {
   b70ec:	42ae      	cmp	r6, r5
   b70ee:	d004      	beq.n	b70fa <_ZN5spark6VectorI6StringNS_16DefaultAllocatorEED1Ev+0x1a>
            p->~T();
   b70f0:	4628      	mov	r0, r5
   b70f2:	f001 fedb 	bl	b8eac <_ZN6StringD1Ev>
        for (; p != end; ++p) {
   b70f6:	3510      	adds	r5, #16
   b70f8:	e7f8      	b.n	b70ec <_ZN5spark6VectorI6StringNS_16DefaultAllocatorEED1Ev+0xc>
    ::free(ptr);
   b70fa:	6820      	ldr	r0, [r4, #0]
   b70fc:	f7ff ff64 	bl	b6fc8 <free>
    AllocatorT::free(data_);
}
   b7100:	4620      	mov	r0, r4
   b7102:	bd70      	pop	{r4, r5, r6, pc}

000b7104 <_ZSt4swapISt9_Any_dataENSt9enable_ifIXsrSt6__and_IJSt6__not_ISt15__is_tuple_likeIT_EESt21is_move_constructibleIS5_ESt18is_move_assignableIS5_EEE5valueEvE4typeERS5_SF_>:
			      is_move_constructible<_Tp>,
			      is_move_assignable<_Tp>>::value>::type
#else
    void
#endif
    swap(_Tp& __a, _Tp& __b)
   b7104:	b513      	push	{r0, r1, r4, lr}
   b7106:	460b      	mov	r3, r1
   b7108:	4602      	mov	r2, r0
    {
#if __cplusplus < 201103L
      // concept requirements
      __glibcxx_function_requires(_SGIAssignableConcept<_Tp>)
#endif
      _Tp __tmp = _GLIBCXX_MOVE(__a);
   b710a:	e9d0 0100 	ldrd	r0, r1, [r0]
   b710e:	466c      	mov	r4, sp
   b7110:	e884 0003 	stmia.w	r4, {r0, r1}
      __a = _GLIBCXX_MOVE(__b);
   b7114:	e893 0003 	ldmia.w	r3, {r0, r1}
   b7118:	e882 0003 	stmia.w	r2, {r0, r1}
      __b = _GLIBCXX_MOVE(__tmp);
   b711c:	e894 0003 	ldmia.w	r4, {r0, r1}
   b7120:	e883 0003 	stmia.w	r3, {r0, r1}
    }
   b7124:	b002      	add	sp, #8
   b7126:	bd10      	pop	{r4, pc}

000b7128 <_GLOBAL__sub_I__ZN8particle3ble13WiringBleLock6mutex_E>:
    /**
     * Creates a shared mutex.
     */
    RecursiveMutex(os_mutex_recursive_t handle) : handle_(handle) {}

    RecursiveMutex() : handle_(nullptr)
   b7128:	4802      	ldr	r0, [pc, #8]	; (b7134 <_GLOBAL__sub_I__ZN8particle3ble13WiringBleLock6mutex_E+0xc>)
   b712a:	2300      	movs	r3, #0
   b712c:	6003      	str	r3, [r0, #0]
    {
        os_mutex_recursive_create(&handle_);
   b712e:	f7ff bcff 	b.w	b6b30 <os_mutex_recursive_create>
   b7132:	bf00      	nop
   b7134:	2003e668 	.word	0x2003e668

000b7138 <_ZN5spark13CellularClass5readyEv>:
        return network_listening(*this, 0, NULL);
    }

    bool ready()
    {
        return network_ready(*this, 0,  NULL);
   b7138:	2200      	movs	r2, #0
   b713a:	6840      	ldr	r0, [r0, #4]
   b713c:	4611      	mov	r1, r2
   b713e:	f7ff bef3 	b.w	b6f28 <network_ready>

000b7142 <_ZN5spark13CellularClass9listeningEv>:
        return network_listening(*this, 0, NULL);
   b7142:	2200      	movs	r2, #0
   b7144:	6840      	ldr	r0, [r0, #4]
   b7146:	4611      	mov	r1, r2
   b7148:	f7ff bf0e 	b.w	b6f68 <network_listening>

000b714c <_ZN5spark13CellularClass16getListenTimeoutEv>:
        return network_get_listen_timeout(*this, 0, NULL);
   b714c:	2200      	movs	r2, #0
   b714e:	6840      	ldr	r0, [r0, #4]
   b7150:	4611      	mov	r1, r2
   b7152:	f7ff bf19 	b.w	b6f88 <network_get_listen_timeout>

000b7156 <_ZN5spark13CellularClass16setListenTimeoutEt>:
        network_set_listen_timeout(*this, timeout, NULL);
   b7156:	6840      	ldr	r0, [r0, #4]
   b7158:	2200      	movs	r2, #0
   b715a:	f7ff bf0d 	b.w	b6f78 <network_set_listen_timeout>

000b715e <_ZN5spark13CellularClass6listenEb>:
        network_listen(*this, begin ? 0 : 1, NULL);
   b715e:	6840      	ldr	r0, [r0, #4]
   b7160:	2200      	movs	r2, #0
   b7162:	f081 0101 	eor.w	r1, r1, #1
   b7166:	f7ff bef7 	b.w	b6f58 <network_listen>

000b716a <_ZN5spark13CellularClass3offEv>:
        network_off(*this, 0, 0, NULL);
   b716a:	2300      	movs	r3, #0
   b716c:	6840      	ldr	r0, [r0, #4]
   b716e:	461a      	mov	r2, r3
   b7170:	4619      	mov	r1, r3
   b7172:	f7ff bee9 	b.w	b6f48 <network_off>

000b7176 <_ZN5spark13CellularClass2onEv>:
        network_on(*this, 0, 0, NULL);
   b7176:	2300      	movs	r3, #0
   b7178:	6840      	ldr	r0, [r0, #4]
   b717a:	461a      	mov	r2, r3
   b717c:	4619      	mov	r1, r3
   b717e:	f7ff bedb 	b.w	b6f38 <network_on>

000b7182 <_ZN5spark13CellularClass10connectingEv>:
        return network_connecting(*this, 0, NULL);
   b7182:	2200      	movs	r2, #0
   b7184:	6840      	ldr	r0, [r0, #4]
   b7186:	4611      	mov	r1, r2
   b7188:	f7ff bebe 	b.w	b6f08 <network_connecting>

000b718c <_ZN5spark13CellularClass10disconnectEv>:
        network_disconnect(*this, NETWORK_DISCONNECT_REASON_USER, NULL);
   b718c:	6840      	ldr	r0, [r0, #4]
   b718e:	2200      	movs	r2, #0
   b7190:	2102      	movs	r1, #2
   b7192:	f7ff bec1 	b.w	b6f18 <network_disconnect>

000b7196 <_ZN5spark13CellularClass7connectEj>:
        network_connect(*this, flags, 0, NULL);
   b7196:	2300      	movs	r3, #0
   b7198:	6840      	ldr	r0, [r0, #4]
   b719a:	461a      	mov	r2, r3
   b719c:	f7ff beac 	b.w	b6ef8 <network_connect>

000b71a0 <_GLOBAL__sub_I__ZN5spark13CellularClass4RSSIEv>:
    int tx_total;
    int rx_total;

    CellularDataHal()
    {
        memset(this, 0, sizeof(*this));
   b71a0:	4b08      	ldr	r3, [pc, #32]	; (b71c4 <_GLOBAL__sub_I__ZN5spark13CellularClass4RSSIEv+0x24>)
        return (band_get.ok = true);
    }

    CellularClass Cellular;
    // NetworkClass& Network = Cellular;
}
   b71a2:	b510      	push	{r4, lr}
   b71a4:	2428      	movs	r4, #40	; 0x28
   b71a6:	4622      	mov	r2, r4
   b71a8:	4618      	mov	r0, r3
   b71aa:	2100      	movs	r1, #0
   b71ac:	f002 fbb8 	bl	b9920 <memset>
    static NetworkClass& from(network_interface_t nif);

    virtual IPAddress resolve(const char* name);

    explicit NetworkClass(network_interface_t iface)
            : iface_(iface) {
   b71b0:	4b05      	ldr	r3, [pc, #20]	; (b71c8 <_GLOBAL__sub_I__ZN5spark13CellularClass4RSSIEv+0x28>)
        cid = -1;
        size = sizeof(*this);
   b71b2:	8004      	strh	r4, [r0, #0]
        cid = -1;
   b71b4:	f04f 32ff 	mov.w	r2, #4294967295	; 0xffffffff
   b71b8:	6042      	str	r2, [r0, #4]
   b71ba:	2204      	movs	r2, #4
   b71bc:	605a      	str	r2, [r3, #4]
            NetworkClass(NETWORK_INTERFACE_CELLULAR) {
   b71be:	4a03      	ldr	r2, [pc, #12]	; (b71cc <_GLOBAL__sub_I__ZN5spark13CellularClass4RSSIEv+0x2c>)
   b71c0:	601a      	str	r2, [r3, #0]
   b71c2:	bd10      	pop	{r4, pc}
   b71c4:	2003e674 	.word	0x2003e674
   b71c8:	2003e66c 	.word	0x2003e66c
   b71cc:	000bab9c 	.word	0x000bab9c

000b71d0 <_ZNSt15_Sp_counted_ptrIPN8particle6detail10FutureImplIbNS1_13FutureContextEEELN9__gnu_cxx12_Lock_policyE0EED1Ev>:
    class _Sp_counted_ptr final : public _Sp_counted_base<_Lp>
   b71d0:	4770      	bx	lr

000b71d2 <_ZNSt15_Sp_counted_ptrIPN8particle6detail10FutureImplIbNS1_13FutureContextEEELN9__gnu_cxx12_Lock_policyE0EE14_M_get_deleterERKSt9type_info>:
      { return nullptr; }
   b71d2:	2000      	movs	r0, #0
   b71d4:	4770      	bx	lr

000b71d6 <_ZNSt15_Sp_counted_ptrIPN8particle6detail10FutureImplIbNS1_13FutureContextEEELN9__gnu_cxx12_Lock_policyE0EED0Ev>:
    class _Sp_counted_ptr final : public _Sp_counted_base<_Lp>
   b71d6:	b510      	push	{r4, lr}
   b71d8:	2110      	movs	r1, #16
   b71da:	4604      	mov	r4, r0
   b71dc:	f7fc ff5d 	bl	b409a <_ZdlPvj>
   b71e0:	4620      	mov	r0, r4
   b71e2:	bd10      	pop	{r4, pc}

000b71e4 <_ZNSt15_Sp_counted_ptrIPN8particle6detail10FutureImplIbNS1_13FutureContextEEELN9__gnu_cxx12_Lock_policyE0EE10_M_destroyEv>:
      _M_destroy() noexcept
   b71e4:	b508      	push	{r3, lr}
      { delete this; }
   b71e6:	f7ff fff6 	bl	b71d6 <_ZNSt15_Sp_counted_ptrIPN8particle6detail10FutureImplIbNS1_13FutureContextEEELN9__gnu_cxx12_Lock_policyE0EED0Ev>
   b71ea:	bd08      	pop	{r3, pc}

000b71ec <_ZN8particle5ErrorC1EOS0_>:

inline particle::Error::Error(const Error& error) :
        Error(error.type_, error.msg_) {
}

inline particle::Error::Error(Error&& error) :
   b71ec:	b530      	push	{r4, r5, lr}
        type_(type) {
   b71ee:	2200      	movs	r2, #0
   b71f0:	f64f 749c 	movw	r4, #65436	; 0xff9c
   b71f4:	6002      	str	r2, [r0, #0]
   b71f6:	8084      	strh	r4, [r0, #4]
      __a = _GLIBCXX_MOVE(__b);
   b71f8:	888d      	ldrh	r5, [r1, #4]
      __b = _GLIBCXX_MOVE(__tmp);
   b71fa:	808c      	strh	r4, [r1, #4]
      __a = _GLIBCXX_MOVE(__b);
   b71fc:	680c      	ldr	r4, [r1, #0]
   b71fe:	8085      	strh	r5, [r0, #4]
   b7200:	6004      	str	r4, [r0, #0]
      __b = _GLIBCXX_MOVE(__tmp);
   b7202:	600a      	str	r2, [r1, #0]
        Error() {
    swap(*this, error);
}
   b7204:	bd30      	pop	{r4, r5, pc}

000b7206 <_ZN8particle5ErrorD1Ev>:

inline particle::Error::~Error() {
   b7206:	b510      	push	{r4, lr}
   b7208:	4604      	mov	r4, r0
    free((void*)msg_);
   b720a:	6800      	ldr	r0, [r0, #0]
   b720c:	f7ff fedc 	bl	b6fc8 <free>
}
   b7210:	4620      	mov	r0, r4
   b7212:	bd10      	pop	{r4, pc}

000b7214 <_ZNSt15_Sp_counted_ptrIPN8particle6detail10FutureImplIbNS1_13FutureContextEEELN9__gnu_cxx12_Lock_policyE0EE10_M_disposeEv>:
      _M_dispose() noexcept
   b7214:	b538      	push	{r3, r4, r5, lr}
      { delete _M_ptr; }
   b7216:	68c4      	ldr	r4, [r0, #12]
   b7218:	b1f4      	cbz	r4, b7258 <_ZNSt15_Sp_counted_ptrIPN8particle6detail10FutureImplIbNS1_13FutureContextEEELN9__gnu_cxx12_Lock_policyE0EE10_M_disposeEv+0x44>
      _Tp
      load(memory_order __m = memory_order_seq_cst) const noexcept
      {
	alignas(_Tp) unsigned char __buf[sizeof(_Tp)];
	_Tp* __ptr = reinterpret_cast<_Tp*>(__buf);
	__atomic_load(std::__addressof(_M_i), __ptr, int(__m));
   b721a:	7823      	ldrb	r3, [r4, #0]
    ~FutureImpl() {
        // Call destructor of the appropriate unnamed enum's field
        const State s = this->state();
        if (s == State::SUCCEEDED) {
            result_.~ResultT();
        } else if (s == State::FAILED) {
   b721c:	2b02      	cmp	r3, #2
   b721e:	d103      	bne.n	b7228 <_ZNSt15_Sp_counted_ptrIPN8particle6detail10FutureImplIbNS1_13FutureContextEEELN9__gnu_cxx12_Lock_policyE0EE10_M_disposeEv+0x14>
            error_.~Error();
   b7220:	f104 000c 	add.w	r0, r4, #12
   b7224:	f7ff ffef 	bl	b7206 <_ZN8particle5ErrorD1Ev>
      {
	memory_order __b = __m & __memory_order_mask;
	__glibcxx_assert(__b != memory_order_release);
	__glibcxx_assert(__b != memory_order_acq_rel);

	return __atomic_load_n(&_M_p, int(__m));
   b7228:	6865      	ldr	r5, [r4, #4]
        delete onSuccess_.load(std::memory_order_relaxed);
   b722a:	b135      	cbz	r5, b723a <_ZNSt15_Sp_counted_ptrIPN8particle6detail10FutureImplIbNS1_13FutureContextEEELN9__gnu_cxx12_Lock_policyE0EE10_M_disposeEv+0x26>
    class function<_Res(_ArgTypes...)>
   b722c:	4628      	mov	r0, r5
   b722e:	f7ff ff3a 	bl	b70a6 <_ZNSt14_Function_baseD1Ev>
   b7232:	2110      	movs	r1, #16
   b7234:	4628      	mov	r0, r5
   b7236:	f7fc ff30 	bl	b409a <_ZdlPvj>
   b723a:	68a5      	ldr	r5, [r4, #8]
        delete onError_.load(std::memory_order_relaxed);
   b723c:	b135      	cbz	r5, b724c <_ZNSt15_Sp_counted_ptrIPN8particle6detail10FutureImplIbNS1_13FutureContextEEELN9__gnu_cxx12_Lock_policyE0EE10_M_disposeEv+0x38>
   b723e:	4628      	mov	r0, r5
   b7240:	f7ff ff31 	bl	b70a6 <_ZNSt14_Function_baseD1Ev>
   b7244:	2110      	movs	r1, #16
   b7246:	4628      	mov	r0, r5
   b7248:	f7fc ff27 	bl	b409a <_ZdlPvj>
   b724c:	4620      	mov	r0, r4
   b724e:	2114      	movs	r1, #20
   b7250:	e8bd 4038 	ldmia.w	sp!, {r3, r4, r5, lr}
   b7254:	f7fc bf21 	b.w	b409a <_ZdlPvj>
   b7258:	bd38      	pop	{r3, r4, r5, pc}

000b725a <_ZNSt12__shared_ptrIN8particle6detail10FutureImplIbNS1_13FutureContextEEELN9__gnu_cxx12_Lock_policyE0EEC1ERKS7_>:
      __shared_ptr(const __shared_ptr&) noexcept = default;
   b725a:	680b      	ldr	r3, [r1, #0]
   b725c:	6003      	str	r3, [r0, #0]
      : _M_pi(__r._M_pi)
   b725e:	684b      	ldr	r3, [r1, #4]
   b7260:	6043      	str	r3, [r0, #4]
	if (_M_pi != 0)
   b7262:	b113      	cbz	r3, b726a <_ZNSt12__shared_ptrIN8particle6detail10FutureImplIbNS1_13FutureContextEEELN9__gnu_cxx12_Lock_policyE0EEC1ERKS7_+0x10>
    { ++_M_use_count; }
   b7264:	685a      	ldr	r2, [r3, #4]
   b7266:	3201      	adds	r2, #1
   b7268:	605a      	str	r2, [r3, #4]
      __shared_ptr(const __shared_ptr&) noexcept = default;
   b726a:	4770      	bx	lr

000b726c <_ZN8particle11PromiseBaseIbNS_6detail13FutureContextEE11fromDataPtrEPv>:
        // TODO: Use custom reference counting object to avoid unnecessary memory allocation
        return new detail::FutureImplPtr<ResultT, ContextT>(p_);
    }

    // Unwraps promise from an object pointer created via dataPtr() method
    static Promise<ResultT, ContextT> fromDataPtr(void* data) {
   b726c:	b537      	push	{r0, r1, r2, r4, r5, lr}
   b726e:	4604      	mov	r4, r0
       *  @brief  Construct an empty %shared_ptr.
       *  @post   use_count()==0 && get()==0
       */
      constexpr shared_ptr() noexcept : __shared_ptr<_Tp>() { }

      shared_ptr(const shared_ptr&) noexcept = default; ///< Copy constructor
   b7270:	4668      	mov	r0, sp
   b7272:	460d      	mov	r5, r1
   b7274:	f7ff fff1 	bl	b725a <_ZNSt12__shared_ptrIN8particle6detail10FutureImplIbNS1_13FutureContextEEELN9__gnu_cxx12_Lock_policyE0EEC1ERKS7_>
	__shared_ptr(const __shared_ptr<_Yp, _Lp>& __r) noexcept
	: _M_ptr(__r._M_ptr), _M_refcount(__r._M_refcount)
	{ }

      __shared_ptr(__shared_ptr&& __r) noexcept
      : _M_ptr(__r._M_ptr), _M_refcount()
   b7278:	9b00      	ldr	r3, [sp, #0]
	_Sp_counted_base<_Lp>* __tmp = __r._M_pi;
   b727a:	9a01      	ldr	r2, [sp, #4]
      : _M_ptr(__r._M_ptr), _M_refcount()
   b727c:	6023      	str	r3, [r4, #0]
	_M_pi = __tmp;
   b727e:	6062      	str	r2, [r4, #4]
	__r._M_pi = _M_pi;
   b7280:	2300      	movs	r3, #0
      ~__shared_ptr() = default;
   b7282:	a801      	add	r0, sp, #4
	__r._M_pi = _M_pi;
   b7284:	9301      	str	r3, [sp, #4]
      {
	_M_refcount._M_swap(__r._M_refcount);
	__r._M_ptr = 0;
   b7286:	9300      	str	r3, [sp, #0]
      ~__shared_ptr() = default;
   b7288:	f7fc ffec 	bl	b4264 <_ZNSt14__shared_countILN9__gnu_cxx12_Lock_policyE0EED1Ev>
        auto d = static_cast<detail::FutureImplPtr<ResultT, ContextT>*>(data);
        const Promise<ResultT, ContextT> p(*d);
        delete d;
   b728c:	b135      	cbz	r5, b729c <_ZN8particle11PromiseBaseIbNS_6detail13FutureContextEE11fromDataPtrEPv+0x30>
   b728e:	1d28      	adds	r0, r5, #4
   b7290:	f7fc ffe8 	bl	b4264 <_ZNSt14__shared_countILN9__gnu_cxx12_Lock_policyE0EED1Ev>
   b7294:	2108      	movs	r1, #8
   b7296:	4628      	mov	r0, r5
   b7298:	f7fc feff 	bl	b409a <_ZdlPvj>
        return p;
    }
   b729c:	4620      	mov	r0, r4
   b729e:	b003      	add	sp, #12
   b72a0:	bd30      	pop	{r4, r5, pc}

000b72a2 <_ZNKSt8functionIFvRKN8particle5ErrorEEEclES3_>:
      if (_M_empty())
   b72a2:	6882      	ldr	r2, [r0, #8]
    function<_Res(_ArgTypes...)>::
   b72a4:	b510      	push	{r4, lr}
      if (_M_empty())
   b72a6:	b90a      	cbnz	r2, b72ac <_ZNKSt8functionIFvRKN8particle5ErrorEEEclES3_+0xa>
	__throw_bad_function_call();
   b72a8:	f002 f944 	bl	b9534 <_ZSt25__throw_bad_function_callv>
    }
   b72ac:	e8bd 4010 	ldmia.w	sp!, {r4, lr}
      return _M_invoker(_M_functor, std::forward<_ArgTypes>(__args)...);
   b72b0:	68c3      	ldr	r3, [r0, #12]
   b72b2:	4718      	bx	r3

000b72b4 <_ZNSt17_Function_handlerIFvvESt5_BindIFSt8functionIFvRKN8particle5ErrorEEES4_EEE9_M_invokeERKSt9_Any_data>:
      _M_invoke(const _Any_data& __functor, _ArgTypes&&... __args)
   b72b4:	b508      	push	{r3, lr}
	    return __source._M_access<_Functor*>();
   b72b6:	6800      	ldr	r0, [r0, #0]
    { return static_cast<_Up&&>(__t); }

  template<typename _Res, typename _Fn, typename... _Args>
    constexpr _Res
    __invoke_impl(__invoke_other, _Fn&& __f, _Args&&... __args)
    { return std::forward<_Fn>(__f)(std::forward<_Args>(__args)...); }
   b72b8:	f100 0110 	add.w	r1, r0, #16
   b72bc:	f7ff fff1 	bl	b72a2 <_ZNKSt8functionIFvRKN8particle5ErrorEEEclES3_>
      }
   b72c0:	bd08      	pop	{r3, pc}

000b72c2 <_ZNKSt8functionIFvRKbEEclES1_>:
      if (_M_empty())
   b72c2:	6882      	ldr	r2, [r0, #8]
    function<_Res(_ArgTypes...)>::
   b72c4:	b510      	push	{r4, lr}
      if (_M_empty())
   b72c6:	b90a      	cbnz	r2, b72cc <_ZNKSt8functionIFvRKbEEclES1_+0xa>
	__throw_bad_function_call();
   b72c8:	f002 f934 	bl	b9534 <_ZSt25__throw_bad_function_callv>
    }
   b72cc:	e8bd 4010 	ldmia.w	sp!, {r4, lr}
      return _M_invoker(_M_functor, std::forward<_ArgTypes>(__args)...);
   b72d0:	68c3      	ldr	r3, [r0, #12]
   b72d2:	4718      	bx	r3

000b72d4 <_ZNSt17_Function_handlerIFvvESt5_BindIFSt8functionIFvRKbEEbEEE9_M_invokeERKSt9_Any_data>:
      _M_invoke(const _Any_data& __functor, _ArgTypes&&... __args)
   b72d4:	b508      	push	{r3, lr}
	    return __source._M_access<_Functor*>();
   b72d6:	6800      	ldr	r0, [r0, #0]
   b72d8:	f100 0110 	add.w	r1, r0, #16
   b72dc:	f7ff fff1 	bl	b72c2 <_ZNKSt8functionIFvRKbEEclES1_>
      }
   b72e0:	bd08      	pop	{r3, pc}
	...

000b72e4 <_ZNSt14__shared_countILN9__gnu_cxx12_Lock_policyE0EEC1IPN8particle6detail10FutureImplIbNS5_13FutureContextEEEEET_>:
	__shared_count(_Ptr __p) : _M_pi(0)
   b72e4:	b538      	push	{r3, r4, r5, lr}
   b72e6:	2300      	movs	r3, #0
   b72e8:	4604      	mov	r4, r0
   b72ea:	6003      	str	r3, [r0, #0]
	      _M_pi = new _Sp_counted_ptr<_Ptr, _Lp>(__p);
   b72ec:	2010      	movs	r0, #16
	__shared_count(_Ptr __p) : _M_pi(0)
   b72ee:	460d      	mov	r5, r1
	      _M_pi = new _Sp_counted_ptr<_Ptr, _Lp>(__p);
   b72f0:	f7fc fecf 	bl	b4092 <_Znwj>
   b72f4:	b128      	cbz	r0, b7302 <_ZNSt14__shared_countILN9__gnu_cxx12_Lock_policyE0EEC1IPN8particle6detail10FutureImplIbNS5_13FutureContextEEEEET_+0x1e>
      : _M_use_count(1), _M_weak_count(1) { }
   b72f6:	2301      	movs	r3, #1
   b72f8:	e9c0 3301 	strd	r3, r3, [r0, #4]
      : _M_ptr(__p) { }
   b72fc:	4b02      	ldr	r3, [pc, #8]	; (b7308 <_ZNSt14__shared_countILN9__gnu_cxx12_Lock_policyE0EEC1IPN8particle6detail10FutureImplIbNS5_13FutureContextEEEEET_+0x24>)
   b72fe:	6003      	str	r3, [r0, #0]
   b7300:	60c5      	str	r5, [r0, #12]
	      _M_pi = new _Sp_counted_ptr<_Ptr, _Lp>(__p);
   b7302:	6020      	str	r0, [r4, #0]
	}
   b7304:	4620      	mov	r0, r4
   b7306:	bd38      	pop	{r3, r4, r5, pc}
   b7308:	000babd8 	.word	0x000babd8

000b730c <_ZNSt8functionIFvRKN8particle5ErrorEEEC1ERKS5_>:
    function<_Res(_ArgTypes...)>::
   b730c:	b538      	push	{r3, r4, r5, lr}
    _Function_base() : _M_manager(nullptr) { }
   b730e:	2300      	movs	r3, #0
   b7310:	6083      	str	r3, [r0, #8]
    bool _M_empty() const { return !_M_manager; }
   b7312:	688b      	ldr	r3, [r1, #8]
    function<_Res(_ArgTypes...)>::
   b7314:	4604      	mov	r4, r0
   b7316:	460d      	mov	r5, r1
      if (static_cast<bool>(__x))
   b7318:	b12b      	cbz	r3, b7326 <_ZNSt8functionIFvRKN8particle5ErrorEEEC1ERKS5_+0x1a>
	  __x._M_manager(_M_functor, __x._M_functor, __clone_functor);
   b731a:	2202      	movs	r2, #2
   b731c:	4798      	blx	r3
	  _M_invoker = __x._M_invoker;
   b731e:	68eb      	ldr	r3, [r5, #12]
   b7320:	60e3      	str	r3, [r4, #12]
	  _M_manager = __x._M_manager;
   b7322:	68ab      	ldr	r3, [r5, #8]
   b7324:	60a3      	str	r3, [r4, #8]
    }
   b7326:	4620      	mov	r0, r4
   b7328:	bd38      	pop	{r3, r4, r5, pc}
	...

000b732c <_ZN8particle11PromiseBaseIbNS_6detail13FutureContextEE8setErrorENS_5ErrorE>:
    void setError(Error error) {
   b732c:	b5f0      	push	{r4, r5, r6, r7, lr}
   b732e:	b089      	sub	sp, #36	; 0x24
        { __shared_ptr(__p, std::move(__d), std::move(__a)).swap(*this); }

      /// Return the stored pointer.
      element_type*
      get() const noexcept
      { return _M_ptr; }
   b7330:	6804      	ldr	r4, [r0, #0]
        p_->setError(std::move(error));
   b7332:	4668      	mov	r0, sp
   b7334:	f7ff ff5a 	bl	b71ec <_ZN8particle5ErrorC1EOS0_>

      bool
      compare_exchange_strong(_Tp& __e, _Tp __i, memory_order __s,
			      memory_order __f) noexcept
      {
	return __atomic_compare_exchange(std::__addressof(_M_i),
   b7338:	f04f 0302 	mov.w	r3, #2
   b733c:	e8d4 2f4f 	ldrexb	r2, [r4]
   b7340:	2a00      	cmp	r2, #0
   b7342:	d103      	bne.n	b734c <_ZN8particle11PromiseBaseIbNS_6detail13FutureContextEE8setErrorENS_5ErrorE+0x20>
   b7344:	e8c4 3f41 	strexb	r1, r3, [r4]
   b7348:	2900      	cmp	r1, #0
   b734a:	d1f7      	bne.n	b733c <_ZN8particle11PromiseBaseIbNS_6detail13FutureContextEE8setErrorENS_5ErrorE+0x10>
        if (this->changeState(State::FAILED)) {
   b734c:	d125      	bne.n	b739a <_ZN8particle11PromiseBaseIbNS_6detail13FutureContextEE8setErrorENS_5ErrorE+0x6e>
            new(&error_) Error(std::move(error));
   b734e:	f104 050c 	add.w	r5, r4, #12
   b7352:	4669      	mov	r1, sp
   b7354:	4628      	mov	r0, r5
   b7356:	f7ff ff49 	bl	b71ec <_ZN8particle5ErrorC1EOS0_>
	__atomic_store_n(&_M_i, __i, int(__m));
   b735a:	f3bf 8f5b 	dmb	ish
   b735e:	2301      	movs	r3, #1
   b7360:	7063      	strb	r3, [r4, #1]

      _GLIBCXX_ALWAYS_INLINE __pointer_type
      exchange(__pointer_type __p,
	       memory_order __m = memory_order_seq_cst) noexcept
      {
	return __atomic_exchange_n(&_M_p, __p, int(__m));
   b7362:	2000      	movs	r0, #0
   b7364:	f104 0308 	add.w	r3, r4, #8
   b7368:	f3bf 8f5b 	dmb	ish
   b736c:	e853 6f00 	ldrex	r6, [r3]
   b7370:	e843 0200 	strex	r2, r0, [r3]
   b7374:	2a00      	cmp	r2, #0
   b7376:	d1f9      	bne.n	b736c <_ZN8particle11PromiseBaseIbNS_6detail13FutureContextEE8setErrorENS_5ErrorE+0x40>
   b7378:	f3bf 8f5b 	dmb	ish
        if (callbackPtr) {
   b737c:	b16e      	cbz	r6, b739a <_ZN8particle11PromiseBaseIbNS_6detail13FutureContextEE8setErrorENS_5ErrorE+0x6e>
        return (application_thread_current(nullptr) != 0);
   b737e:	f7ff fd67 	bl	b6e50 <application_thread_current>
        if (ContextT::isApplicationThreadCurrent()) {
   b7382:	b178      	cbz	r0, b73a4 <_ZN8particle11PromiseBaseIbNS_6detail13FutureContextEE8setErrorENS_5ErrorE+0x78>
            callback(std::forward<ArgsT>(args)...); // Synchronous call
   b7384:	4629      	mov	r1, r5
   b7386:	4630      	mov	r0, r6
   b7388:	f7ff ff8b 	bl	b72a2 <_ZNKSt8functionIFvRKN8particle5ErrorEEEclES3_>
    class function<_Res(_ArgTypes...)>
   b738c:	4630      	mov	r0, r6
   b738e:	f7ff fe8a 	bl	b70a6 <_ZNSt14_Function_baseD1Ev>
            delete callbackPtr;
   b7392:	2110      	movs	r1, #16
   b7394:	4630      	mov	r0, r6
   b7396:	f7fc fe80 	bl	b409a <_ZdlPvj>
        p_->setError(std::move(error));
   b739a:	4668      	mov	r0, sp
   b739c:	f7ff ff33 	bl	b7206 <_ZN8particle5ErrorD1Ev>
    }
   b73a0:	b009      	add	sp, #36	; 0x24
   b73a2:	bdf0      	pop	{r4, r5, r6, r7, pc}

     public:
      template<typename... _Args>
	explicit _GLIBCXX20_CONSTEXPR
	_Bind(const _Functor& __f, _Args&&... __args)
	: _M_f(__f), _M_bound_args(std::forward<_Args>(__args)...)
   b73a4:	4631      	mov	r1, r6
   b73a6:	a802      	add	r0, sp, #8
   b73a8:	f7ff ffb0 	bl	b730c <_ZNSt8functionIFvRKN8particle5ErrorEEEC1ERKS5_>
        Error(error.type_, error.msg_) {
   b73ac:	68e0      	ldr	r0, [r4, #12]
   b73ae:	f9b4 5010 	ldrsh.w	r5, [r4, #16]
        msg_(msg ? (const char*)strdup(msg) : nullptr),
   b73b2:	b108      	cbz	r0, b73b8 <_ZN8particle11PromiseBaseIbNS_6detail13FutureContextEE8setErrorENS_5ErrorE+0x8c>
   b73b4:	f002 fb52 	bl	b9a5c <strdup>
        type_(type) {
   b73b8:	9006      	str	r0, [sp, #24]
            auto callbackPtr = new std::function<void()>(std::bind(callback, std::forward<ArgsT>(args)...));
   b73ba:	2010      	movs	r0, #16
   b73bc:	f8ad 501c 	strh.w	r5, [sp, #28]
   b73c0:	f7fc fe67 	bl	b4092 <_Znwj>
   b73c4:	4605      	mov	r5, r0
   b73c6:	b1e8      	cbz	r0, b7404 <_ZN8particle11PromiseBaseIbNS_6detail13FutureContextEE8setErrorENS_5ErrorE+0xd8>
    _Function_base() : _M_manager(nullptr) { }
   b73c8:	2700      	movs	r7, #0
   b73ca:	6087      	str	r7, [r0, #8]
	{ __functor._M_access<_Functor*>() = new _Functor(std::move(__f)); }
   b73cc:	2018      	movs	r0, #24
   b73ce:	f7fc fe60 	bl	b4092 <_Znwj>
   b73d2:	4604      	mov	r4, r0
   b73d4:	b188      	cbz	r0, b73fa <_ZN8particle11PromiseBaseIbNS_6detail13FutureContextEE8setErrorENS_5ErrorE+0xce>
	std::swap(_M_functor, __x._M_functor);
   b73d6:	4601      	mov	r1, r0
    _Function_base() : _M_manager(nullptr) { }
   b73d8:	6087      	str	r7, [r0, #8]
	std::swap(_M_functor, __x._M_functor);
   b73da:	a802      	add	r0, sp, #8
   b73dc:	f7ff fe92 	bl	b7104 <_ZSt4swapISt9_Any_dataENSt9enable_ifIXsrSt6__and_IJSt6__not_ISt15__is_tuple_likeIT_EESt21is_move_constructibleIS5_ESt18is_move_assignableIS5_EEE5valueEvE4typeERS5_SF_>
      _Tp __tmp = _GLIBCXX_MOVE(__a);
   b73e0:	9b04      	ldr	r3, [sp, #16]
      __a = _GLIBCXX_MOVE(__b);
   b73e2:	68a2      	ldr	r2, [r4, #8]
      __b = _GLIBCXX_MOVE(__tmp);
   b73e4:	60a3      	str	r3, [r4, #8]
      _Tp __tmp = _GLIBCXX_MOVE(__a);
   b73e6:	9b05      	ldr	r3, [sp, #20]
      __a = _GLIBCXX_MOVE(__b);
   b73e8:	9204      	str	r2, [sp, #16]
      constexpr _Head_base(const _Head_base&) = default;
      constexpr _Head_base(_Head_base&&) = default;

      template<typename _UHead>
        constexpr _Head_base(_UHead&& __h)
	: _M_head_impl(std::forward<_UHead>(__h)) { }
   b73ea:	a906      	add	r1, sp, #24
   b73ec:	68e2      	ldr	r2, [r4, #12]
      __b = _GLIBCXX_MOVE(__tmp);
   b73ee:	60e3      	str	r3, [r4, #12]
   b73f0:	f104 0010 	add.w	r0, r4, #16
      __a = _GLIBCXX_MOVE(__b);
   b73f4:	9205      	str	r2, [sp, #20]
   b73f6:	f7ff fef9 	bl	b71ec <_ZN8particle5ErrorC1EOS0_>
	    _M_invoker = &_My_handler::_M_invoke;
   b73fa:	4b08      	ldr	r3, [pc, #32]	; (b741c <_ZN8particle11PromiseBaseIbNS_6detail13FutureContextEE8setErrorENS_5ErrorE+0xf0>)
   b73fc:	60eb      	str	r3, [r5, #12]
	    _M_manager = &_My_handler::_M_manager;
   b73fe:	4b08      	ldr	r3, [pc, #32]	; (b7420 <_ZN8particle11PromiseBaseIbNS_6detail13FutureContextEE8setErrorENS_5ErrorE+0xf4>)
	{ __functor._M_access<_Functor*>() = new _Functor(std::move(__f)); }
   b7400:	602c      	str	r4, [r5, #0]
	    _M_manager = &_My_handler::_M_manager;
   b7402:	60ab      	str	r3, [r5, #8]
    struct _Head_base<_Idx, _Head, false>
   b7404:	a806      	add	r0, sp, #24
   b7406:	f7ff fefe 	bl	b7206 <_ZN8particle5ErrorD1Ev>
    class function<_Res(_ArgTypes...)>
   b740a:	a802      	add	r0, sp, #8
   b740c:	f7ff fe4b 	bl	b70a6 <_ZNSt14_Function_baseD1Ev>
        return (application_thread_invoke(callback, data, nullptr) == 0);
   b7410:	2200      	movs	r2, #0
   b7412:	4629      	mov	r1, r5
   b7414:	4803      	ldr	r0, [pc, #12]	; (b7424 <_ZN8particle11PromiseBaseIbNS_6detail13FutureContextEE8setErrorENS_5ErrorE+0xf8>)
   b7416:	f7ff fd23 	bl	b6e60 <application_thread_invoke>
   b741a:	e7b7      	b.n	b738c <_ZN8particle11PromiseBaseIbNS_6detail13FutureContextEE8setErrorENS_5ErrorE+0x60>
   b741c:	000b72b5 	.word	0x000b72b5
   b7420:	000b7539 	.word	0x000b7539
   b7424:	000b707f 	.word	0x000b707f

000b7428 <_ZN10CloudClass13publish_eventEPKcS1_iN8particle5FlagsI15PublishFlagTypehEE>:
    desc.data = (void*)data;
    desc.funcKey = funcKey;
    return spark_function(NULL, (user_function_int_str_t*)&desc, NULL);
}

Future<bool> CloudClass::publish_event(const char *eventName, const char *eventData, int ttl, PublishFlags flags) {
   b7428:	e92d 4ff0 	stmdb	sp!, {r4, r5, r6, r7, r8, r9, sl, fp, lr}
   b742c:	b08b      	sub	sp, #44	; 0x2c
   b742e:	4605      	mov	r5, r0
   b7430:	f89d a050 	ldrb.w	sl, [sp, #80]	; 0x50
   b7434:	460f      	mov	r7, r1
   b7436:	4690      	mov	r8, r2
   b7438:	4699      	mov	r9, r3
    static void sleep(Spark_Sleep_TypeDef sleepMode, long seconds=0) __attribute__ ((deprecated("Please use System.sleep() instead.")))
    { SystemClass::sleep(sleepMode, seconds); }
    static void sleep(uint16_t wakeUpPin, InterruptMode edgeTriggerMode, long seconds=0) __attribute__ ((deprecated("Please use System.sleep() instead.")))
    { SystemClass::sleep(wakeUpPin, edgeTriggerMode, seconds); }

    static bool connected(void) { return spark_cloud_flag_connected(); }
   b743a:	f7ff fd3d 	bl	b6eb8 <spark_cloud_flag_connected>
   b743e:	ae07      	add	r6, sp, #28
    if (!connected()) {
   b7440:	4683      	mov	fp, r0
   b7442:	bb38      	cbnz	r0, b7494 <_ZN10CloudClass13publish_eventEPKcS1_iN8particle5FlagsI15PublishFlagTypehEE+0x6c>
        type_(type) {
   b7444:	f64f 732e 	movw	r3, #65326	; 0xff2e
   b7448:	9005      	str	r0, [sp, #20]
    typedef typename detail::FutureImpl<ResultT, ContextT>::OnSuccessCallback OnSuccessCallback;
    typedef typename detail::FutureImpl<ResultT, ContextT>::OnErrorCallback OnErrorCallback;

    // Construct failed future
    explicit FutureBase(Error error) :
            p_(new detail::FutureImpl<ResultT, ContextT>(std::move(error))) {
   b744a:	a905      	add	r1, sp, #20
   b744c:	4630      	mov	r0, r6
   b744e:	f8ad 3018 	strh.w	r3, [sp, #24]
   b7452:	f7ff fecb 	bl	b71ec <_ZN8particle5ErrorC1EOS0_>
   b7456:	2014      	movs	r0, #20
   b7458:	f7fc fe1b 	bl	b4092 <_Znwj>
   b745c:	4604      	mov	r4, r0
   b745e:	b148      	cbz	r0, b7474 <_ZN10CloudClass13publish_eventEPKcS1_iN8particle5FlagsI15PublishFlagTypehEE+0x4c>
      constexpr atomic(_Tp __i) noexcept : _M_i(__i) { }
   b7460:	2302      	movs	r3, #2
   b7462:	7003      	strb	r3, [r0, #0]
      constexpr __atomic_base(__int_type __i) noexcept : _M_i (__i) { }
   b7464:	2301      	movs	r3, #1
      constexpr __atomic_base(__pointer_type __p) noexcept : _M_p (__p) { }
   b7466:	e9c0 bb01 	strd	fp, fp, [r0, #4]
      constexpr __atomic_base(__int_type __i) noexcept : _M_i (__i) { }
   b746a:	7043      	strb	r3, [r0, #1]
            error_(std::move(error)) {
   b746c:	4631      	mov	r1, r6
   b746e:	300c      	adds	r0, #12
   b7470:	f7ff febc 	bl	b71ec <_ZN8particle5ErrorC1EOS0_>
	: _M_ptr(__p), _M_refcount(__p, typename is_array<_Tp>::type())
   b7474:	4628      	mov	r0, r5
	: __shared_count(__p)
   b7476:	4621      	mov	r1, r4
	: _M_ptr(__p), _M_refcount(__p, typename is_array<_Tp>::type())
   b7478:	f840 4b04 	str.w	r4, [r0], #4
	: __shared_count(__p)
   b747c:	f7ff ff32 	bl	b72e4 <_ZNSt14__shared_countILN9__gnu_cxx12_Lock_policyE0EEC1IPN8particle6detail10FutureImplIbNS5_13FutureContextEEEEET_>
            p_(new detail::FutureImpl<ResultT, ContextT>(std::move(error))) {
   b7480:	4630      	mov	r0, r6
   b7482:	f7ff fec0 	bl	b7206 <_ZN8particle5ErrorD1Ev>
    }

    explicit FutureBase(Error::Type error) :
            FutureBase(Error(error)) {
   b7486:	a805      	add	r0, sp, #20
   b7488:	f7ff febd 	bl	b7206 <_ZN8particle5ErrorD1Ev>
        p.setError(Error::UNKNOWN);
        p.fromDataPtr(d.handler_data); // Free wrapper object
    }

    return p.future();
}
   b748c:	4628      	mov	r0, r5
   b748e:	b00b      	add	sp, #44	; 0x2c
   b7490:	e8bd 8ff0 	ldmia.w	sp!, {r4, r5, r6, r7, r8, r9, sl, fp, pc}
    d.size = sizeof(spark_send_event_data);
   b7494:	230c      	movs	r3, #12
    spark_send_event_data d = {};
   b7496:	2400      	movs	r4, #0
            p_(new detail::FutureImpl<ResultT, ContextT>(State::RUNNING)) {
   b7498:	2014      	movs	r0, #20
   b749a:	e9cd 4408 	strd	r4, r4, [sp, #32]
    d.size = sizeof(spark_send_event_data);
   b749e:	9307      	str	r3, [sp, #28]
   b74a0:	f7fc fdf7 	bl	b4092 <_Znwj>
   b74a4:	4601      	mov	r1, r0
   b74a6:	b118      	cbz	r0, b74b0 <_ZN10CloudClass13publish_eventEPKcS1_iN8particle5FlagsI15PublishFlagTypehEE+0x88>
      constexpr __atomic_base(__pointer_type __p) noexcept : _M_p (__p) { }
   b74a8:	e9c0 4401 	strd	r4, r4, [r0, #4]
   b74ac:	7004      	strb	r4, [r0, #0]
      constexpr __atomic_base(__int_type __i) noexcept : _M_i (__i) { }
   b74ae:	7044      	strb	r4, [r0, #1]
   b74b0:	a804      	add	r0, sp, #16
	: _M_ptr(__p), _M_refcount(__p, typename is_array<_Tp>::type())
   b74b2:	9103      	str	r1, [sp, #12]
	: __shared_count(__p)
   b74b4:	f7ff ff16 	bl	b72e4 <_ZNSt14__shared_countILN9__gnu_cxx12_Lock_policyE0EEC1IPN8particle6detail10FutureImplIbNS5_13FutureContextEEEEET_>
    d.handler_callback = publishCompletionCallback;
   b74b8:	4b1e      	ldr	r3, [pc, #120]	; (b7534 <_ZN10CloudClass13publish_eventEPKcS1_iN8particle5FlagsI15PublishFlagTypehEE+0x10c>)
   b74ba:	9308      	str	r3, [sp, #32]
        return new detail::FutureImplPtr<ResultT, ContextT>(p_);
   b74bc:	2008      	movs	r0, #8
   b74be:	f7fc fde8 	bl	b4092 <_Znwj>
   b74c2:	4604      	mov	r4, r0
   b74c4:	b110      	cbz	r0, b74cc <_ZN10CloudClass13publish_eventEPKcS1_iN8particle5FlagsI15PublishFlagTypehEE+0xa4>
   b74c6:	a903      	add	r1, sp, #12
   b74c8:	f7ff fec7 	bl	b725a <_ZNSt12__shared_ptrIN8particle6detail10FutureImplIbNS1_13FutureContextEEELN9__gnu_cxx12_Lock_policyE0EEC1ERKS7_>
    if (!spark_send_event(eventName, eventData, ttl, flags.value(), &d) && !p.isDone()) {
   b74cc:	9600      	str	r6, [sp, #0]
   b74ce:	fa5f f38a 	uxtb.w	r3, sl
   b74d2:	464a      	mov	r2, r9
   b74d4:	4641      	mov	r1, r8
   b74d6:	4638      	mov	r0, r7
    d.handler_data = p.dataPtr();
   b74d8:	9409      	str	r4, [sp, #36]	; 0x24
    if (!spark_send_event(eventName, eventData, ttl, flags.value(), &d) && !p.isDone()) {
   b74da:	f7ff fcf5 	bl	b6ec8 <spark_send_event>
   b74de:	b9b8      	cbnz	r0, b7510 <_ZN10CloudClass13publish_eventEPKcS1_iN8particle5FlagsI15PublishFlagTypehEE+0xe8>
	return __atomic_load_n(&_M_i, int(__m));
   b74e0:	9b03      	ldr	r3, [sp, #12]
   b74e2:	785b      	ldrb	r3, [r3, #1]
   b74e4:	f003 02ff 	and.w	r2, r3, #255	; 0xff
   b74e8:	b993      	cbnz	r3, b7510 <_ZN10CloudClass13publish_eventEPKcS1_iN8particle5FlagsI15PublishFlagTypehEE+0xe8>
   b74ea:	f64f 739c 	movw	r3, #65436	; 0xff9c
        p.setError(Error::UNKNOWN);
   b74ee:	a905      	add	r1, sp, #20
   b74f0:	a803      	add	r0, sp, #12
   b74f2:	9205      	str	r2, [sp, #20]
   b74f4:	f8ad 3018 	strh.w	r3, [sp, #24]
   b74f8:	f7ff ff18 	bl	b732c <_ZN8particle11PromiseBaseIbNS_6detail13FutureContextEE8setErrorENS_5ErrorE>
   b74fc:	a805      	add	r0, sp, #20
   b74fe:	f7ff fe82 	bl	b7206 <_ZN8particle5ErrorD1Ev>
        p.fromDataPtr(d.handler_data); // Free wrapper object
   b7502:	a805      	add	r0, sp, #20
   b7504:	9909      	ldr	r1, [sp, #36]	; 0x24
   b7506:	f7ff feb1 	bl	b726c <_ZN8particle11PromiseBaseIbNS_6detail13FutureContextEE11fromDataPtrEPv>
      ~__shared_ptr() = default;
   b750a:	a806      	add	r0, sp, #24
   b750c:	f7fc feaa 	bl	b4264 <_ZNSt14__shared_countILN9__gnu_cxx12_Lock_policyE0EED1Ev>
   b7510:	a903      	add	r1, sp, #12
   b7512:	a805      	add	r0, sp, #20
   b7514:	f7ff fea1 	bl	b725a <_ZNSt12__shared_ptrIN8particle6detail10FutureImplIbNS1_13FutureContextEEELN9__gnu_cxx12_Lock_policyE0EEC1ERKS7_>
      : _M_ptr(__r._M_ptr), _M_refcount()
   b7518:	9b05      	ldr	r3, [sp, #20]
	_Sp_counted_base<_Lp>* __tmp = __r._M_pi;
   b751a:	9a06      	ldr	r2, [sp, #24]
      : _M_ptr(__r._M_ptr), _M_refcount()
   b751c:	602b      	str	r3, [r5, #0]
	_M_pi = __tmp;
   b751e:	606a      	str	r2, [r5, #4]
	__r._M_pi = _M_pi;
   b7520:	2300      	movs	r3, #0
      ~__shared_ptr() = default;
   b7522:	a806      	add	r0, sp, #24
	__r._M_pi = _M_pi;
   b7524:	9306      	str	r3, [sp, #24]
	__r._M_ptr = 0;
   b7526:	9305      	str	r3, [sp, #20]
      ~__shared_ptr() = default;
   b7528:	f7fc fe9c 	bl	b4264 <_ZNSt14__shared_countILN9__gnu_cxx12_Lock_policyE0EED1Ev>
   b752c:	a804      	add	r0, sp, #16
   b752e:	f7fc fe99 	bl	b4264 <_ZNSt14__shared_countILN9__gnu_cxx12_Lock_policyE0EED1Ev>
class Promise: public PromiseBase<ResultT, ContextT> {
   b7532:	e7ab      	b.n	b748c <_ZN10CloudClass13publish_eventEPKcS1_iN8particle5FlagsI15PublishFlagTypehEE+0x64>
   b7534:	000b75b5 	.word	0x000b75b5

000b7538 <_ZNSt17_Function_handlerIFvvESt5_BindIFSt8functionIFvRKN8particle5ErrorEEES4_EEE10_M_managerERSt9_Any_dataRKSC_St18_Manager_operation>:
	switch (__op)
   b7538:	2a01      	cmp	r2, #1
      _M_manager(_Any_data& __dest, const _Any_data& __source,
   b753a:	b5f8      	push	{r3, r4, r5, r6, r7, lr}
   b753c:	4605      	mov	r5, r0
	switch (__op)
   b753e:	d103      	bne.n	b7548 <_ZNSt17_Function_handlerIFvvESt5_BindIFSt8functionIFvRKN8particle5ErrorEEES4_EEE10_M_managerERSt9_Any_dataRKSC_St18_Manager_operation+0x10>
	    return __source._M_access<_Functor*>();
   b7540:	680b      	ldr	r3, [r1, #0]
	    __dest._M_access<_Functor*>() = _Base::_M_get_pointer(__source);
   b7542:	6003      	str	r3, [r0, #0]
      }
   b7544:	2000      	movs	r0, #0
   b7546:	bdf8      	pop	{r3, r4, r5, r6, r7, pc}
	  switch (__op)
   b7548:	2a02      	cmp	r2, #2
   b754a:	d010      	beq.n	b756e <_ZNSt17_Function_handlerIFvvESt5_BindIFSt8functionIFvRKN8particle5ErrorEEES4_EEE10_M_managerERSt9_Any_dataRKSC_St18_Manager_operation+0x36>
   b754c:	2a03      	cmp	r2, #3
   b754e:	d1f9      	bne.n	b7544 <_ZNSt17_Function_handlerIFvvESt5_BindIFSt8functionIFvRKN8particle5ErrorEEES4_EEE10_M_managerERSt9_Any_dataRKSC_St18_Manager_operation+0xc>
	  delete __victim._M_access<_Functor*>();
   b7550:	6804      	ldr	r4, [r0, #0]
   b7552:	2c00      	cmp	r4, #0
   b7554:	d0f6      	beq.n	b7544 <_ZNSt17_Function_handlerIFvvESt5_BindIFSt8functionIFvRKN8particle5ErrorEEES4_EEE10_M_managerERSt9_Any_dataRKSC_St18_Manager_operation+0xc>
   b7556:	f104 0010 	add.w	r0, r4, #16
   b755a:	f7ff fe54 	bl	b7206 <_ZN8particle5ErrorD1Ev>
    class function<_Res(_ArgTypes...)>
   b755e:	4620      	mov	r0, r4
   b7560:	f7ff fda1 	bl	b70a6 <_ZNSt14_Function_baseD1Ev>
	  delete __victim._M_access<_Functor*>();
   b7564:	2118      	movs	r1, #24
   b7566:	4620      	mov	r0, r4
   b7568:	f7fc fd97 	bl	b409a <_ZdlPvj>
   b756c:	e7ea      	b.n	b7544 <_ZNSt17_Function_handlerIFvvESt5_BindIFSt8functionIFvRKN8particle5ErrorEEES4_EEE10_M_managerERSt9_Any_dataRKSC_St18_Manager_operation+0xc>
	    new _Functor(*__source._M_access<const _Functor*>());
   b756e:	2018      	movs	r0, #24
	  __dest._M_access<_Functor*>() =
   b7570:	680e      	ldr	r6, [r1, #0]
	    new _Functor(*__source._M_access<const _Functor*>());
   b7572:	f7fc fd8e 	bl	b4092 <_Znwj>
   b7576:	4604      	mov	r4, r0
   b7578:	b150      	cbz	r0, b7590 <_ZNSt17_Function_handlerIFvvESt5_BindIFSt8functionIFvRKN8particle5ErrorEEES4_EEE10_M_managerERSt9_Any_dataRKSC_St18_Manager_operation+0x58>
	explicit _GLIBCXX20_CONSTEXPR
	_Bind(_Functor&& __f, _Args&&... __args)
	: _M_f(std::move(__f)), _M_bound_args(std::forward<_Args>(__args)...)
	{ }

      _Bind(const _Bind&) = default;
   b757a:	4631      	mov	r1, r6
   b757c:	f7ff fec6 	bl	b730c <_ZNSt8functionIFvRKN8particle5ErrorEEEC1ERKS5_>
        Error(error.type_, error.msg_) {
   b7580:	6930      	ldr	r0, [r6, #16]
   b7582:	f9b6 7014 	ldrsh.w	r7, [r6, #20]
        msg_(msg ? (const char*)strdup(msg) : nullptr),
   b7586:	b108      	cbz	r0, b758c <_ZNSt17_Function_handlerIFvvESt5_BindIFSt8functionIFvRKN8particle5ErrorEEES4_EEE10_M_managerERSt9_Any_dataRKSC_St18_Manager_operation+0x54>
   b7588:	f002 fa68 	bl	b9a5c <strdup>
        type_(type) {
   b758c:	6120      	str	r0, [r4, #16]
   b758e:	82a7      	strh	r7, [r4, #20]
	  __dest._M_access<_Functor*>() =
   b7590:	602c      	str	r4, [r5, #0]
	}
   b7592:	e7d7      	b.n	b7544 <_ZNSt17_Function_handlerIFvvESt5_BindIFSt8functionIFvRKN8particle5ErrorEEES4_EEE10_M_managerERSt9_Any_dataRKSC_St18_Manager_operation+0xc>

000b7594 <_ZNSt8functionIFvRKbEEC1ERKS3_>:
    function<_Res(_ArgTypes...)>::
   b7594:	b538      	push	{r3, r4, r5, lr}
    _Function_base() : _M_manager(nullptr) { }
   b7596:	2300      	movs	r3, #0
   b7598:	6083      	str	r3, [r0, #8]
    bool _M_empty() const { return !_M_manager; }
   b759a:	688b      	ldr	r3, [r1, #8]
    function<_Res(_ArgTypes...)>::
   b759c:	4604      	mov	r4, r0
   b759e:	460d      	mov	r5, r1
      if (static_cast<bool>(__x))
   b75a0:	b12b      	cbz	r3, b75ae <_ZNSt8functionIFvRKbEEC1ERKS3_+0x1a>
	  __x._M_manager(_M_functor, __x._M_functor, __clone_functor);
   b75a2:	2202      	movs	r2, #2
   b75a4:	4798      	blx	r3
	  _M_invoker = __x._M_invoker;
   b75a6:	68eb      	ldr	r3, [r5, #12]
   b75a8:	60e3      	str	r3, [r4, #12]
	  _M_manager = __x._M_manager;
   b75aa:	68ab      	ldr	r3, [r5, #8]
   b75ac:	60a3      	str	r3, [r4, #8]
    }
   b75ae:	4620      	mov	r0, r4
   b75b0:	bd38      	pop	{r3, r4, r5, pc}
	...

000b75b4 <_ZN12_GLOBAL__N_125publishCompletionCallbackEiPKvPvS2_>:
void publishCompletionCallback(int error, const void* data, void* callbackData, void* reserved) {
   b75b4:	b5f0      	push	{r4, r5, r6, r7, lr}
   b75b6:	b089      	sub	sp, #36	; 0x24
   b75b8:	4604      	mov	r4, r0
   b75ba:	460d      	mov	r5, r1
    auto p = Promise<bool>::fromDataPtr(callbackData);
   b75bc:	a801      	add	r0, sp, #4
   b75be:	4611      	mov	r1, r2
   b75c0:	f7ff fe54 	bl	b726c <_ZN8particle11PromiseBaseIbNS_6detail13FutureContextEE11fromDataPtrEPv>
    if (error != Error::NONE) {
   b75c4:	b1a4      	cbz	r4, b75f0 <_ZN12_GLOBAL__N_125publishCompletionCallbackEiPKvPvS2_+0x3c>
        p.setError(Error((Error::Type)error, (const char*)data));
   b75c6:	b224      	sxth	r4, r4
        msg_(msg ? (const char*)strdup(msg) : nullptr),
   b75c8:	b11d      	cbz	r5, b75d2 <_ZN12_GLOBAL__N_125publishCompletionCallbackEiPKvPvS2_+0x1e>
   b75ca:	4628      	mov	r0, r5
   b75cc:	f002 fa46 	bl	b9a5c <strdup>
   b75d0:	4605      	mov	r5, r0
   b75d2:	a801      	add	r0, sp, #4
   b75d4:	a903      	add	r1, sp, #12
        type_(type) {
   b75d6:	9503      	str	r5, [sp, #12]
   b75d8:	f8ad 4010 	strh.w	r4, [sp, #16]
   b75dc:	f7ff fea6 	bl	b732c <_ZN8particle11PromiseBaseIbNS_6detail13FutureContextEE8setErrorENS_5ErrorE>
   b75e0:	a803      	add	r0, sp, #12
   b75e2:	f7ff fe10 	bl	b7206 <_ZN8particle5ErrorD1Ev>
   b75e6:	a802      	add	r0, sp, #8
   b75e8:	f7fc fe3c 	bl	b4264 <_ZNSt14__shared_countILN9__gnu_cxx12_Lock_policyE0EED1Ev>
}
   b75ec:	b009      	add	sp, #36	; 0x24
   b75ee:	bdf0      	pop	{r4, r5, r6, r7, pc}
      { return _M_ptr; }
   b75f0:	9d01      	ldr	r5, [sp, #4]
	return __atomic_compare_exchange(std::__addressof(_M_i),
   b75f2:	2301      	movs	r3, #1
   b75f4:	e8d5 2f4f 	ldrexb	r2, [r5]
   b75f8:	2a00      	cmp	r2, #0
   b75fa:	d103      	bne.n	b7604 <_ZN12_GLOBAL__N_125publishCompletionCallbackEiPKvPvS2_+0x50>
   b75fc:	e8c5 3f41 	strexb	r1, r3, [r5]
   b7600:	2900      	cmp	r1, #0
   b7602:	d1f7      	bne.n	b75f4 <_ZN12_GLOBAL__N_125publishCompletionCallbackEiPKvPvS2_+0x40>
        if (this->changeState(State::SUCCEEDED)) {
   b7604:	d1ef      	bne.n	b75e6 <_ZN12_GLOBAL__N_125publishCompletionCallbackEiPKvPvS2_+0x32>
            new(&result_) ResultT(std::move(result));
   b7606:	732b      	strb	r3, [r5, #12]
	__atomic_store_n(&_M_i, __i, int(__m));
   b7608:	f3bf 8f5b 	dmb	ish
   b760c:	706b      	strb	r3, [r5, #1]
	return __atomic_exchange_n(&_M_p, __p, int(__m));
   b760e:	1d2b      	adds	r3, r5, #4
   b7610:	f3bf 8f5b 	dmb	ish
   b7614:	e853 6f00 	ldrex	r6, [r3]
   b7618:	e843 4200 	strex	r2, r4, [r3]
   b761c:	2a00      	cmp	r2, #0
   b761e:	d1f9      	bne.n	b7614 <_ZN12_GLOBAL__N_125publishCompletionCallbackEiPKvPvS2_+0x60>
   b7620:	f3bf 8f5b 	dmb	ish
        if (callbackPtr) {
   b7624:	2e00      	cmp	r6, #0
   b7626:	d0de      	beq.n	b75e6 <_ZN12_GLOBAL__N_125publishCompletionCallbackEiPKvPvS2_+0x32>
        return (application_thread_current(nullptr) != 0);
   b7628:	4620      	mov	r0, r4
   b762a:	f7ff fc11 	bl	b6e50 <application_thread_current>
        if (ContextT::isApplicationThreadCurrent()) {
   b762e:	4607      	mov	r7, r0
   b7630:	b160      	cbz	r0, b764c <_ZN12_GLOBAL__N_125publishCompletionCallbackEiPKvPvS2_+0x98>
            callback(std::forward<ArgsT>(args)...); // Synchronous call
   b7632:	f105 010c 	add.w	r1, r5, #12
   b7636:	4630      	mov	r0, r6
   b7638:	f7ff fe43 	bl	b72c2 <_ZNKSt8functionIFvRKbEEclES1_>
    class function<_Res(_ArgTypes...)>
   b763c:	4630      	mov	r0, r6
   b763e:	f7ff fd32 	bl	b70a6 <_ZNSt14_Function_baseD1Ev>
            delete callbackPtr;
   b7642:	2110      	movs	r1, #16
   b7644:	4630      	mov	r0, r6
   b7646:	f7fc fd28 	bl	b409a <_ZdlPvj>
   b764a:	e7cc      	b.n	b75e6 <_ZN12_GLOBAL__N_125publishCompletionCallbackEiPKvPvS2_+0x32>
	: _M_f(__f), _M_bound_args(std::forward<_Args>(__args)...)
   b764c:	4631      	mov	r1, r6
   b764e:	a803      	add	r0, sp, #12
   b7650:	f7ff ffa0 	bl	b7594 <_ZNSt8functionIFvRKbEEC1ERKS3_>
	: _M_head_impl(std::forward<_UHead>(__h)) { }
   b7654:	7b2b      	ldrb	r3, [r5, #12]
   b7656:	f88d 301c 	strb.w	r3, [sp, #28]
            auto callbackPtr = new std::function<void()>(std::bind(callback, std::forward<ArgsT>(args)...));
   b765a:	2010      	movs	r0, #16
   b765c:	f7fc fd19 	bl	b4092 <_Znwj>
   b7660:	4605      	mov	r5, r0
   b7662:	b1d0      	cbz	r0, b769a <_ZN12_GLOBAL__N_125publishCompletionCallbackEiPKvPvS2_+0xe6>
    _Function_base() : _M_manager(nullptr) { }
   b7664:	6087      	str	r7, [r0, #8]
	{ __functor._M_access<_Functor*>() = new _Functor(std::move(__f)); }
   b7666:	2014      	movs	r0, #20
   b7668:	f7fc fd13 	bl	b4092 <_Znwj>
   b766c:	4604      	mov	r4, r0
   b766e:	b178      	cbz	r0, b7690 <_ZN12_GLOBAL__N_125publishCompletionCallbackEiPKvPvS2_+0xdc>
    _Function_base() : _M_manager(nullptr) { }
   b7670:	6087      	str	r7, [r0, #8]
	std::swap(_M_functor, __x._M_functor);
   b7672:	4601      	mov	r1, r0
   b7674:	a803      	add	r0, sp, #12
   b7676:	f7ff fd45 	bl	b7104 <_ZSt4swapISt9_Any_dataENSt9enable_ifIXsrSt6__and_IJSt6__not_ISt15__is_tuple_likeIT_EESt21is_move_constructibleIS5_ESt18is_move_assignableIS5_EEE5valueEvE4typeERS5_SF_>
      _Tp __tmp = _GLIBCXX_MOVE(__a);
   b767a:	9b05      	ldr	r3, [sp, #20]
      __a = _GLIBCXX_MOVE(__b);
   b767c:	68a2      	ldr	r2, [r4, #8]
      __b = _GLIBCXX_MOVE(__tmp);
   b767e:	60a3      	str	r3, [r4, #8]
      _Tp __tmp = _GLIBCXX_MOVE(__a);
   b7680:	9b06      	ldr	r3, [sp, #24]
      __a = _GLIBCXX_MOVE(__b);
   b7682:	9205      	str	r2, [sp, #20]
   b7684:	68e2      	ldr	r2, [r4, #12]
      __b = _GLIBCXX_MOVE(__tmp);
   b7686:	60e3      	str	r3, [r4, #12]
   b7688:	f89d 301c 	ldrb.w	r3, [sp, #28]
      __a = _GLIBCXX_MOVE(__b);
   b768c:	9206      	str	r2, [sp, #24]
   b768e:	7423      	strb	r3, [r4, #16]
	    _M_invoker = &_My_handler::_M_invoke;
   b7690:	4b06      	ldr	r3, [pc, #24]	; (b76ac <_ZN12_GLOBAL__N_125publishCompletionCallbackEiPKvPvS2_+0xf8>)
   b7692:	60eb      	str	r3, [r5, #12]
	    _M_manager = &_My_handler::_M_manager;
   b7694:	4b06      	ldr	r3, [pc, #24]	; (b76b0 <_ZN12_GLOBAL__N_125publishCompletionCallbackEiPKvPvS2_+0xfc>)
	{ __functor._M_access<_Functor*>() = new _Functor(std::move(__f)); }
   b7696:	602c      	str	r4, [r5, #0]
	    _M_manager = &_My_handler::_M_manager;
   b7698:	60ab      	str	r3, [r5, #8]
    class function<_Res(_ArgTypes...)>
   b769a:	a803      	add	r0, sp, #12
   b769c:	f7ff fd03 	bl	b70a6 <_ZNSt14_Function_baseD1Ev>
        return (application_thread_invoke(callback, data, nullptr) == 0);
   b76a0:	2200      	movs	r2, #0
   b76a2:	4629      	mov	r1, r5
   b76a4:	4803      	ldr	r0, [pc, #12]	; (b76b4 <_ZN12_GLOBAL__N_125publishCompletionCallbackEiPKvPvS2_+0x100>)
   b76a6:	f7ff fbdb 	bl	b6e60 <application_thread_invoke>
   b76aa:	e7c7      	b.n	b763c <_ZN12_GLOBAL__N_125publishCompletionCallbackEiPKvPvS2_+0x88>
   b76ac:	000b72d5 	.word	0x000b72d5
   b76b0:	000b76b9 	.word	0x000b76b9
   b76b4:	000b707f 	.word	0x000b707f

000b76b8 <_ZNSt17_Function_handlerIFvvESt5_BindIFSt8functionIFvRKbEEbEEE10_M_managerERSt9_Any_dataRKSA_St18_Manager_operation>:
	switch (__op)
   b76b8:	2a01      	cmp	r2, #1
      _M_manager(_Any_data& __dest, const _Any_data& __source,
   b76ba:	b570      	push	{r4, r5, r6, lr}
   b76bc:	4604      	mov	r4, r0
	switch (__op)
   b76be:	d103      	bne.n	b76c8 <_ZNSt17_Function_handlerIFvvESt5_BindIFSt8functionIFvRKbEEbEEE10_M_managerERSt9_Any_dataRKSA_St18_Manager_operation+0x10>
	    return __source._M_access<_Functor*>();
   b76c0:	680b      	ldr	r3, [r1, #0]
	    __dest._M_access<_Functor*>() = _Base::_M_get_pointer(__source);
   b76c2:	6003      	str	r3, [r0, #0]
      }
   b76c4:	2000      	movs	r0, #0
   b76c6:	bd70      	pop	{r4, r5, r6, pc}
	  switch (__op)
   b76c8:	2a02      	cmp	r2, #2
   b76ca:	d00c      	beq.n	b76e6 <_ZNSt17_Function_handlerIFvvESt5_BindIFSt8functionIFvRKbEEbEEE10_M_managerERSt9_Any_dataRKSA_St18_Manager_operation+0x2e>
   b76cc:	2a03      	cmp	r2, #3
   b76ce:	d1f9      	bne.n	b76c4 <_ZNSt17_Function_handlerIFvvESt5_BindIFSt8functionIFvRKbEEbEEE10_M_managerERSt9_Any_dataRKSA_St18_Manager_operation+0xc>
	  delete __victim._M_access<_Functor*>();
   b76d0:	6804      	ldr	r4, [r0, #0]
   b76d2:	2c00      	cmp	r4, #0
   b76d4:	d0f6      	beq.n	b76c4 <_ZNSt17_Function_handlerIFvvESt5_BindIFSt8functionIFvRKbEEbEEE10_M_managerERSt9_Any_dataRKSA_St18_Manager_operation+0xc>
    class function<_Res(_ArgTypes...)>
   b76d6:	4620      	mov	r0, r4
   b76d8:	f7ff fce5 	bl	b70a6 <_ZNSt14_Function_baseD1Ev>
	  delete __victim._M_access<_Functor*>();
   b76dc:	2114      	movs	r1, #20
   b76de:	4620      	mov	r0, r4
   b76e0:	f7fc fcdb 	bl	b409a <_ZdlPvj>
   b76e4:	e7ee      	b.n	b76c4 <_ZNSt17_Function_handlerIFvvESt5_BindIFSt8functionIFvRKbEEbEEE10_M_managerERSt9_Any_dataRKSA_St18_Manager_operation+0xc>
	    new _Functor(*__source._M_access<const _Functor*>());
   b76e6:	2014      	movs	r0, #20
	  __dest._M_access<_Functor*>() =
   b76e8:	680e      	ldr	r6, [r1, #0]
	    new _Functor(*__source._M_access<const _Functor*>());
   b76ea:	f7fc fcd2 	bl	b4092 <_Znwj>
   b76ee:	4605      	mov	r5, r0
   b76f0:	b120      	cbz	r0, b76fc <_ZNSt17_Function_handlerIFvvESt5_BindIFSt8functionIFvRKbEEbEEE10_M_managerERSt9_Any_dataRKSA_St18_Manager_operation+0x44>
      _Bind(const _Bind&) = default;
   b76f2:	4631      	mov	r1, r6
   b76f4:	f7ff ff4e 	bl	b7594 <_ZNSt8functionIFvRKbEEC1ERKS3_>
   b76f8:	7c33      	ldrb	r3, [r6, #16]
   b76fa:	742b      	strb	r3, [r5, #16]
	  __dest._M_access<_Functor*>() =
   b76fc:	6025      	str	r5, [r4, #0]
	}
   b76fe:	e7e1      	b.n	b76c4 <_ZNSt17_Function_handlerIFvvESt5_BindIFSt8functionIFvRKbEEbEEE10_M_managerERSt9_Any_dataRKSA_St18_Manager_operation+0xc>

000b7700 <_ZN5spark13EthernetClass9listeningEv>:
    uint16_t getListenTimeout(void) {
        return network_get_listen_timeout(*this, 0, NULL);
    }

    bool listening(void) {
        return network_listening(*this, 0, NULL);
   b7700:	2200      	movs	r2, #0
   b7702:	6840      	ldr	r0, [r0, #4]
   b7704:	4611      	mov	r1, r2
   b7706:	f7ff bc2f 	b.w	b6f68 <network_listening>

000b770a <_ZN5spark13EthernetClass16getListenTimeoutEv>:
        return network_get_listen_timeout(*this, 0, NULL);
   b770a:	2200      	movs	r2, #0
   b770c:	6840      	ldr	r0, [r0, #4]
   b770e:	4611      	mov	r1, r2
   b7710:	f7ff bc3a 	b.w	b6f88 <network_get_listen_timeout>

000b7714 <_ZN5spark13EthernetClass16setListenTimeoutEt>:
        network_set_listen_timeout(*this, timeout, NULL);
   b7714:	6840      	ldr	r0, [r0, #4]
   b7716:	2200      	movs	r2, #0
   b7718:	f7ff bc2e 	b.w	b6f78 <network_set_listen_timeout>

000b771c <_ZN5spark13EthernetClass6listenEb>:
        network_listen(*this, begin ? 0 : 1, NULL);
   b771c:	6840      	ldr	r0, [r0, #4]
   b771e:	2200      	movs	r2, #0
   b7720:	f081 0101 	eor.w	r1, r1, #1
   b7724:	f7ff bc18 	b.w	b6f58 <network_listen>

000b7728 <_ZN5spark13EthernetClass3offEv>:
        network_off(*this, 0, 0, NULL);
   b7728:	2300      	movs	r3, #0
   b772a:	6840      	ldr	r0, [r0, #4]
   b772c:	461a      	mov	r2, r3
   b772e:	4619      	mov	r1, r3
   b7730:	f7ff bc0a 	b.w	b6f48 <network_off>

000b7734 <_ZN5spark13EthernetClass2onEv>:
        network_on(*this, 0, 0, NULL);
   b7734:	2300      	movs	r3, #0
   b7736:	6840      	ldr	r0, [r0, #4]
   b7738:	461a      	mov	r2, r3
   b773a:	4619      	mov	r1, r3
   b773c:	f7ff bbfc 	b.w	b6f38 <network_on>

000b7740 <_ZN5spark13EthernetClass5readyEv>:
    }

    bool ready() {
        return network_ready(*this, 0,  NULL);
   b7740:	2200      	movs	r2, #0
   b7742:	6840      	ldr	r0, [r0, #4]
   b7744:	4611      	mov	r1, r2
   b7746:	f7ff bbef 	b.w	b6f28 <network_ready>

000b774a <_ZN5spark13EthernetClass10connectingEv>:
        return network_connecting(*this, 0, NULL);
   b774a:	2200      	movs	r2, #0
   b774c:	6840      	ldr	r0, [r0, #4]
   b774e:	4611      	mov	r1, r2
   b7750:	f7ff bbda 	b.w	b6f08 <network_connecting>

000b7754 <_ZN5spark13EthernetClass10disconnectEv>:
        network_disconnect(*this, NETWORK_DISCONNECT_REASON_USER, NULL);
   b7754:	6840      	ldr	r0, [r0, #4]
   b7756:	2200      	movs	r2, #0
   b7758:	2102      	movs	r1, #2
   b775a:	f7ff bbdd 	b.w	b6f18 <network_disconnect>

000b775e <_ZN5spark13EthernetClass7connectEj>:
        network_connect(*this, flags, 0, NULL);
   b775e:	2300      	movs	r3, #0
   b7760:	6840      	ldr	r0, [r0, #4]
   b7762:	461a      	mov	r2, r3
   b7764:	f7ff bbc8 	b.w	b6ef8 <network_connect>

000b7768 <_GLOBAL__sub_I__ZN5spark8EthernetE>:
   b7768:	4b02      	ldr	r3, [pc, #8]	; (b7774 <_GLOBAL__sub_I__ZN5spark8EthernetE+0xc>)
   b776a:	2203      	movs	r2, #3
   b776c:	605a      	str	r2, [r3, #4]
            NetworkClass(NETWORK_INTERFACE_ETHERNET) {
   b776e:	4a02      	ldr	r2, [pc, #8]	; (b7778 <_GLOBAL__sub_I__ZN5spark8EthernetE+0x10>)
   b7770:	601a      	str	r2, [r3, #0]

namespace spark {

EthernetClass Ethernet;

} // spark
   b7772:	4770      	bx	lr
   b7774:	2003e69c 	.word	0x2003e69c
   b7778:	000babf4 	.word	0x000babf4

000b777c <_ZN7TwoWireD1Ev>:
private:
  hal_i2c_interface_t _i2c;

public:
  TwoWire(hal_i2c_interface_t i2c, const hal_i2c_config_t& config);
  virtual ~TwoWire() {};
   b777c:	4770      	bx	lr

000b777e <_ZN7TwoWire5writeEPKhj>:

// must be called in:
// slave tx event callback
// or after beginTransmission(address)
size_t TwoWire::write(const uint8_t *data, size_t quantity)
{
   b777e:	b5f8      	push	{r3, r4, r5, r6, r7, lr}
   b7780:	4606      	mov	r6, r0
   b7782:	4615      	mov	r5, r2
   b7784:	460c      	mov	r4, r1
   b7786:	188f      	adds	r7, r1, r2
  // in master/slave transmitter mode
  for(size_t i = 0; i < quantity; ++i)
   b7788:	42bc      	cmp	r4, r7
   b778a:	d006      	beq.n	b779a <_ZN7TwoWire5writeEPKhj+0x1c>
  {
    write(data[i]);
   b778c:	6833      	ldr	r3, [r6, #0]
   b778e:	f814 1b01 	ldrb.w	r1, [r4], #1
   b7792:	689b      	ldr	r3, [r3, #8]
   b7794:	4630      	mov	r0, r6
   b7796:	4798      	blx	r3
  for(size_t i = 0; i < quantity; ++i)
   b7798:	e7f6      	b.n	b7788 <_ZN7TwoWire5writeEPKhj+0xa>
  }

  return quantity;
}
   b779a:	4628      	mov	r0, r5
   b779c:	bdf8      	pop	{r3, r4, r5, r6, r7, pc}

000b779e <_ZN7TwoWire5writeEh>:
  return hal_i2c_write(_i2c, data, NULL);
   b779e:	7c00      	ldrb	r0, [r0, #16]
   b77a0:	2200      	movs	r2, #0
   b77a2:	f7ff ba25 	b.w	b6bf0 <hal_i2c_write>

000b77a6 <_ZN7TwoWire9availableEv>:
// must be called in:
// slave rx event callback
// or after requestFrom(address, numBytes)
int TwoWire::available(void)
{
  return hal_i2c_available(_i2c, NULL);
   b77a6:	7c00      	ldrb	r0, [r0, #16]
   b77a8:	2100      	movs	r1, #0
   b77aa:	f7ff ba29 	b.w	b6c00 <hal_i2c_available>

000b77ae <_ZN7TwoWire4readEv>:
// must be called in:
// slave rx event callback
// or after requestFrom(address, numBytes)
int TwoWire::read(void)
{
  return hal_i2c_read(_i2c, NULL);
   b77ae:	7c00      	ldrb	r0, [r0, #16]
   b77b0:	2100      	movs	r1, #0
   b77b2:	f7ff ba2d 	b.w	b6c10 <hal_i2c_read>

000b77b6 <_ZN7TwoWire4peekEv>:
// must be called in:
// slave rx event callback
// or after requestFrom(address, numBytes)
int TwoWire::peek(void)
{
  return hal_i2c_peek(_i2c, NULL);
   b77b6:	7c00      	ldrb	r0, [r0, #16]
   b77b8:	2100      	movs	r1, #0
   b77ba:	f7ff ba31 	b.w	b6c20 <hal_i2c_peek>

000b77be <_ZN7TwoWire5flushEv>:
}

void TwoWire::flush(void)
{
  hal_i2c_flush(_i2c, NULL);
   b77be:	7c00      	ldrb	r0, [r0, #16]
   b77c0:	2100      	movs	r1, #0
   b77c2:	f7ff ba35 	b.w	b6c30 <hal_i2c_flush>

000b77c6 <_ZN7TwoWireD0Ev>:
   b77c6:	b510      	push	{r4, lr}
   b77c8:	2114      	movs	r1, #20
   b77ca:	4604      	mov	r4, r0
   b77cc:	f7fc fc65 	bl	b409a <_ZdlPvj>
   b77d0:	4620      	mov	r0, r4
   b77d2:	bd10      	pop	{r4, pc}

000b77d4 <_ZN7TwoWireC1E19hal_i2c_interface_tRK16hal_i2c_config_t>:
TwoWire::TwoWire(hal_i2c_interface_t i2c, const hal_i2c_config_t& conf)
   b77d4:	b538      	push	{r3, r4, r5, lr}
   b77d6:	4604      	mov	r4, r0
   b77d8:	4615      	mov	r5, r2
    virtual int available() = 0;
    virtual int read() = 0;
    virtual int peek() = 0;
    virtual void flush() = 0;

    Stream() {_timeout=1000;}
   b77da:	f44f 737a 	mov.w	r3, #1000	; 0x3e8
   b77de:	2200      	movs	r2, #0
   b77e0:	e9c4 2301 	strd	r2, r3, [r4, #4]
   b77e4:	4b09      	ldr	r3, [pc, #36]	; (b780c <_ZN7TwoWireC1E19hal_i2c_interface_tRK16hal_i2c_config_t+0x38>)
  _i2c = i2c;
   b77e6:	7421      	strb	r1, [r4, #16]
TwoWire::TwoWire(hal_i2c_interface_t i2c, const hal_i2c_config_t& conf)
   b77e8:	4608      	mov	r0, r1
   b77ea:	6023      	str	r3, [r4, #0]
  int result = hal_i2c_init(_i2c, &conf);
   b77ec:	4629      	mov	r1, r5
   b77ee:	f7ff fa27 	bl	b6c40 <hal_i2c_init>
  if (result == SYSTEM_ERROR_NOT_ENOUGH_DATA && 
   b77f2:	30bf      	adds	r0, #191	; 0xbf
   b77f4:	d108      	bne.n	b7808 <_ZN7TwoWireC1E19hal_i2c_interface_tRK16hal_i2c_config_t+0x34>
      (conf.flags & HAL_I2C_CONFIG_FLAG_FREEABLE)) {
   b77f6:	696b      	ldr	r3, [r5, #20]
  if (result == SYSTEM_ERROR_NOT_ENOUGH_DATA && 
   b77f8:	07db      	lsls	r3, r3, #31
   b77fa:	d505      	bpl.n	b7808 <_ZN7TwoWireC1E19hal_i2c_interface_tRK16hal_i2c_config_t+0x34>
    free(conf.rx_buffer);
   b77fc:	6868      	ldr	r0, [r5, #4]
   b77fe:	f7ff fbe3 	bl	b6fc8 <free>
    free(conf.tx_buffer);
   b7802:	68e8      	ldr	r0, [r5, #12]
   b7804:	f7ff fbe0 	bl	b6fc8 <free>
}
   b7808:	4620      	mov	r0, r4
   b780a:	bd38      	pop	{r3, r4, r5, pc}
   b780c:	000bac30 	.word	0x000bac30

000b7810 <_ZN7TwoWire5beginEv>:
	hal_i2c_begin(_i2c, I2C_MODE_MASTER, 0x00, NULL);
   b7810:	2300      	movs	r3, #0
   b7812:	7c00      	ldrb	r0, [r0, #16]
   b7814:	461a      	mov	r2, r3
   b7816:	4619      	mov	r1, r3
   b7818:	f7ff b9d2 	b.w	b6bc0 <hal_i2c_begin>

000b781c <_ZN7TwoWire11requestFromERK16WireTransmission>:
size_t TwoWire::requestFrom(const WireTransmission& transfer) {
   b781c:	b57f      	push	{r0, r1, r2, r3, r4, r5, r6, lr}
    hal_i2c_transmission_config_t conf = {
   b781e:	2200      	movs	r2, #0
   b7820:	2314      	movs	r3, #20
   b7822:	e9cd 2201 	strd	r2, r2, [sp, #4]
   b7826:	f8ad 3004 	strh.w	r3, [sp, #4]
    };
   b782a:	780b      	ldrb	r3, [r1, #0]
   b782c:	f88d 3008 	strb.w	r3, [sp, #8]
   b7830:	684b      	ldr	r3, [r1, #4]
   b7832:	9303      	str	r3, [sp, #12]
   b7834:	68cb      	ldr	r3, [r1, #12]
   b7836:	9304      	str	r3, [sp, #16]
  return hal_i2c_request_ex(_i2c, &conf, nullptr);
   b7838:	7c00      	ldrb	r0, [r0, #16]
      .flags = (uint32_t)(stop_ ? HAL_I2C_TRANSMISSION_FLAG_STOP : 0)
   b783a:	7a0b      	ldrb	r3, [r1, #8]
   b783c:	9305      	str	r3, [sp, #20]
   b783e:	a901      	add	r1, sp, #4
   b7840:	f7ff fa16 	bl	b6c70 <hal_i2c_request_ex>
}
   b7844:	b007      	add	sp, #28
   b7846:	f85d fb04 	ldr.w	pc, [sp], #4

000b784a <_ZN7TwoWire11requestFromEhjh>:
{
   b784a:	b51f      	push	{r0, r1, r2, r3, r4, lr}
  return requestFrom(WireTransmission(address).quantity(quantity).stop(sendStop));
   b784c:	3b00      	subs	r3, #0
        timeout_{HAL_I2C_DEFAULT_TIMEOUT_MS} {
   b784e:	f88d 1000 	strb.w	r1, [sp]
   b7852:	f04f 0164 	mov.w	r1, #100	; 0x64
   b7856:	9103      	str	r1, [sp, #12]
   b7858:	bf18      	it	ne
   b785a:	2301      	movne	r3, #1
   b785c:	4669      	mov	r1, sp
    size_ = size;
   b785e:	9201      	str	r2, [sp, #4]
   b7860:	f88d 3008 	strb.w	r3, [sp, #8]
   b7864:	f7ff ffda 	bl	b781c <_ZN7TwoWire11requestFromERK16WireTransmission>
}
   b7868:	b005      	add	sp, #20
   b786a:	f85d fb04 	ldr.w	pc, [sp], #4

000b786e <_ZN7TwoWire17beginTransmissionEh>:
	hal_i2c_begin_transmission(_i2c, address, NULL);
   b786e:	7c00      	ldrb	r0, [r0, #16]
   b7870:	2200      	movs	r2, #0
   b7872:	f7ff b9ad 	b.w	b6bd0 <hal_i2c_begin_transmission>

000b7876 <_ZN7TwoWire17beginTransmissionEi>:
  beginTransmission((uint8_t)address);
   b7876:	b2c9      	uxtb	r1, r1
   b7878:	f7ff bff9 	b.w	b786e <_ZN7TwoWire17beginTransmissionEh>

000b787c <_ZN7TwoWire15endTransmissionEh>:
	return hal_i2c_end_transmission(_i2c, sendStop, NULL);
   b787c:	7c00      	ldrb	r0, [r0, #16]
   b787e:	2200      	movs	r2, #0
   b7880:	f7ff b9ae 	b.w	b6be0 <hal_i2c_end_transmission>

000b7884 <_ZN7TwoWire4lockEv>:
{
  hal_i2c_reset(_i2c, 0, NULL);
}

bool TwoWire::lock()
{
   b7884:	b508      	push	{r3, lr}
  return hal_i2c_lock(_i2c, NULL) == 0;
   b7886:	2100      	movs	r1, #0
   b7888:	7c00      	ldrb	r0, [r0, #16]
   b788a:	f7ff f9e1 	bl	b6c50 <hal_i2c_lock>
}
   b788e:	fab0 f080 	clz	r0, r0
   b7892:	0940      	lsrs	r0, r0, #5
   b7894:	bd08      	pop	{r3, pc}

000b7896 <_ZN7TwoWire6unlockEv>:

bool TwoWire::unlock()
{
   b7896:	b508      	push	{r3, lr}
  return hal_i2c_unlock(_i2c, NULL) == 0;
   b7898:	2100      	movs	r1, #0
   b789a:	7c00      	ldrb	r0, [r0, #16]
   b789c:	f7ff f9e0 	bl	b6c60 <hal_i2c_unlock>
}
   b78a0:	fab0 f080 	clz	r0, r0
   b78a4:	0940      	lsrs	r0, r0, #5
   b78a6:	bd08      	pop	{r3, pc}

000b78a8 <_ZN9IPAddressD1Ev>:
    IPAddress(uint32_t address);
    // 4 bytes defining the IP address in network order
    IPAddress(const uint8_t* address);
    IPAddress(const HAL_IPAddress& address);

    virtual ~IPAddress() {}
   b78a8:	4770      	bx	lr

000b78aa <_ZN9IPAddressD0Ev>:
   b78aa:	b510      	push	{r4, lr}
   b78ac:	2118      	movs	r1, #24
   b78ae:	4604      	mov	r4, r0
   b78b0:	f7fc fbf3 	bl	b409a <_ZdlPvj>
   b78b4:	4620      	mov	r0, r4
   b78b6:	bd10      	pop	{r4, pc}

000b78b8 <_ZNK9IPAddress7printToER5Print>:
#endif // Wiring_IPv6
	return address.ipv4==that.address.ipv4;
}

size_t IPAddress::printTo(Print& p) const
{
   b78b8:	b5f0      	push	{r4, r5, r6, r7, lr}
#if Wiring_IPv6
#if HAL_USE_INET_HAL_POSIX
	if (address.v==6) {
   b78ba:	7d03      	ldrb	r3, [r0, #20]
   b78bc:	2b06      	cmp	r3, #6
{
   b78be:	b08d      	sub	sp, #52	; 0x34
   b78c0:	460e      	mov	r6, r1
		char buf[INET6_ADDRSTRLEN+1];
		buf[0] = 0;
		inet_inet_ntop(AF_INET6, address.ipv6, buf, sizeof(buf));
   b78c2:	f100 0704 	add.w	r7, r0, #4
   b78c6:	f04f 0400 	mov.w	r4, #0
	if (address.v==6) {
   b78ca:	d012      	beq.n	b78f2 <_ZNK9IPAddress7printToER5Print+0x3a>
   b78cc:	f100 0508 	add.w	r5, r0, #8
            val = n;
        }
#if __GNUC__ >= 9
#pragma GCC diagnostic pop
#endif // __GNUC__ >= 9
        return printNumber(val, base) + t;
   b78d0:	f815 1d01 	ldrb.w	r1, [r5, #-1]!
   b78d4:	220a      	movs	r2, #10
   b78d6:	4630      	mov	r0, r6
   b78d8:	f001 fa93 	bl	b8e02 <_ZN5Print11printNumberEmh>
#else
#pragma message "HAL_USE_INET_HAL_POSIX is required for IPv6 support in IPAddress::printTo()"
#endif // HAL_USE_INET_HAL_POSIX
#endif // Wiring_IPv6
    size_t n = 0;
    for (int i = 0; i < 4; i++)
   b78dc:	42af      	cmp	r7, r5
    {
        if (n)
            n += p.print('.');
        n += p.print((*this)[i], DEC);
   b78de:	4404      	add	r4, r0
    for (int i = 0; i < 4; i++)
   b78e0:	d019      	beq.n	b7916 <_ZNK9IPAddress7printToER5Print+0x5e>
        if (n)
   b78e2:	2c00      	cmp	r4, #0
   b78e4:	d0f4      	beq.n	b78d0 <_ZNK9IPAddress7printToER5Print+0x18>
            n += p.print('.');
   b78e6:	212e      	movs	r1, #46	; 0x2e
   b78e8:	4630      	mov	r0, r6
   b78ea:	f001 fa7b 	bl	b8de4 <_ZN5Print5printEc>
   b78ee:	4404      	add	r4, r0
   b78f0:	e7ee      	b.n	b78d0 <_ZNK9IPAddress7printToER5Print+0x18>
		inet_inet_ntop(AF_INET6, address.ipv6, buf, sizeof(buf));
   b78f2:	232f      	movs	r3, #47	; 0x2f
   b78f4:	466a      	mov	r2, sp
   b78f6:	4639      	mov	r1, r7
   b78f8:	200a      	movs	r0, #10
		buf[0] = 0;
   b78fa:	f88d 4000 	strb.w	r4, [sp]
		inet_inet_ntop(AF_INET6, address.ipv6, buf, sizeof(buf));
   b78fe:	f7ff f9bf 	bl	b6c80 <inet_inet_ntop>
      return write((const uint8_t *)str, strlen(str));
   b7902:	4668      	mov	r0, sp
   b7904:	f002 f8c7 	bl	b9a96 <strlen>
   b7908:	6833      	ldr	r3, [r6, #0]
   b790a:	4602      	mov	r2, r0
   b790c:	68db      	ldr	r3, [r3, #12]
   b790e:	4669      	mov	r1, sp
   b7910:	4630      	mov	r0, r6
   b7912:	4798      	blx	r3
   b7914:	4604      	mov	r4, r0
    }
    return n;
}
   b7916:	4620      	mov	r0, r4
   b7918:	b00d      	add	sp, #52	; 0x34
   b791a:	bdf0      	pop	{r4, r5, r6, r7, pc}

000b791c <_ZN9IPAddressC1Ev>:
IPAddress::IPAddress()
   b791c:	b510      	push	{r4, lr}
   b791e:	4b05      	ldr	r3, [pc, #20]	; (b7934 <_ZN9IPAddressC1Ev+0x18>)
   b7920:	4604      	mov	r4, r0
        return address;
    }

    virtual size_t printTo(Print& p) const;

    void clear() { memset(&address, 0, sizeof (address)); }
   b7922:	2211      	movs	r2, #17
   b7924:	f840 3b04 	str.w	r3, [r0], #4
   b7928:	2100      	movs	r1, #0
   b792a:	f001 fff9 	bl	b9920 <memset>
}
   b792e:	4620      	mov	r0, r4
   b7930:	bd10      	pop	{r4, pc}
   b7932:	bf00      	nop
   b7934:	000bac58 	.word	0x000bac58

000b7938 <_ZN9IPAddressC1ERK16_HAL_IPAddress_t>:
IPAddress::IPAddress(const HAL_IPAddress& address)
   b7938:	4603      	mov	r3, r0
   b793a:	4a07      	ldr	r2, [pc, #28]	; (b7958 <_ZN9IPAddressC1ERK16_HAL_IPAddress_t+0x20>)
   b793c:	b510      	push	{r4, lr}
   b793e:	f843 2b04 	str.w	r2, [r3], #4
    memcpy(&this->address, &address, sizeof(address));
   b7942:	f101 0210 	add.w	r2, r1, #16
   b7946:	f851 4b04 	ldr.w	r4, [r1], #4
   b794a:	f843 4b04 	str.w	r4, [r3], #4
   b794e:	4291      	cmp	r1, r2
   b7950:	d1f9      	bne.n	b7946 <_ZN9IPAddressC1ERK16_HAL_IPAddress_t+0xe>
   b7952:	780a      	ldrb	r2, [r1, #0]
   b7954:	701a      	strb	r2, [r3, #0]
}
   b7956:	bd10      	pop	{r4, pc}
   b7958:	000bac58 	.word	0x000bac58

000b795c <_ZN9IPAddress8set_ipv4Ehhhh>:
{
   b795c:	b510      	push	{r4, lr}
    address.ipv4 = b0<<24 | b1 << 16 | b2 << 8 | b3;
   b795e:	f89d 4008 	ldrb.w	r4, [sp, #8]
   b7962:	ea44 2303 	orr.w	r3, r4, r3, lsl #8
   b7966:	ea43 4202 	orr.w	r2, r3, r2, lsl #16
   b796a:	ea42 6101 	orr.w	r1, r2, r1, lsl #24
        address.v = version;
   b796e:	2304      	movs	r3, #4
   b7970:	6041      	str	r1, [r0, #4]
   b7972:	7503      	strb	r3, [r0, #20]
}
   b7974:	bd10      	pop	{r4, pc}
	...

000b7978 <_ZN9IPAddressC1EPKh>:
IPAddress::IPAddress(const uint8_t* addr)
   b7978:	b507      	push	{r0, r1, r2, lr}
   b797a:	4b06      	ldr	r3, [pc, #24]	; (b7994 <_ZN9IPAddressC1EPKh+0x1c>)
   b797c:	6003      	str	r3, [r0, #0]
    set_ipv4(addr[0], addr[1], addr[2], addr[3]);
   b797e:	78cb      	ldrb	r3, [r1, #3]
   b7980:	9300      	str	r3, [sp, #0]
   b7982:	788b      	ldrb	r3, [r1, #2]
   b7984:	784a      	ldrb	r2, [r1, #1]
   b7986:	7809      	ldrb	r1, [r1, #0]
   b7988:	f7ff ffe8 	bl	b795c <_ZN9IPAddress8set_ipv4Ehhhh>
}
   b798c:	b003      	add	sp, #12
   b798e:	f85d fb04 	ldr.w	pc, [sp], #4
   b7992:	bf00      	nop
   b7994:	000bac58 	.word	0x000bac58

000b7998 <_ZN12_GLOBAL__N_19skipTokenEPK9jsmntok_t>:

namespace {

// Skips token and all its children tokens if any
const jsmntok_t* skipToken(const jsmntok_t *t) {
    size_t n = 1;
   b7998:	f100 0310 	add.w	r3, r0, #16
   b799c:	2201      	movs	r2, #1
    do {
        if (t->type == JSMN_OBJECT) {
   b799e:	f813 1c10 	ldrb.w	r1, [r3, #-16]
   b79a2:	2901      	cmp	r1, #1
   b79a4:	4618      	mov	r0, r3
   b79a6:	d108      	bne.n	b79ba <_ZN12_GLOBAL__N_19skipTokenEPK9jsmntok_t+0x22>
            n += t->size * 2; // Number of name and value tokens
   b79a8:	f853 1c04 	ldr.w	r1, [r3, #-4]
   b79ac:	eb02 0241 	add.w	r2, r2, r1, lsl #1
        } else if (t->type == JSMN_ARRAY) {
            n += t->size; // Number of value tokens
        }
        ++t;
        --n;
    } while (n);
   b79b0:	3a01      	subs	r2, #1
   b79b2:	f103 0310 	add.w	r3, r3, #16
   b79b6:	d1f2      	bne.n	b799e <_ZN12_GLOBAL__N_19skipTokenEPK9jsmntok_t+0x6>
    return t;
}
   b79b8:	4770      	bx	lr
        } else if (t->type == JSMN_ARRAY) {
   b79ba:	2902      	cmp	r1, #2
            n += t->size; // Number of value tokens
   b79bc:	bf04      	itt	eq
   b79be:	f853 1c04 	ldreq.w	r1, [r3, #-4]
   b79c2:	1852      	addeq	r2, r2, r1
   b79c4:	e7f4      	b.n	b79b0 <_ZN12_GLOBAL__N_19skipTokenEPK9jsmntok_t+0x18>

000b79c6 <_ZN5spark10JSONWriter6printfEPKcz>:
    write("null", 4);
    state_ = NEXT;
    return *this;
}

void spark::JSONWriter::printf(const char *fmt, ...) {
   b79c6:	b40e      	push	{r1, r2, r3}
   b79c8:	b5f0      	push	{r4, r5, r6, r7, lr}
   b79ca:	b088      	sub	sp, #32
   b79cc:	af00      	add	r7, sp, #0
   b79ce:	f107 0534 	add.w	r5, r7, #52	; 0x34
    char buf[16];
    va_list args;
    va_start(args, fmt);
    int n = vsnprintf(buf, sizeof(buf), fmt, args);
   b79d2:	2110      	movs	r1, #16
void spark::JSONWriter::printf(const char *fmt, ...) {
   b79d4:	f855 2b04 	ldr.w	r2, [r5], #4
    int n = vsnprintf(buf, sizeof(buf), fmt, args);
   b79d8:	607a      	str	r2, [r7, #4]
void spark::JSONWriter::printf(const char *fmt, ...) {
   b79da:	4604      	mov	r4, r0
    int n = vsnprintf(buf, sizeof(buf), fmt, args);
   b79dc:	462b      	mov	r3, r5
   b79de:	1878      	adds	r0, r7, r1
    va_start(args, fmt);
   b79e0:	60fd      	str	r5, [r7, #12]
    int n = vsnprintf(buf, sizeof(buf), fmt, args);
   b79e2:	f7ff fb19 	bl	b7018 <vsnprintf>
    va_end(args);
    if ((size_t)n >= sizeof(buf)) {
   b79e6:	280f      	cmp	r0, #15
   b79e8:	687a      	ldr	r2, [r7, #4]
   b79ea:	d91a      	bls.n	b7a22 <_ZN5spark10JSONWriter6printfEPKcz+0x5c>
        char buf[n + 1]; // Use larger buffer
   b79ec:	f100 0308 	add.w	r3, r0, #8
   b79f0:	f023 0307 	bic.w	r3, r3, #7
        va_start(args, fmt);
        n = vsnprintf(buf, sizeof(buf), fmt, args);
        va_end(args);
        if (n > 0) {
            write(buf, n);
        }
   b79f4:	466e      	mov	r6, sp
        char buf[n + 1]; // Use larger buffer
   b79f6:	ebad 0d03 	sub.w	sp, sp, r3
        n = vsnprintf(buf, sizeof(buf), fmt, args);
   b79fa:	1c41      	adds	r1, r0, #1
   b79fc:	462b      	mov	r3, r5
   b79fe:	4668      	mov	r0, sp
        va_start(args, fmt);
   b7a00:	60fd      	str	r5, [r7, #12]
        n = vsnprintf(buf, sizeof(buf), fmt, args);
   b7a02:	f7ff fb09 	bl	b7018 <vsnprintf>
        if (n > 0) {
   b7a06:	1e02      	subs	r2, r0, #0
   b7a08:	dd04      	ble.n	b7a14 <_ZN5spark10JSONWriter6printfEPKcz+0x4e>
            write(buf, n);
   b7a0a:	6823      	ldr	r3, [r4, #0]
   b7a0c:	4669      	mov	r1, sp
   b7a0e:	689b      	ldr	r3, [r3, #8]
   b7a10:	4620      	mov	r0, r4
   b7a12:	4798      	blx	r3
   b7a14:	46b5      	mov	sp, r6
    } else if (n > 0) {
        write(buf, n);
    }
}
   b7a16:	3720      	adds	r7, #32
   b7a18:	46bd      	mov	sp, r7
   b7a1a:	e8bd 40f0 	ldmia.w	sp!, {r4, r5, r6, r7, lr}
   b7a1e:	b003      	add	sp, #12
   b7a20:	4770      	bx	lr
    } else if (n > 0) {
   b7a22:	2800      	cmp	r0, #0
   b7a24:	d0f7      	beq.n	b7a16 <_ZN5spark10JSONWriter6printfEPKcz+0x50>
        write(buf, n);
   b7a26:	6823      	ldr	r3, [r4, #0]
   b7a28:	4602      	mov	r2, r0
   b7a2a:	689b      	ldr	r3, [r3, #8]
   b7a2c:	f107 0110 	add.w	r1, r7, #16
   b7a30:	4620      	mov	r0, r4
   b7a32:	4798      	blx	r3
}
   b7a34:	e7ef      	b.n	b7a16 <_ZN5spark10JSONWriter6printfEPKcz+0x50>

000b7a36 <_ZNSt12__shared_ptrIN5spark6detail8JSONDataELN9__gnu_cxx12_Lock_policyE0EEaSERKS5_.isra.0>:
      __shared_ptr& operator=(const __shared_ptr&) noexcept = default;
   b7a36:	b538      	push	{r3, r4, r5, lr}
   b7a38:	680b      	ldr	r3, [r1, #0]
   b7a3a:	6003      	str	r3, [r0, #0]
   b7a3c:	684d      	ldr	r5, [r1, #4]
	if (__tmp != _M_pi)
   b7a3e:	6843      	ldr	r3, [r0, #4]
   b7a40:	429d      	cmp	r5, r3
      __shared_ptr& operator=(const __shared_ptr&) noexcept = default;
   b7a42:	4604      	mov	r4, r0
	if (__tmp != _M_pi)
   b7a44:	d008      	beq.n	b7a58 <_ZNSt12__shared_ptrIN5spark6detail8JSONDataELN9__gnu_cxx12_Lock_policyE0EEaSERKS5_.isra.0+0x22>
	    if (__tmp != 0)
   b7a46:	b115      	cbz	r5, b7a4e <_ZNSt12__shared_ptrIN5spark6detail8JSONDataELN9__gnu_cxx12_Lock_policyE0EEaSERKS5_.isra.0+0x18>
    { ++_M_use_count; }
   b7a48:	686b      	ldr	r3, [r5, #4]
   b7a4a:	3301      	adds	r3, #1
   b7a4c:	606b      	str	r3, [r5, #4]
	    if (_M_pi != 0)
   b7a4e:	6860      	ldr	r0, [r4, #4]
   b7a50:	b108      	cbz	r0, b7a56 <_ZNSt12__shared_ptrIN5spark6detail8JSONDataELN9__gnu_cxx12_Lock_policyE0EEaSERKS5_.isra.0+0x20>
	      _M_pi->_M_release();
   b7a52:	f7ff fb31 	bl	b70b8 <_ZNSt16_Sp_counted_baseILN9__gnu_cxx12_Lock_policyE0EE10_M_releaseEv>
	    _M_pi = __tmp;
   b7a56:	6065      	str	r5, [r4, #4]
      __shared_ptr& operator=(const __shared_ptr&) noexcept = default;
   b7a58:	bd38      	pop	{r3, r4, r5, pc}

000b7a5a <_ZN5spark10JSONWriter5writeEc>:

inline spark::JSONWriter& spark::JSONWriter::value(const String &val) {
    return value(val.c_str(), val.length());
}

inline void spark::JSONWriter::write(char c) {
   b7a5a:	b507      	push	{r0, r1, r2, lr}
    write(&c, 1);
   b7a5c:	6803      	ldr	r3, [r0, #0]
inline void spark::JSONWriter::write(char c) {
   b7a5e:	f88d 1007 	strb.w	r1, [sp, #7]
    write(&c, 1);
   b7a62:	689b      	ldr	r3, [r3, #8]
   b7a64:	2201      	movs	r2, #1
   b7a66:	f10d 0107 	add.w	r1, sp, #7
   b7a6a:	4798      	blx	r3
}
   b7a6c:	b003      	add	sp, #12
   b7a6e:	f85d fb04 	ldr.w	pc, [sp], #4

000b7a72 <_ZN5spark9JSONValueC1EPK9jsmntok_tSt10shared_ptrINS_6detail8JSONDataEE>:
spark::JSONValue::JSONValue(const jsmntok_t *t, detail::JSONDataPtr d) :
   b7a72:	460b      	mov	r3, r1
   b7a74:	4611      	mov	r1, r2
      : _M_ptr(0), _M_refcount()
   b7a76:	2200      	movs	r2, #0
   b7a78:	b510      	push	{r4, lr}
      constexpr __shared_count() noexcept : _M_pi(0)
   b7a7a:	e9c0 2200 	strd	r2, r2, [r0]
   b7a7e:	4604      	mov	r4, r0
        t_ = t;
   b7a80:	6083      	str	r3, [r0, #8]
    if (t) {
   b7a82:	b90b      	cbnz	r3, b7a88 <_ZN5spark9JSONValueC1EPK9jsmntok_tSt10shared_ptrINS_6detail8JSONDataEE+0x16>
}
   b7a84:	4620      	mov	r0, r4
   b7a86:	bd10      	pop	{r4, pc}
       *  @brief  Construct an empty %shared_ptr.
       *  @post   use_count() == 0 && get() == nullptr
       */
      constexpr shared_ptr(nullptr_t) noexcept : shared_ptr() { }

      shared_ptr& operator=(const shared_ptr&) noexcept = default;
   b7a88:	f7ff ffd5 	bl	b7a36 <_ZNSt12__shared_ptrIN5spark6detail8JSONDataELN9__gnu_cxx12_Lock_policyE0EEaSERKS5_.isra.0>
   b7a8c:	e7fa      	b.n	b7a84 <_ZN5spark9JSONValueC1EPK9jsmntok_tSt10shared_ptrINS_6detail8JSONDataEE+0x12>

000b7a8e <_ZNK5spark9JSONValue4typeEv>:
    if (!t_) {
   b7a8e:	6883      	ldr	r3, [r0, #8]
   b7a90:	b1eb      	cbz	r3, b7ace <_ZNK5spark9JSONValue4typeEv+0x40>
    switch (t_->type) {
   b7a92:	781a      	ldrb	r2, [r3, #0]
   b7a94:	2a03      	cmp	r2, #3
   b7a96:	d81a      	bhi.n	b7ace <_ZNK5spark9JSONValue4typeEv+0x40>
   b7a98:	e8df f002 	tbb	[pc, r2]
   b7a9c:	1b021704 	.word	0x1b021704
   b7aa0:	2005      	movs	r0, #5
   b7aa2:	4770      	bx	lr
        const char c = d_->json[t_->start];
   b7aa4:	6802      	ldr	r2, [r0, #0]
   b7aa6:	685b      	ldr	r3, [r3, #4]
   b7aa8:	6852      	ldr	r2, [r2, #4]
   b7aaa:	5cd0      	ldrb	r0, [r2, r3]
        if (c == '-' || (c >= '0' && c <= '9')) {
   b7aac:	282d      	cmp	r0, #45	; 0x2d
   b7aae:	d012      	beq.n	b7ad6 <_ZNK5spark9JSONValue4typeEv+0x48>
   b7ab0:	f1a0 0330 	sub.w	r3, r0, #48	; 0x30
   b7ab4:	2b09      	cmp	r3, #9
   b7ab6:	d90e      	bls.n	b7ad6 <_ZNK5spark9JSONValue4typeEv+0x48>
        } else if (c == 't' || c == 'f') { // Literal names are always in lower case
   b7ab8:	2874      	cmp	r0, #116	; 0x74
   b7aba:	d00e      	beq.n	b7ada <_ZNK5spark9JSONValue4typeEv+0x4c>
   b7abc:	2866      	cmp	r0, #102	; 0x66
   b7abe:	d00c      	beq.n	b7ada <_ZNK5spark9JSONValue4typeEv+0x4c>
        return JSON_TYPE_INVALID;
   b7ac0:	f1a0 036e 	sub.w	r3, r0, #110	; 0x6e
   b7ac4:	4258      	negs	r0, r3
   b7ac6:	4158      	adcs	r0, r3
   b7ac8:	4770      	bx	lr
        return JSON_TYPE_OBJECT;
   b7aca:	2006      	movs	r0, #6
   b7acc:	4770      	bx	lr
        return JSON_TYPE_INVALID;
   b7ace:	2000      	movs	r0, #0
   b7ad0:	4770      	bx	lr
        return JSON_TYPE_STRING;
   b7ad2:	2004      	movs	r0, #4
   b7ad4:	4770      	bx	lr
            return JSON_TYPE_NUMBER;
   b7ad6:	2003      	movs	r0, #3
   b7ad8:	4770      	bx	lr
            return JSON_TYPE_BOOL;
   b7ada:	2002      	movs	r0, #2
}
   b7adc:	4770      	bx	lr

000b7ade <_ZNK5spark9JSONValue5toIntEv>:
int spark::JSONValue::toInt() const {
   b7ade:	b510      	push	{r4, lr}
   b7ae0:	4604      	mov	r4, r0
    switch (type()) {
   b7ae2:	f7ff ffd4 	bl	b7a8e <_ZNK5spark9JSONValue4typeEv>
   b7ae6:	2802      	cmp	r0, #2
   b7ae8:	d00e      	beq.n	b7b08 <_ZNK5spark9JSONValue5toIntEv+0x2a>
   b7aea:	1ec3      	subs	r3, r0, #3
   b7aec:	b2db      	uxtb	r3, r3
   b7aee:	2b01      	cmp	r3, #1
   b7af0:	d814      	bhi.n	b7b1c <_ZNK5spark9JSONValue5toIntEv+0x3e>
        const char* const s = d_->json + t_->start;
   b7af2:	6822      	ldr	r2, [r4, #0]
   b7af4:	68a3      	ldr	r3, [r4, #8]
   b7af6:	6850      	ldr	r0, [r2, #4]
   b7af8:	685b      	ldr	r3, [r3, #4]
}
   b7afa:	e8bd 4010 	ldmia.w	sp!, {r4, lr}
        return strtol(s, nullptr, 10);
   b7afe:	220a      	movs	r2, #10
   b7b00:	2100      	movs	r1, #0
   b7b02:	4418      	add	r0, r3
   b7b04:	f002 b87a 	b.w	b9bfc <strtol>
        const char* const s = d_->json + t_->start;
   b7b08:	6822      	ldr	r2, [r4, #0]
   b7b0a:	68a3      	ldr	r3, [r4, #8]
        return *s == 't';
   b7b0c:	6852      	ldr	r2, [r2, #4]
   b7b0e:	685b      	ldr	r3, [r3, #4]
   b7b10:	5cd0      	ldrb	r0, [r2, r3]
   b7b12:	f1a0 0374 	sub.w	r3, r0, #116	; 0x74
   b7b16:	4258      	negs	r0, r3
   b7b18:	4158      	adcs	r0, r3
}
   b7b1a:	bd10      	pop	{r4, pc}
    switch (type()) {
   b7b1c:	2000      	movs	r0, #0
   b7b1e:	e7fc      	b.n	b7b1a <_ZNK5spark9JSONValue5toIntEv+0x3c>

000b7b20 <_ZN5spark10JSONStringC1EPK9jsmntok_tSt10shared_ptrINS_6detail8JSONDataEE>:
spark::JSONString::JSONString(const jsmntok_t *t, detail::JSONDataPtr d) :
   b7b20:	b538      	push	{r3, r4, r5, lr}
      : _M_ptr(0), _M_refcount()
   b7b22:	2300      	movs	r3, #0
      constexpr __shared_count() noexcept : _M_pi(0)
   b7b24:	e9c0 3300 	strd	r3, r3, [r0]
   b7b28:	4604      	mov	r4, r0
        n_(0) {
   b7b2a:	480e      	ldr	r0, [pc, #56]	; (b7b64 <_ZN5spark10JSONStringC1EPK9jsmntok_tSt10shared_ptrINS_6detail8JSONDataEE+0x44>)
   b7b2c:	e9c4 0302 	strd	r0, r3, [r4, #8]
    if (t && (t->type == JSMN_STRING || t->type == JSMN_PRIMITIVE)) {
   b7b30:	b1a9      	cbz	r1, b7b5e <_ZN5spark10JSONStringC1EPK9jsmntok_tSt10shared_ptrINS_6detail8JSONDataEE+0x3e>
   b7b32:	780b      	ldrb	r3, [r1, #0]
   b7b34:	2b03      	cmp	r3, #3
   b7b36:	d006      	beq.n	b7b46 <_ZN5spark10JSONStringC1EPK9jsmntok_tSt10shared_ptrINS_6detail8JSONDataEE+0x26>
   b7b38:	b98b      	cbnz	r3, b7b5e <_ZN5spark10JSONStringC1EPK9jsmntok_tSt10shared_ptrINS_6detail8JSONDataEE+0x3e>
        if (t->type != JSMN_PRIMITIVE || d->json[t->start] != 'n') { // Nulls are treated as empty strings
   b7b3a:	6813      	ldr	r3, [r2, #0]
   b7b3c:	6858      	ldr	r0, [r3, #4]
   b7b3e:	684b      	ldr	r3, [r1, #4]
   b7b40:	5cc3      	ldrb	r3, [r0, r3]
   b7b42:	2b6e      	cmp	r3, #110	; 0x6e
   b7b44:	d007      	beq.n	b7b56 <_ZN5spark10JSONStringC1EPK9jsmntok_tSt10shared_ptrINS_6detail8JSONDataEE+0x36>
            s_ = d->json + t->start;
   b7b46:	6813      	ldr	r3, [r2, #0]
   b7b48:	684d      	ldr	r5, [r1, #4]
   b7b4a:	6858      	ldr	r0, [r3, #4]
            n_ = t->end - t->start;
   b7b4c:	688b      	ldr	r3, [r1, #8]
            s_ = d->json + t->start;
   b7b4e:	4428      	add	r0, r5
            n_ = t->end - t->start;
   b7b50:	1b5b      	subs	r3, r3, r5
            s_ = d->json + t->start;
   b7b52:	60a0      	str	r0, [r4, #8]
            n_ = t->end - t->start;
   b7b54:	60e3      	str	r3, [r4, #12]
   b7b56:	4611      	mov	r1, r2
   b7b58:	4620      	mov	r0, r4
   b7b5a:	f7ff ff6c 	bl	b7a36 <_ZNSt12__shared_ptrIN5spark6detail8JSONDataELN9__gnu_cxx12_Lock_policyE0EEaSERKS5_.isra.0>
}
   b7b5e:	4620      	mov	r0, r4
   b7b60:	bd38      	pop	{r3, r4, r5, pc}
   b7b62:	bf00      	nop
   b7b64:	000bacc7 	.word	0x000bacc7

000b7b68 <_ZN5spark18JSONObjectIteratorC1EPK9jsmntok_tSt10shared_ptrINS_6detail8JSONDataEE>:
spark::JSONObjectIterator::JSONObjectIterator(const jsmntok_t *t, detail::JSONDataPtr d) :
   b7b68:	b538      	push	{r3, r4, r5, lr}
      : _M_ptr(0), _M_refcount()
   b7b6a:	2500      	movs	r5, #0
   b7b6c:	460b      	mov	r3, r1
      constexpr __shared_count() noexcept : _M_pi(0)
   b7b6e:	e9c0 5500 	strd	r5, r5, [r0]
        n_(0) {
   b7b72:	e9c0 5502 	strd	r5, r5, [r0, #8]
   b7b76:	e9c0 5504 	strd	r5, r5, [r0, #16]
   b7b7a:	4604      	mov	r4, r0
   b7b7c:	4611      	mov	r1, r2
    if (t && t->type == JSMN_OBJECT) {
   b7b7e:	b14b      	cbz	r3, b7b94 <_ZN5spark18JSONObjectIteratorC1EPK9jsmntok_tSt10shared_ptrINS_6detail8JSONDataEE+0x2c>
   b7b80:	781a      	ldrb	r2, [r3, #0]
   b7b82:	2a01      	cmp	r2, #1
   b7b84:	d106      	bne.n	b7b94 <_ZN5spark18JSONObjectIteratorC1EPK9jsmntok_tSt10shared_ptrINS_6detail8JSONDataEE+0x2c>
        t_ = t + 1; // First property's name
   b7b86:	f103 0210 	add.w	r2, r3, #16
        n_ = t->size; // Number of properties
   b7b8a:	68db      	ldr	r3, [r3, #12]
        t_ = t + 1; // First property's name
   b7b8c:	6082      	str	r2, [r0, #8]
        n_ = t->size; // Number of properties
   b7b8e:	6143      	str	r3, [r0, #20]
   b7b90:	f7ff ff51 	bl	b7a36 <_ZNSt12__shared_ptrIN5spark6detail8JSONDataELN9__gnu_cxx12_Lock_policyE0EEaSERKS5_.isra.0>
}
   b7b94:	4620      	mov	r0, r4
   b7b96:	bd38      	pop	{r3, r4, r5, pc}

000b7b98 <_ZN5spark18JSONObjectIterator4nextEv>:
bool spark::JSONObjectIterator::next() {
   b7b98:	b510      	push	{r4, lr}
    if (!n_) {
   b7b9a:	6943      	ldr	r3, [r0, #20]
bool spark::JSONObjectIterator::next() {
   b7b9c:	4604      	mov	r4, r0
    if (!n_) {
   b7b9e:	b163      	cbz	r3, b7bba <_ZN5spark18JSONObjectIterator4nextEv+0x22>
    k_ = t_; // Name
   b7ba0:	6880      	ldr	r0, [r0, #8]
   b7ba2:	60e0      	str	r0, [r4, #12]
    --n_;
   b7ba4:	3b01      	subs	r3, #1
    ++t_;
   b7ba6:	3010      	adds	r0, #16
   b7ba8:	60a0      	str	r0, [r4, #8]
    v_ = t_; // Value
   b7baa:	6120      	str	r0, [r4, #16]
    --n_;
   b7bac:	6163      	str	r3, [r4, #20]
    if (n_) {
   b7bae:	b113      	cbz	r3, b7bb6 <_ZN5spark18JSONObjectIterator4nextEv+0x1e>
        t_ = skipToken(t_);
   b7bb0:	f7ff fef2 	bl	b7998 <_ZN12_GLOBAL__N_19skipTokenEPK9jsmntok_t>
   b7bb4:	60a0      	str	r0, [r4, #8]
    return true;
   b7bb6:	2001      	movs	r0, #1
   b7bb8:	e000      	b.n	b7bbc <_ZN5spark18JSONObjectIterator4nextEv+0x24>
        return false;
   b7bba:	4618      	mov	r0, r3
}
   b7bbc:	bd10      	pop	{r4, pc}

000b7bbe <_ZN5spark10JSONWriter9endObjectEv>:
spark::JSONWriter& spark::JSONWriter::endObject() {
   b7bbe:	b510      	push	{r4, lr}
    write('}');
   b7bc0:	217d      	movs	r1, #125	; 0x7d
spark::JSONWriter& spark::JSONWriter::endObject() {
   b7bc2:	4604      	mov	r4, r0
    write('}');
   b7bc4:	f7ff ff49 	bl	b7a5a <_ZN5spark10JSONWriter5writeEc>
    state_ = NEXT;
   b7bc8:	2301      	movs	r3, #1
   b7bca:	7123      	strb	r3, [r4, #4]
}
   b7bcc:	4620      	mov	r0, r4
   b7bce:	bd10      	pop	{r4, pc}

000b7bd0 <_ZN5spark10JSONWriter14writeSeparatorEv>:

void spark::JSONWriter::writeSeparator() {
   b7bd0:	b508      	push	{r3, lr}
    switch (state_) {
   b7bd2:	7903      	ldrb	r3, [r0, #4]
   b7bd4:	2b01      	cmp	r3, #1
   b7bd6:	d002      	beq.n	b7bde <_ZN5spark10JSONWriter14writeSeparatorEv+0xe>
   b7bd8:	2b02      	cmp	r3, #2
   b7bda:	d004      	beq.n	b7be6 <_ZN5spark10JSONWriter14writeSeparatorEv+0x16>
        write(':');
        break;
    default:
        break;
    }
}
   b7bdc:	bd08      	pop	{r3, pc}
        write(',');
   b7bde:	212c      	movs	r1, #44	; 0x2c
        write(':');
   b7be0:	f7ff ff3b 	bl	b7a5a <_ZN5spark10JSONWriter5writeEc>
}
   b7be4:	e7fa      	b.n	b7bdc <_ZN5spark10JSONWriter14writeSeparatorEv+0xc>
        write(':');
   b7be6:	213a      	movs	r1, #58	; 0x3a
   b7be8:	e7fa      	b.n	b7be0 <_ZN5spark10JSONWriter14writeSeparatorEv+0x10>

000b7bea <_ZN5spark10JSONWriter11beginObjectEv>:
spark::JSONWriter& spark::JSONWriter::beginObject() {
   b7bea:	b510      	push	{r4, lr}
   b7bec:	4604      	mov	r4, r0
    writeSeparator();
   b7bee:	f7ff ffef 	bl	b7bd0 <_ZN5spark10JSONWriter14writeSeparatorEv>
    write('{');
   b7bf2:	4620      	mov	r0, r4
   b7bf4:	217b      	movs	r1, #123	; 0x7b
   b7bf6:	f7ff ff30 	bl	b7a5a <_ZN5spark10JSONWriter5writeEc>
    state_ = BEGIN;
   b7bfa:	2300      	movs	r3, #0
   b7bfc:	7123      	strb	r3, [r4, #4]
}
   b7bfe:	4620      	mov	r0, r4
   b7c00:	bd10      	pop	{r4, pc}
	...

000b7c04 <_ZN5spark10JSONWriter5valueEi>:
spark::JSONWriter& spark::JSONWriter::value(int val) {
   b7c04:	b513      	push	{r0, r1, r4, lr}
   b7c06:	4604      	mov	r4, r0
   b7c08:	9101      	str	r1, [sp, #4]
    writeSeparator();
   b7c0a:	f7ff ffe1 	bl	b7bd0 <_ZN5spark10JSONWriter14writeSeparatorEv>
    printf("%d", val);
   b7c0e:	6823      	ldr	r3, [r4, #0]
   b7c10:	9a01      	ldr	r2, [sp, #4]
   b7c12:	68db      	ldr	r3, [r3, #12]
   b7c14:	4903      	ldr	r1, [pc, #12]	; (b7c24 <_ZN5spark10JSONWriter5valueEi+0x20>)
   b7c16:	4620      	mov	r0, r4
   b7c18:	4798      	blx	r3
    state_ = NEXT;
   b7c1a:	2301      	movs	r3, #1
}
   b7c1c:	4620      	mov	r0, r4
    state_ = NEXT;
   b7c1e:	7123      	strb	r3, [r4, #4]
}
   b7c20:	b002      	add	sp, #8
   b7c22:	bd10      	pop	{r4, pc}
   b7c24:	000ba665 	.word	0x000ba665

000b7c28 <_ZN5spark10JSONWriter5valueEj>:
spark::JSONWriter& spark::JSONWriter::value(unsigned val) {
   b7c28:	b513      	push	{r0, r1, r4, lr}
   b7c2a:	4604      	mov	r4, r0
   b7c2c:	9101      	str	r1, [sp, #4]
    writeSeparator();
   b7c2e:	f7ff ffcf 	bl	b7bd0 <_ZN5spark10JSONWriter14writeSeparatorEv>
    printf("%u", val);
   b7c32:	6823      	ldr	r3, [r4, #0]
   b7c34:	9a01      	ldr	r2, [sp, #4]
   b7c36:	68db      	ldr	r3, [r3, #12]
   b7c38:	4903      	ldr	r1, [pc, #12]	; (b7c48 <_ZN5spark10JSONWriter5valueEj+0x20>)
   b7c3a:	4620      	mov	r0, r4
   b7c3c:	4798      	blx	r3
    state_ = NEXT;
   b7c3e:	2301      	movs	r3, #1
}
   b7c40:	4620      	mov	r0, r4
    state_ = NEXT;
   b7c42:	7123      	strb	r3, [r4, #4]
}
   b7c44:	b002      	add	sp, #8
   b7c46:	bd10      	pop	{r4, pc}
   b7c48:	000bac64 	.word	0x000bac64

000b7c4c <_ZN5spark10JSONWriter12writeEscapedEPKcj>:

void spark::JSONWriter::writeEscaped(const char *str, size_t size) {
   b7c4c:	e92d 47f0 	stmdb	sp!, {r4, r5, r6, r7, r8, r9, sl, lr}
   b7c50:	460d      	mov	r5, r1
    write('"');
   b7c52:	2122      	movs	r1, #34	; 0x22
void spark::JSONWriter::writeEscaped(const char *str, size_t size) {
   b7c54:	4690      	mov	r8, r2
   b7c56:	4604      	mov	r4, r0
    write('"');
   b7c58:	f7ff feff 	bl	b7a5a <_ZN5spark10JSONWriter5writeEc>
            case 0x0d: // Carriage return
                write('r');
                break;
            default:
                // All other control characters are written in hex, e.g. "\u001f"
                printf("u%04x", (unsigned)c);
   b7c5c:	f8df 90a4 	ldr.w	r9, [pc, #164]	; b7d04 <_ZN5spark10JSONWriter12writeEscapedEPKcj+0xb8>
    const char* const end = str + size;
   b7c60:	44a8      	add	r8, r5
    const char *s = str;
   b7c62:	462f      	mov	r7, r5
    while (s != end) {
   b7c64:	4547      	cmp	r7, r8
   b7c66:	46ba      	mov	sl, r7
   b7c68:	d03d      	beq.n	b7ce6 <_ZN5spark10JSONWriter12writeEscapedEPKcj+0x9a>
        const char c = *s;
   b7c6a:	f817 6b01 	ldrb.w	r6, [r7], #1
        if (c == '"' || c == '\\' || !std::isprint((unsigned char)c)) {
   b7c6e:	2e22      	cmp	r6, #34	; 0x22
   b7c70:	d006      	beq.n	b7c80 <_ZN5spark10JSONWriter12writeEscapedEPKcj+0x34>
   b7c72:	2e5c      	cmp	r6, #92	; 0x5c
   b7c74:	d004      	beq.n	b7c80 <_ZN5spark10JSONWriter12writeEscapedEPKcj+0x34>
   b7c76:	4630      	mov	r0, r6
   b7c78:	f001 fe22 	bl	b98c0 <isprint>
   b7c7c:	2800      	cmp	r0, #0
   b7c7e:	d1f1      	bne.n	b7c64 <_ZN5spark10JSONWriter12writeEscapedEPKcj+0x18>
            write(str, s - str); // Write preceeding characters
   b7c80:	6823      	ldr	r3, [r4, #0]
   b7c82:	ebaa 0205 	sub.w	r2, sl, r5
   b7c86:	689b      	ldr	r3, [r3, #8]
   b7c88:	4629      	mov	r1, r5
   b7c8a:	4620      	mov	r0, r4
   b7c8c:	4798      	blx	r3
            write('\\');
   b7c8e:	215c      	movs	r1, #92	; 0x5c
   b7c90:	4620      	mov	r0, r4
   b7c92:	f7ff fee2 	bl	b7a5a <_ZN5spark10JSONWriter5writeEc>
            switch (c) {
   b7c96:	2e0d      	cmp	r6, #13
   b7c98:	d80a      	bhi.n	b7cb0 <_ZN5spark10JSONWriter12writeEscapedEPKcj+0x64>
   b7c9a:	2e07      	cmp	r6, #7
   b7c9c:	d91c      	bls.n	b7cd8 <_ZN5spark10JSONWriter12writeEscapedEPKcj+0x8c>
   b7c9e:	f1a6 0308 	sub.w	r3, r6, #8
   b7ca2:	2b05      	cmp	r3, #5
   b7ca4:	d818      	bhi.n	b7cd8 <_ZN5spark10JSONWriter12writeEscapedEPKcj+0x8c>
   b7ca6:	e8df f003 	tbb	[pc, r3]
   b7caa:	0f0d      	.short	0x0f0d
   b7cac:	15131711 	.word	0x15131711
   b7cb0:	2e22      	cmp	r6, #34	; 0x22
   b7cb2:	d001      	beq.n	b7cb8 <_ZN5spark10JSONWriter12writeEscapedEPKcj+0x6c>
   b7cb4:	2e5c      	cmp	r6, #92	; 0x5c
   b7cb6:	d10f      	bne.n	b7cd8 <_ZN5spark10JSONWriter12writeEscapedEPKcj+0x8c>
                write(c);
   b7cb8:	4631      	mov	r1, r6
                write('b');
   b7cba:	4620      	mov	r0, r4
   b7cbc:	f7ff fecd 	bl	b7a5a <_ZN5spark10JSONWriter5writeEc>
                break;
            }
            str = s + 1;
   b7cc0:	463d      	mov	r5, r7
    while (s != end) {
   b7cc2:	e7cf      	b.n	b7c64 <_ZN5spark10JSONWriter12writeEscapedEPKcj+0x18>
                write('b');
   b7cc4:	2162      	movs	r1, #98	; 0x62
   b7cc6:	e7f8      	b.n	b7cba <_ZN5spark10JSONWriter12writeEscapedEPKcj+0x6e>
                write('t');
   b7cc8:	2174      	movs	r1, #116	; 0x74
   b7cca:	e7f6      	b.n	b7cba <_ZN5spark10JSONWriter12writeEscapedEPKcj+0x6e>
                write('n');
   b7ccc:	216e      	movs	r1, #110	; 0x6e
   b7cce:	e7f4      	b.n	b7cba <_ZN5spark10JSONWriter12writeEscapedEPKcj+0x6e>
                write('f');
   b7cd0:	2166      	movs	r1, #102	; 0x66
   b7cd2:	e7f2      	b.n	b7cba <_ZN5spark10JSONWriter12writeEscapedEPKcj+0x6e>
                write('r');
   b7cd4:	2172      	movs	r1, #114	; 0x72
   b7cd6:	e7f0      	b.n	b7cba <_ZN5spark10JSONWriter12writeEscapedEPKcj+0x6e>
                printf("u%04x", (unsigned)c);
   b7cd8:	6823      	ldr	r3, [r4, #0]
   b7cda:	4632      	mov	r2, r6
   b7cdc:	68db      	ldr	r3, [r3, #12]
   b7cde:	4649      	mov	r1, r9
   b7ce0:	4620      	mov	r0, r4
   b7ce2:	4798      	blx	r3
                break;
   b7ce4:	e7ec      	b.n	b7cc0 <_ZN5spark10JSONWriter12writeEscapedEPKcj+0x74>
        }
        ++s;
    }
    if (s != str) {
   b7ce6:	42bd      	cmp	r5, r7
   b7ce8:	d005      	beq.n	b7cf6 <_ZN5spark10JSONWriter12writeEscapedEPKcj+0xaa>
        write(str, s - str); // Write remaining characters
   b7cea:	6823      	ldr	r3, [r4, #0]
   b7cec:	1b7a      	subs	r2, r7, r5
   b7cee:	689b      	ldr	r3, [r3, #8]
   b7cf0:	4629      	mov	r1, r5
   b7cf2:	4620      	mov	r0, r4
   b7cf4:	4798      	blx	r3
    }
    write('"');
   b7cf6:	2122      	movs	r1, #34	; 0x22
   b7cf8:	4620      	mov	r0, r4
   b7cfa:	f7ff feae 	bl	b7a5a <_ZN5spark10JSONWriter5writeEc>
}
   b7cfe:	e8bd 87f0 	ldmia.w	sp!, {r4, r5, r6, r7, r8, r9, sl, pc}
   b7d02:	bf00      	nop
   b7d04:	000bac67 	.word	0x000bac67

000b7d08 <_ZN5spark10JSONWriter4nameEPKcj>:
spark::JSONWriter& spark::JSONWriter::name(const char *name, size_t size) {
   b7d08:	b513      	push	{r0, r1, r4, lr}
   b7d0a:	4604      	mov	r4, r0
   b7d0c:	e9cd 2100 	strd	r2, r1, [sp]
    writeSeparator();
   b7d10:	f7ff ff5e 	bl	b7bd0 <_ZN5spark10JSONWriter14writeSeparatorEv>
    writeEscaped(name, size);
   b7d14:	4620      	mov	r0, r4
   b7d16:	e9dd 2100 	ldrd	r2, r1, [sp]
   b7d1a:	f7ff ff97 	bl	b7c4c <_ZN5spark10JSONWriter12writeEscapedEPKcj>
    state_ = VALUE;
   b7d1e:	2302      	movs	r3, #2
}
   b7d20:	4620      	mov	r0, r4
    state_ = VALUE;
   b7d22:	7123      	strb	r3, [r4, #4]
}
   b7d24:	b002      	add	sp, #8
   b7d26:	bd10      	pop	{r4, pc}

000b7d28 <_ZN5spark10JSONWriter5valueEPKcj>:
spark::JSONWriter& spark::JSONWriter::value(const char *val, size_t size) {
   b7d28:	b513      	push	{r0, r1, r4, lr}
   b7d2a:	4604      	mov	r4, r0
   b7d2c:	e9cd 2100 	strd	r2, r1, [sp]
    writeSeparator();
   b7d30:	f7ff ff4e 	bl	b7bd0 <_ZN5spark10JSONWriter14writeSeparatorEv>
    writeEscaped(val, size);
   b7d34:	4620      	mov	r0, r4
   b7d36:	e9dd 2100 	ldrd	r2, r1, [sp]
   b7d3a:	f7ff ff87 	bl	b7c4c <_ZN5spark10JSONWriter12writeEscapedEPKcj>
    state_ = NEXT;
   b7d3e:	2301      	movs	r3, #1
}
   b7d40:	4620      	mov	r0, r4
    state_ = NEXT;
   b7d42:	7123      	strb	r3, [r4, #4]
}
   b7d44:	b002      	add	sp, #8
   b7d46:	bd10      	pop	{r4, pc}

000b7d48 <_ZN5spark16JSONStreamWriter5writeEPKcj>:
inline Print* spark::JSONStreamWriter::stream() const {
    return &strm_;
}

inline void spark::JSONStreamWriter::write(const char *data, size_t size) {
    strm_.write((const uint8_t*)data, size);
   b7d48:	6880      	ldr	r0, [r0, #8]
   b7d4a:	6803      	ldr	r3, [r0, #0]
   b7d4c:	68db      	ldr	r3, [r3, #12]
   b7d4e:	4718      	bx	r3

000b7d50 <_ZN5spark20JSONStreamLogHandler5writeEPKcj>:
}

// spark::JSONStreamLogHandler
inline void spark::JSONStreamLogHandler::write(const char *data, size_t size) {
    // This handler doesn't support direct logging
}
   b7d50:	4770      	bx	lr

000b7d52 <_ZN5spark17LogHandlerFactory14destroyHandlerEPNS_10LogHandlerE>:

#if Wiring_LogConfig

// spark::LogHandlerFactory
inline void spark::LogHandlerFactory::destroyHandler(LogHandler *handler) {
    delete handler;
   b7d52:	4608      	mov	r0, r1
   b7d54:	b111      	cbz	r1, b7d5c <_ZN5spark17LogHandlerFactory14destroyHandlerEPNS_10LogHandlerE+0xa>
   b7d56:	680b      	ldr	r3, [r1, #0]
   b7d58:	685b      	ldr	r3, [r3, #4]
   b7d5a:	4718      	bx	r3
}
   b7d5c:	4770      	bx	lr

000b7d5e <__tcf_0>:
    }
    return nullptr; // Unknown handler type
}

spark::DefaultLogHandlerFactory* spark::DefaultLogHandlerFactory::instance() {
    static DefaultLogHandlerFactory factory;
   b7d5e:	4770      	bx	lr

000b7d60 <_ZN5spark26DefaultOutputStreamFactoryD1Ev>:
class DefaultOutputStreamFactory: public OutputStreamFactory {
   b7d60:	4770      	bx	lr

000b7d62 <_ZN5spark24DefaultLogHandlerFactoryD1Ev>:
class DefaultLogHandlerFactory: public LogHandlerFactory {
   b7d62:	4770      	bx	lr

000b7d64 <_ZN5spark16JSONStreamWriterD1Ev>:
class JSONStreamWriter: public JSONWriter {
   b7d64:	4770      	bx	lr

000b7d66 <_ZN12_GLOBAL__N_119nextSubcategoryNameERPKcRj>:
const char* nextSubcategoryName(const char* &category, size_t &size) {
   b7d66:	b538      	push	{r3, r4, r5, lr}
   b7d68:	4604      	mov	r4, r0
   b7d6a:	460d      	mov	r5, r1
    const char *s = strchrnul(category, '.');
   b7d6c:	6800      	ldr	r0, [r0, #0]
   b7d6e:	212e      	movs	r1, #46	; 0x2e
   b7d70:	f001 fe57 	bl	b9a22 <strchrnul>
    size = s - category;
   b7d74:	6823      	ldr	r3, [r4, #0]
   b7d76:	1ac3      	subs	r3, r0, r3
   b7d78:	602b      	str	r3, [r5, #0]
    if (size) {
   b7d7a:	b123      	cbz	r3, b7d86 <_ZN12_GLOBAL__N_119nextSubcategoryNameERPKcRj+0x20>
        if (*s) {
   b7d7c:	7803      	ldrb	r3, [r0, #0]
   b7d7e:	b103      	cbz	r3, b7d82 <_ZN12_GLOBAL__N_119nextSubcategoryNameERPKcRj+0x1c>
            ++s;
   b7d80:	3001      	adds	r0, #1
   b7d82:	6823      	ldr	r3, [r4, #0]
      __b = _GLIBCXX_MOVE(__tmp);
   b7d84:	6020      	str	r0, [r4, #0]
}
   b7d86:	4618      	mov	r0, r3
   b7d88:	bd38      	pop	{r3, r4, r5, pc}

000b7d8a <_ZN5spark16JSONStreamWriterD0Ev>:
   b7d8a:	b510      	push	{r4, lr}
   b7d8c:	210c      	movs	r1, #12
   b7d8e:	4604      	mov	r4, r0
   b7d90:	f7fc f983 	bl	b409a <_ZdlPvj>
   b7d94:	4620      	mov	r0, r4
   b7d96:	bd10      	pop	{r4, pc}

000b7d98 <_ZN5spark24DefaultLogHandlerFactoryD0Ev>:
   b7d98:	b510      	push	{r4, lr}
   b7d9a:	2104      	movs	r1, #4
   b7d9c:	4604      	mov	r4, r0
   b7d9e:	f7fc f97c 	bl	b409a <_ZdlPvj>
   b7da2:	4620      	mov	r0, r4
   b7da4:	bd10      	pop	{r4, pc}

000b7da6 <_ZN5spark26DefaultOutputStreamFactoryD0Ev>:
class DefaultOutputStreamFactory: public OutputStreamFactory {
   b7da6:	b510      	push	{r4, lr}
   b7da8:	2104      	movs	r1, #4
   b7daa:	4604      	mov	r4, r0
   b7dac:	f7fc f975 	bl	b409a <_ZdlPvj>
   b7db0:	4620      	mov	r0, r4
   b7db2:	bd10      	pop	{r4, pc}

000b7db4 <_ZN14RecursiveMutex4lockEv.isra.0>:
            os_mutex_recursive_destroy(handle_);
            handle_ = nullptr;
        }
    }

    void lock() { os_mutex_recursive_lock(handle_); }
   b7db4:	f7fe becc 	b.w	b6b50 <os_mutex_recursive_lock>

000b7db8 <_ZNK5spark10JSONStringeqEPKc.isra.0>:
inline bool spark::JSONString::operator==(const char *str) const {
   b7db8:	b508      	push	{r3, lr}
    return strcmp(s_, str) == 0;
   b7dba:	f001 fe3c 	bl	b9a36 <strcmp>
}
   b7dbe:	fab0 f080 	clz	r0, r0
   b7dc2:	0940      	lsrs	r0, r0, #5
   b7dc4:	bd08      	pop	{r3, pc}

000b7dc6 <__tcf_1>:
   b7dc6:	4770      	bx	lr

000b7dc8 <_ZN5spark26DefaultOutputStreamFactory13destroyStreamEP5Print>:
    }
#endif // PLATFORM_ID != PLATFORM_GCC
    return nullptr;
}

void spark::DefaultOutputStreamFactory::destroyStream(Print *stream) {
   b7dc8:	b510      	push	{r4, lr}
   b7dca:	460c      	mov	r4, r1
#if PLATFORM_ID != PLATFORM_GCC
    if (stream == &Serial) {
   b7dcc:	f001 fa6c 	bl	b92a8 <_Z16_fetch_usbserialv>
   b7dd0:	4284      	cmp	r4, r0
   b7dd2:	d010      	beq.n	b7df6 <_ZN5spark26DefaultOutputStreamFactory13destroyStreamEP5Print+0x2e>
    if (stream == &USBSerial1) {
        USBSerial1.end();
        return;
    }
#endif
    if (stream == &Serial1) {
   b7dd4:	f001 fb86 	bl	b94e4 <_Z22__fetch_global_Serial1v>
   b7dd8:	4284      	cmp	r4, r0
   b7dda:	d105      	bne.n	b7de8 <_ZN5spark26DefaultOutputStreamFactory13destroyStreamEP5Print+0x20>
        Serial1.end();
   b7ddc:	f001 fb82 	bl	b94e4 <_Z22__fetch_global_Serial1v>
        return;
    }
#endif // PLATFORM_ID != PLATFORM_GCC
    OutputStreamFactory::destroyStream(stream);
}
   b7de0:	e8bd 4010 	ldmia.w	sp!, {r4, lr}
        Serial1.end();
   b7de4:	f001 b9fb 	b.w	b91de <_ZN11USARTSerial3endEv>

// spark::OutputStreamFactory
inline void spark::OutputStreamFactory::destroyStream(Print *stream) {
    delete stream;
   b7de8:	b12c      	cbz	r4, b7df6 <_ZN5spark26DefaultOutputStreamFactory13destroyStreamEP5Print+0x2e>
   b7dea:	6823      	ldr	r3, [r4, #0]
   b7dec:	4620      	mov	r0, r4
   b7dee:	685b      	ldr	r3, [r3, #4]
}
   b7df0:	e8bd 4010 	ldmia.w	sp!, {r4, lr}
   b7df4:	4718      	bx	r3
   b7df6:	bd10      	pop	{r4, pc}

000b7df8 <_ZNSt12__shared_ptrIN5spark6detail8JSONDataELN9__gnu_cxx12_Lock_policyE0EEC1ERKS5_>:
      __shared_ptr(const __shared_ptr&) noexcept = default;
   b7df8:	680b      	ldr	r3, [r1, #0]
   b7dfa:	6003      	str	r3, [r0, #0]
      : _M_pi(__r._M_pi)
   b7dfc:	684b      	ldr	r3, [r1, #4]
   b7dfe:	6043      	str	r3, [r0, #4]
	if (_M_pi != 0)
   b7e00:	b113      	cbz	r3, b7e08 <_ZNSt12__shared_ptrIN5spark6detail8JSONDataELN9__gnu_cxx12_Lock_policyE0EEC1ERKS5_+0x10>
    { ++_M_use_count; }
   b7e02:	685a      	ldr	r2, [r3, #4]
   b7e04:	3201      	adds	r2, #1
   b7e06:	605a      	str	r2, [r3, #4]
      __shared_ptr(const __shared_ptr&) noexcept = default;
   b7e08:	4770      	bx	lr

000b7e0a <_ZN5spark10JSONWriter5valueEPKc>:
inline spark::JSONWriter& spark::JSONWriter::value(const char *val) {
   b7e0a:	b513      	push	{r0, r1, r4, lr}
   b7e0c:	4604      	mov	r4, r0
    return value(val, strlen(val));
   b7e0e:	4608      	mov	r0, r1
   b7e10:	9101      	str	r1, [sp, #4]
   b7e12:	f001 fe40 	bl	b9a96 <strlen>
   b7e16:	9901      	ldr	r1, [sp, #4]
   b7e18:	4602      	mov	r2, r0
   b7e1a:	4620      	mov	r0, r4
}
   b7e1c:	b002      	add	sp, #8
   b7e1e:	e8bd 4010 	ldmia.w	sp!, {r4, lr}
    return value(val, strlen(val));
   b7e22:	f7ff bf81 	b.w	b7d28 <_ZN5spark10JSONWriter5valueEPKcj>

000b7e26 <_ZN5spark16StreamLogHandler5writeEPKc>:
inline void spark::StreamLogHandler::write(const char *str) {
   b7e26:	b513      	push	{r0, r1, r4, lr}
   b7e28:	4604      	mov	r4, r0
    write(str, strlen(str));
   b7e2a:	4608      	mov	r0, r1
   b7e2c:	9101      	str	r1, [sp, #4]
   b7e2e:	f001 fe32 	bl	b9a96 <strlen>
   b7e32:	6823      	ldr	r3, [r4, #0]
   b7e34:	9901      	ldr	r1, [sp, #4]
   b7e36:	68db      	ldr	r3, [r3, #12]
   b7e38:	4602      	mov	r2, r0
   b7e3a:	4620      	mov	r0, r4
}
   b7e3c:	b002      	add	sp, #8
   b7e3e:	e8bd 4010 	ldmia.w	sp!, {r4, lr}
    write(str, strlen(str));
   b7e42:	4718      	bx	r3

000b7e44 <_ZN5spark16StreamLogHandler5writeEc>:
inline void spark::StreamLogHandler::write(char c) {
   b7e44:	b507      	push	{r0, r1, r2, lr}
    write(&c, 1);
   b7e46:	6803      	ldr	r3, [r0, #0]
inline void spark::StreamLogHandler::write(char c) {
   b7e48:	f88d 1007 	strb.w	r1, [sp, #7]
    write(&c, 1);
   b7e4c:	68db      	ldr	r3, [r3, #12]
   b7e4e:	2201      	movs	r2, #1
   b7e50:	f10d 0107 	add.w	r1, sp, #7
   b7e54:	4798      	blx	r3
}
   b7e56:	b003      	add	sp, #12
   b7e58:	f85d fb04 	ldr.w	pc, [sp], #4

000b7e5c <_ZN5spark16StreamLogHandler6printfEPKcz>:
inline void spark::StreamLogHandler::printf(const char *fmt, ...) {
   b7e5c:	b40e      	push	{r1, r2, r3}
   b7e5e:	b503      	push	{r0, r1, lr}
   b7e60:	ab03      	add	r3, sp, #12
    stream_->vprintf(false, fmt, args);
   b7e62:	2100      	movs	r1, #0
inline void spark::StreamLogHandler::printf(const char *fmt, ...) {
   b7e64:	f853 2b04 	ldr.w	r2, [r3], #4
    stream_->vprintf(false, fmt, args);
   b7e68:	6a00      	ldr	r0, [r0, #32]
    va_start(args, fmt);
   b7e6a:	9301      	str	r3, [sp, #4]
    stream_->vprintf(false, fmt, args);
   b7e6c:	f000 ffe7 	bl	b8e3e <_ZN5Print7vprintfEbPKcSt9__va_list>
}
   b7e70:	b002      	add	sp, #8
   b7e72:	f85d eb04 	ldr.w	lr, [sp], #4
   b7e76:	b003      	add	sp, #12
   b7e78:	4770      	bx	lr

000b7e7a <_ZN5spark6detail9LogFilter4NodeC1EOS2_>:
struct spark::detail::LogFilter::Node {
   b7e7a:	680a      	ldr	r2, [r1, #0]
   b7e7c:	6002      	str	r2, [r0, #0]
   b7e7e:	684a      	ldr	r2, [r1, #4]
   b7e80:	6042      	str	r2, [r0, #4]
        capacity_(0) {
   b7e82:	2200      	movs	r2, #0
   b7e84:	e9c0 2202 	strd	r2, r2, [r0, #8]
   b7e88:	b510      	push	{r4, lr}
   b7e8a:	6102      	str	r2, [r0, #16]
      __a = _GLIBCXX_MOVE(__b);
   b7e8c:	688c      	ldr	r4, [r1, #8]
   b7e8e:	6084      	str	r4, [r0, #8]
   b7e90:	68cc      	ldr	r4, [r1, #12]
   b7e92:	60c4      	str	r4, [r0, #12]
   b7e94:	690c      	ldr	r4, [r1, #16]
      __b = _GLIBCXX_MOVE(__tmp);
   b7e96:	608a      	str	r2, [r1, #8]
   b7e98:	60ca      	str	r2, [r1, #12]
      __a = _GLIBCXX_MOVE(__b);
   b7e9a:	6104      	str	r4, [r0, #16]
      __b = _GLIBCXX_MOVE(__tmp);
   b7e9c:	610a      	str	r2, [r1, #16]
   b7e9e:	bd10      	pop	{r4, pc}

000b7ea0 <_ZN5spark6detail9LogFilter9nodeIndexERKNS_6VectorINS1_4NodeENS_16DefaultAllocatorEEEPKcjRb>:
int spark::detail::LogFilter::nodeIndex(const Vector<Node> &nodes, const char *name, size_t size, bool &found) {
   b7ea0:	e92d 4ff7 	stmdb	sp!, {r0, r1, r2, r4, r5, r6, r7, r8, r9, sl, fp, lr}
    return data_ + size_;
}

template<typename T, typename AllocatorT>
const T* spark::Vector<T, AllocatorT>::end() const {
    return data_ + size_;
   b7ea4:	e9d0 8400 	ldrd	r8, r4, [r0]
   b7ea8:	f04f 0a14 	mov.w	sl, #20
   b7eac:	9300      	str	r3, [sp, #0]
   b7eae:	fb0a f404 	mul.w	r4, sl, r4
               random_access_iterator_tag)
    {
      // concept requirements
      __glibcxx_function_requires(_RandomAccessIteratorConcept<
				  _RandomAccessIterator>)
      return __last - __first;
   b7eb2:	4b18      	ldr	r3, [pc, #96]	; (b7f14 <_ZN5spark6detail9LogFilter9nodeIndexERKNS_6VectorINS1_4NodeENS_16DefaultAllocatorEEEPKcjRb+0x74>)
   b7eb4:	10a4      	asrs	r4, r4, #2
   b7eb6:	4617      	mov	r7, r2
   b7eb8:	435c      	muls	r4, r3
   b7eba:	4645      	mov	r5, r8
      typedef typename iterator_traits<_ForwardIterator>::difference_type
	_DistanceType;

      _DistanceType __len = std::distance(__first, __last);

      while (__len > 0)
   b7ebc:	2c00      	cmp	r4, #0
   b7ebe:	dd21      	ble.n	b7f04 <_ZN5spark6detail9LogFilter9nodeIndexERKNS_6VectorINS1_4NodeENS_16DefaultAllocatorEEEPKcjRb+0x64>
	{
	  _DistanceType __half = __len >> 1;
   b7ec0:	1066      	asrs	r6, r4, #1
      if (__builtin_constant_p(__n) && __n == 1)
	++__i;
      else if (__builtin_constant_p(__n) && __n == -1)
	--__i;
      else
	__i += __n;
   b7ec2:	fb0a f006 	mul.w	r0, sl, r6
   b7ec6:	eb05 0900 	add.w	r9, r5, r0
                const int cmp = strncmp(node.name, value.first, std::min<size_t>(node.size, value.second));
   b7eca:	463a      	mov	r2, r7
   b7ecc:	f8b9 b004 	ldrh.w	fp, [r9, #4]
   b7ed0:	5828      	ldr	r0, [r5, r0]
   b7ed2:	9101      	str	r1, [sp, #4]
   b7ed4:	455f      	cmp	r7, fp
   b7ed6:	bf28      	it	cs
   b7ed8:	465a      	movcs	r2, fp
   b7eda:	f001 fde4 	bl	b9aa6 <strncmp>
                if (cmp == 0) {
   b7ede:	2800      	cmp	r0, #0
   b7ee0:	9901      	ldr	r1, [sp, #4]
   b7ee2:	f04f 0301 	mov.w	r3, #1
   b7ee6:	d10b      	bne.n	b7f00 <_ZN5spark6detail9LogFilter9nodeIndexERKNS_6VectorINS1_4NodeENS_16DefaultAllocatorEEEPKcjRb+0x60>
                    if (node.size == value.second) { // Lengths are equal
   b7ee8:	455f      	cmp	r7, fp
   b7eea:	d103      	bne.n	b7ef4 <_ZN5spark6detail9LogFilter9nodeIndexERKNS_6VectorINS1_4NodeENS_16DefaultAllocatorEEEPKcjRb+0x54>
                        found = true; // Allows caller code to avoid extra call to strncmp()
   b7eec:	9a00      	ldr	r2, [sp, #0]
   b7eee:	7013      	strb	r3, [r2, #0]
int spark::detail::LogFilter::nodeIndex(const Vector<Node> &nodes, const char *name, size_t size, bool &found) {
   b7ef0:	4634      	mov	r4, r6
   b7ef2:	e7e3      	b.n	b7ebc <_ZN5spark6detail9LogFilter9nodeIndexERKNS_6VectorINS1_4NodeENS_16DefaultAllocatorEEEPKcjRb+0x1c>
	  _ForwardIterator __middle = __first;
	  std::advance(__middle, __half);
	  if (__comp(__middle, __val))
   b7ef4:	d9fc      	bls.n	b7ef0 <_ZN5spark6detail9LogFilter9nodeIndexERKNS_6VectorINS1_4NodeENS_16DefaultAllocatorEEEPKcjRb+0x50>
	    {
	      __first = __middle;
	      ++__first;
	      __len = __len - __half - 1;
   b7ef6:	1ba6      	subs	r6, r4, r6
	      ++__first;
   b7ef8:	f109 0514 	add.w	r5, r9, #20
	      __len = __len - __half - 1;
   b7efc:	3e01      	subs	r6, #1
   b7efe:	e7f7      	b.n	b7ef0 <_ZN5spark6detail9LogFilter9nodeIndexERKNS_6VectorINS1_4NodeENS_16DefaultAllocatorEEEPKcjRb+0x50>
	  if (__comp(__middle, __val))
   b7f00:	dbf9      	blt.n	b7ef6 <_ZN5spark6detail9LogFilter9nodeIndexERKNS_6VectorINS1_4NodeENS_16DefaultAllocatorEEEPKcjRb+0x56>
   b7f02:	e7f5      	b.n	b7ef0 <_ZN5spark6detail9LogFilter9nodeIndexERKNS_6VectorINS1_4NodeENS_16DefaultAllocatorEEEPKcjRb+0x50>
      return __last - __first;
   b7f04:	eba5 0508 	sub.w	r5, r5, r8
}
   b7f08:	4802      	ldr	r0, [pc, #8]	; (b7f14 <_ZN5spark6detail9LogFilter9nodeIndexERKNS_6VectorINS1_4NodeENS_16DefaultAllocatorEEEPKcjRb+0x74>)
   b7f0a:	10ad      	asrs	r5, r5, #2
   b7f0c:	4368      	muls	r0, r5
   b7f0e:	b003      	add	sp, #12
   b7f10:	e8bd 8ff0 	ldmia.w	sp!, {r4, r5, r6, r7, r8, r9, sl, fp, pc}
   b7f14:	cccccccd 	.word	0xcccccccd

000b7f18 <_ZNK5spark6detail9LogFilter5levelEPKc>:
LogLevel spark::detail::LogFilter::level(const char *category) const {
   b7f18:	b57f      	push	{r0, r1, r2, r3, r4, r5, r6, lr}
    if (!nodes_.isEmpty() && category) {
   b7f1a:	6903      	ldr	r3, [r0, #16]
    LogLevel level = level_; // Default level
   b7f1c:	7e05      	ldrb	r5, [r0, #24]
LogLevel spark::detail::LogFilter::level(const char *category) const {
   b7f1e:	9101      	str	r1, [sp, #4]
    if (!nodes_.isEmpty() && category) {
   b7f20:	b303      	cbz	r3, b7f64 <_ZNK5spark6detail9LogFilter5levelEPKc+0x4c>
   b7f22:	b1f9      	cbz	r1, b7f64 <_ZNK5spark6detail9LogFilter5levelEPKc+0x4c>
        size_t size = 0; // Name length
   b7f24:	2600      	movs	r6, #0
        const Vector<Node> *pNodes = &nodes_; // Root nodes
   b7f26:	f100 040c 	add.w	r4, r0, #12
        size_t size = 0; // Name length
   b7f2a:	9603      	str	r6, [sp, #12]
        while ((name = nextSubcategoryName(category, size))) {
   b7f2c:	a903      	add	r1, sp, #12
   b7f2e:	a801      	add	r0, sp, #4
   b7f30:	f7ff ff19 	bl	b7d66 <_ZN12_GLOBAL__N_119nextSubcategoryNameERPKcRj>
   b7f34:	4601      	mov	r1, r0
   b7f36:	b1a8      	cbz	r0, b7f64 <_ZNK5spark6detail9LogFilter5levelEPKc+0x4c>
            const int index = nodeIndex(*pNodes, name, size, found);
   b7f38:	f10d 030b 	add.w	r3, sp, #11
   b7f3c:	9a03      	ldr	r2, [sp, #12]
            bool found = false;
   b7f3e:	f88d 600b 	strb.w	r6, [sp, #11]
            const int index = nodeIndex(*pNodes, name, size, found);
   b7f42:	4620      	mov	r0, r4
   b7f44:	f7ff ffac 	bl	b7ea0 <_ZN5spark6detail9LogFilter9nodeIndexERKNS_6VectorINS1_4NodeENS_16DefaultAllocatorEEEPKcjRb>
            if (!found) {
   b7f48:	f89d 300b 	ldrb.w	r3, [sp, #11]
   b7f4c:	b153      	cbz	r3, b7f64 <_ZNK5spark6detail9LogFilter5levelEPKc+0x4c>
    return data_[i];
   b7f4e:	6823      	ldr	r3, [r4, #0]
   b7f50:	2414      	movs	r4, #20
   b7f52:	fb04 3400 	mla	r4, r4, r0, r3
            pNodes = &node.nodes;
   b7f56:	3408      	adds	r4, #8
            if (node.level >= 0) {
   b7f58:	f934 3c02 	ldrsh.w	r3, [r4, #-2]
   b7f5c:	2b00      	cmp	r3, #0
                level = (LogLevel)node.level;
   b7f5e:	bfa8      	it	ge
   b7f60:	b2dd      	uxtbge	r5, r3
        while ((name = nextSubcategoryName(category, size))) {
   b7f62:	e7e3      	b.n	b7f2c <_ZNK5spark6detail9LogFilter5levelEPKc+0x14>
}
   b7f64:	4628      	mov	r0, r5
   b7f66:	b004      	add	sp, #16
   b7f68:	bd70      	pop	{r4, r5, r6, pc}
	...

000b7f6c <_ZN5spark24DefaultLogHandlerFactory8instanceEv>:
spark::DefaultLogHandlerFactory* spark::DefaultLogHandlerFactory::instance() {
   b7f6c:	b510      	push	{r4, lr}
    static DefaultLogHandlerFactory factory;
   b7f6e:	4c09      	ldr	r4, [pc, #36]	; (b7f94 <_ZN5spark24DefaultLogHandlerFactory8instanceEv+0x28>)
   b7f70:	7823      	ldrb	r3, [r4, #0]
   b7f72:	f3bf 8f5b 	dmb	ish
   b7f76:	07db      	lsls	r3, r3, #31
   b7f78:	d409      	bmi.n	b7f8e <_ZN5spark24DefaultLogHandlerFactory8instanceEv+0x22>
   b7f7a:	4620      	mov	r0, r4
   b7f7c:	f7fc f89c 	bl	b40b8 <__cxa_guard_acquire>
   b7f80:	b128      	cbz	r0, b7f8e <_ZN5spark24DefaultLogHandlerFactory8instanceEv+0x22>
   b7f82:	4620      	mov	r0, r4
   b7f84:	f7fc f89d 	bl	b40c2 <__cxa_guard_release>
   b7f88:	4803      	ldr	r0, [pc, #12]	; (b7f98 <_ZN5spark24DefaultLogHandlerFactory8instanceEv+0x2c>)
   b7f8a:	f001 fc93 	bl	b98b4 <atexit>
}
   b7f8e:	4803      	ldr	r0, [pc, #12]	; (b7f9c <_ZN5spark24DefaultLogHandlerFactory8instanceEv+0x30>)
   b7f90:	bd10      	pop	{r4, pc}
   b7f92:	bf00      	nop
   b7f94:	2003e6a8 	.word	0x2003e6a8
   b7f98:	000b7d5f 	.word	0x000b7d5f
   b7f9c:	2003b6c8 	.word	0x2003b6c8

000b7fa0 <_ZN5spark26DefaultOutputStreamFactory8instanceEv>:

spark::DefaultOutputStreamFactory* spark::DefaultOutputStreamFactory::instance() {
   b7fa0:	b510      	push	{r4, lr}
    static DefaultOutputStreamFactory factory;
   b7fa2:	4c09      	ldr	r4, [pc, #36]	; (b7fc8 <_ZN5spark26DefaultOutputStreamFactory8instanceEv+0x28>)
   b7fa4:	7823      	ldrb	r3, [r4, #0]
   b7fa6:	f3bf 8f5b 	dmb	ish
   b7faa:	07db      	lsls	r3, r3, #31
   b7fac:	d409      	bmi.n	b7fc2 <_ZN5spark26DefaultOutputStreamFactory8instanceEv+0x22>
   b7fae:	4620      	mov	r0, r4
   b7fb0:	f7fc f882 	bl	b40b8 <__cxa_guard_acquire>
   b7fb4:	b128      	cbz	r0, b7fc2 <_ZN5spark26DefaultOutputStreamFactory8instanceEv+0x22>
   b7fb6:	4620      	mov	r0, r4
   b7fb8:	f7fc f883 	bl	b40c2 <__cxa_guard_release>
   b7fbc:	4803      	ldr	r0, [pc, #12]	; (b7fcc <_ZN5spark26DefaultOutputStreamFactory8instanceEv+0x2c>)
   b7fbe:	f001 fc79 	bl	b98b4 <atexit>
    return &factory;
}
   b7fc2:	4803      	ldr	r0, [pc, #12]	; (b7fd0 <_ZN5spark26DefaultOutputStreamFactory8instanceEv+0x30>)
   b7fc4:	bd10      	pop	{r4, pc}
   b7fc6:	bf00      	nop
   b7fc8:	2003e6ac 	.word	0x2003e6ac
   b7fcc:	000b7dc7 	.word	0x000b7dc7
   b7fd0:	2003b6cc 	.word	0x2003b6cc

000b7fd4 <_ZN5spark10LogManagerC1Ev>:
    Print *stream;
};

#endif // Wiring_LogConfig

spark::LogManager::LogManager() {
   b7fd4:	b538      	push	{r3, r4, r5, lr}
        capacity_(0) {
   b7fd6:	2500      	movs	r5, #0
   b7fd8:	4604      	mov	r4, r0
   b7fda:	e9c0 5500 	strd	r5, r5, [r0]
   b7fde:	e9c0 5504 	strd	r5, r5, [r0, #16]
   b7fe2:	6085      	str	r5, [r0, #8]
   b7fe4:	6185      	str	r5, [r0, #24]
    RecursiveMutex() : handle_(nullptr)
   b7fe6:	f840 5f24 	str.w	r5, [r0, #36]!
        os_mutex_recursive_create(&handle_);
   b7fea:	f7fe fda1 	bl	b6b30 <os_mutex_recursive_create>
#if Wiring_LogConfig
    handlerFactory_ = DefaultLogHandlerFactory::instance();
   b7fee:	f7ff ffbd 	bl	b7f6c <_ZN5spark24DefaultLogHandlerFactory8instanceEv>
   b7ff2:	61e0      	str	r0, [r4, #28]
    streamFactory_ = DefaultOutputStreamFactory::instance();
   b7ff4:	f7ff ffd4 	bl	b7fa0 <_ZN5spark26DefaultOutputStreamFactory8instanceEv>
#endif
    outputActive_ = false;
   b7ff8:	7325      	strb	r5, [r4, #12]
    streamFactory_ = DefaultOutputStreamFactory::instance();
   b7ffa:	6220      	str	r0, [r4, #32]
}
   b7ffc:	4620      	mov	r0, r4
   b7ffe:	bd38      	pop	{r3, r4, r5, pc}

000b8000 <_ZN5spark10LogManager8instanceEv>:
            resetSystemCallbacks();
        }
    }
}

spark::LogManager* spark::LogManager::instance() {
   b8000:	b510      	push	{r4, lr}
    static LogManager mgr;
   b8002:	4c0a      	ldr	r4, [pc, #40]	; (b802c <_ZN5spark10LogManager8instanceEv+0x2c>)
   b8004:	7823      	ldrb	r3, [r4, #0]
   b8006:	f3bf 8f5b 	dmb	ish
   b800a:	07db      	lsls	r3, r3, #31
   b800c:	d40c      	bmi.n	b8028 <_ZN5spark10LogManager8instanceEv+0x28>
   b800e:	4620      	mov	r0, r4
   b8010:	f7fc f852 	bl	b40b8 <__cxa_guard_acquire>
   b8014:	b140      	cbz	r0, b8028 <_ZN5spark10LogManager8instanceEv+0x28>
   b8016:	4806      	ldr	r0, [pc, #24]	; (b8030 <_ZN5spark10LogManager8instanceEv+0x30>)
   b8018:	f7ff ffdc 	bl	b7fd4 <_ZN5spark10LogManagerC1Ev>
   b801c:	4620      	mov	r0, r4
   b801e:	f7fc f850 	bl	b40c2 <__cxa_guard_release>
   b8022:	4804      	ldr	r0, [pc, #16]	; (b8034 <_ZN5spark10LogManager8instanceEv+0x34>)
   b8024:	f001 fc46 	bl	b98b4 <atexit>
    return &mgr;
}
   b8028:	4801      	ldr	r0, [pc, #4]	; (b8030 <_ZN5spark10LogManager8instanceEv+0x30>)
   b802a:	bd10      	pop	{r4, pc}
   b802c:	2003e6a4 	.word	0x2003e6a4
   b8030:	2003e6b4 	.word	0x2003e6b4
   b8034:	000b8555 	.word	0x000b8555

000b8038 <_ZN5spark10LogManager18setSystemCallbacksEv>:
}

#endif // Wiring_LogConfig

void spark::LogManager::setSystemCallbacks() {
    log_set_callbacks(logMessage, logWrite, logEnabled, nullptr);
   b8038:	4a02      	ldr	r2, [pc, #8]	; (b8044 <_ZN5spark10LogManager18setSystemCallbacksEv+0xc>)
   b803a:	4903      	ldr	r1, [pc, #12]	; (b8048 <_ZN5spark10LogManager18setSystemCallbacksEv+0x10>)
   b803c:	4803      	ldr	r0, [pc, #12]	; (b804c <_ZN5spark10LogManager18setSystemCallbacksEv+0x14>)
   b803e:	2300      	movs	r3, #0
   b8040:	f7fe bee6 	b.w	b6e10 <log_set_callbacks>
   b8044:	000b8339 	.word	0x000b8339
   b8048:	000b82c5 	.word	0x000b82c5
   b804c:	000b8245 	.word	0x000b8245

000b8050 <_ZN5spark10LogManager20resetSystemCallbacksEv>:
}

void spark::LogManager::resetSystemCallbacks() {
    log_set_callbacks(nullptr, nullptr, nullptr, nullptr);
   b8050:	2300      	movs	r3, #0
   b8052:	461a      	mov	r2, r3
   b8054:	4619      	mov	r1, r3
   b8056:	4618      	mov	r0, r3
   b8058:	f7fe beda 	b.w	b6e10 <log_set_callbacks>

000b805c <_ZN5spark18JSONObjectIteratorC1ERKNS_9JSONValueE>:
inline spark::JSONObjectIterator::JSONObjectIterator(const JSONValue &value) :
   b805c:	b537      	push	{r0, r1, r2, r4, r5, lr}
        JSONObjectIterator(value.t_, value.d_) {
   b805e:	688d      	ldr	r5, [r1, #8]
inline spark::JSONObjectIterator::JSONObjectIterator(const JSONValue &value) :
   b8060:	4604      	mov	r4, r0
      shared_ptr(const shared_ptr&) noexcept = default; ///< Copy constructor
   b8062:	4668      	mov	r0, sp
   b8064:	f7ff fec8 	bl	b7df8 <_ZNSt12__shared_ptrIN5spark6detail8JSONDataELN9__gnu_cxx12_Lock_policyE0EEC1ERKS5_>
        JSONObjectIterator(value.t_, value.d_) {
   b8068:	466a      	mov	r2, sp
   b806a:	4629      	mov	r1, r5
   b806c:	4620      	mov	r0, r4
   b806e:	f7ff fd7b 	bl	b7b68 <_ZN5spark18JSONObjectIteratorC1EPK9jsmntok_tSt10shared_ptrINS_6detail8JSONDataEE>
      ~__shared_ptr() = default;
   b8072:	a801      	add	r0, sp, #4
   b8074:	f7fc f8f6 	bl	b4264 <_ZNSt14__shared_countILN9__gnu_cxx12_Lock_policyE0EED1Ev>
}
   b8078:	4620      	mov	r0, r4
   b807a:	b003      	add	sp, #12
   b807c:	bd30      	pop	{r4, r5, pc}

000b807e <_ZNK5spark18JSONObjectIterator4nameEv>:
inline spark::JSONString spark::JSONObjectIterator::name() const {
   b807e:	b537      	push	{r0, r1, r2, r4, r5, lr}
    return JSONString(k_, d_);
   b8080:	68cd      	ldr	r5, [r1, #12]
inline spark::JSONString spark::JSONObjectIterator::name() const {
   b8082:	4604      	mov	r4, r0
   b8084:	4668      	mov	r0, sp
   b8086:	f7ff feb7 	bl	b7df8 <_ZNSt12__shared_ptrIN5spark6detail8JSONDataELN9__gnu_cxx12_Lock_policyE0EEC1ERKS5_>
    return JSONString(k_, d_);
   b808a:	466a      	mov	r2, sp
   b808c:	4629      	mov	r1, r5
   b808e:	4620      	mov	r0, r4
   b8090:	f7ff fd46 	bl	b7b20 <_ZN5spark10JSONStringC1EPK9jsmntok_tSt10shared_ptrINS_6detail8JSONDataEE>
   b8094:	a801      	add	r0, sp, #4
   b8096:	f7fc f8e5 	bl	b4264 <_ZNSt14__shared_countILN9__gnu_cxx12_Lock_policyE0EED1Ev>
}
   b809a:	4620      	mov	r0, r4
   b809c:	b003      	add	sp, #12
   b809e:	bd30      	pop	{r4, r5, pc}

000b80a0 <_ZNK5spark18JSONObjectIterator5valueEv>:
inline spark::JSONValue spark::JSONObjectIterator::value() const {
   b80a0:	b537      	push	{r0, r1, r2, r4, r5, lr}
    return JSONValue(v_, d_);
   b80a2:	690d      	ldr	r5, [r1, #16]
inline spark::JSONValue spark::JSONObjectIterator::value() const {
   b80a4:	4604      	mov	r4, r0
   b80a6:	4668      	mov	r0, sp
   b80a8:	f7ff fea6 	bl	b7df8 <_ZNSt12__shared_ptrIN5spark6detail8JSONDataELN9__gnu_cxx12_Lock_policyE0EEC1ERKS5_>
    return JSONValue(v_, d_);
   b80ac:	466a      	mov	r2, sp
   b80ae:	4629      	mov	r1, r5
   b80b0:	4620      	mov	r0, r4
   b80b2:	f7ff fcde 	bl	b7a72 <_ZN5spark9JSONValueC1EPK9jsmntok_tSt10shared_ptrINS_6detail8JSONDataEE>
   b80b6:	a801      	add	r0, sp, #4
   b80b8:	f7fc f8d4 	bl	b4264 <_ZNSt14__shared_countILN9__gnu_cxx12_Lock_policyE0EED1Ev>
}
   b80bc:	4620      	mov	r0, r4
   b80be:	b003      	add	sp, #12
   b80c0:	bd30      	pop	{r4, r5, pc}
	...

000b80c4 <_ZN5spark26DefaultOutputStreamFactory9getParamsERKNS_9JSONValueEPi>:
void spark::DefaultOutputStreamFactory::getParams(const JSONValue &params, int *baudRate) {
   b80c4:	b570      	push	{r4, r5, r6, lr}
   b80c6:	b08a      	sub	sp, #40	; 0x28
   b80c8:	460d      	mov	r5, r1
    JSONObjectIterator it(params);
   b80ca:	4601      	mov	r1, r0
   b80cc:	a804      	add	r0, sp, #16
   b80ce:	f7ff ffc5 	bl	b805c <_ZN5spark18JSONObjectIteratorC1ERKNS_9JSONValueE>
        if (it.name() == "baud" && baudRate) {
   b80d2:	4e14      	ldr	r6, [pc, #80]	; (b8124 <_ZN5spark26DefaultOutputStreamFactory9getParamsERKNS_9JSONValueEPi+0x60>)
    while (it.next()) {
   b80d4:	a804      	add	r0, sp, #16
   b80d6:	f7ff fd5f 	bl	b7b98 <_ZN5spark18JSONObjectIterator4nextEv>
   b80da:	b1e8      	cbz	r0, b8118 <_ZN5spark26DefaultOutputStreamFactory9getParamsERKNS_9JSONValueEPi+0x54>
        if (it.name() == "baud" && baudRate) {
   b80dc:	a904      	add	r1, sp, #16
   b80de:	4668      	mov	r0, sp
   b80e0:	f7ff ffcd 	bl	b807e <_ZNK5spark18JSONObjectIterator4nameEv>
   b80e4:	9802      	ldr	r0, [sp, #8]
   b80e6:	4631      	mov	r1, r6
   b80e8:	f7ff fe66 	bl	b7db8 <_ZNK5spark10JSONStringeqEPKc.isra.0>
   b80ec:	4604      	mov	r4, r0
   b80ee:	b110      	cbz	r0, b80f6 <_ZN5spark26DefaultOutputStreamFactory9getParamsERKNS_9JSONValueEPi+0x32>
   b80f0:	1e2c      	subs	r4, r5, #0
   b80f2:	bf18      	it	ne
   b80f4:	2401      	movne	r4, #1
   b80f6:	a801      	add	r0, sp, #4
   b80f8:	f7fc f8b4 	bl	b4264 <_ZNSt14__shared_countILN9__gnu_cxx12_Lock_policyE0EED1Ev>
   b80fc:	2c00      	cmp	r4, #0
   b80fe:	d0e9      	beq.n	b80d4 <_ZN5spark26DefaultOutputStreamFactory9getParamsERKNS_9JSONValueEPi+0x10>
            *baudRate = it.value().toInt();
   b8100:	a904      	add	r1, sp, #16
   b8102:	4668      	mov	r0, sp
   b8104:	f7ff ffcc 	bl	b80a0 <_ZNK5spark18JSONObjectIterator5valueEv>
   b8108:	4668      	mov	r0, sp
   b810a:	f7ff fce8 	bl	b7ade <_ZNK5spark9JSONValue5toIntEv>
   b810e:	6028      	str	r0, [r5, #0]
   b8110:	a801      	add	r0, sp, #4
   b8112:	f7fc f8a7 	bl	b4264 <_ZNSt14__shared_countILN9__gnu_cxx12_Lock_policyE0EED1Ev>
   b8116:	e7dd      	b.n	b80d4 <_ZN5spark26DefaultOutputStreamFactory9getParamsERKNS_9JSONValueEPi+0x10>
   b8118:	a805      	add	r0, sp, #20
   b811a:	f7fc f8a3 	bl	b4264 <_ZNSt14__shared_countILN9__gnu_cxx12_Lock_policyE0EED1Ev>
}
   b811e:	b00a      	add	sp, #40	; 0x28
   b8120:	bd70      	pop	{r4, r5, r6, pc}
   b8122:	bf00      	nop
   b8124:	000bac6d 	.word	0x000bac6d

000b8128 <_ZN5spark26DefaultOutputStreamFactory12createStreamEPKcRKNS_9JSONValueE>:
Print* spark::DefaultOutputStreamFactory::createStream(const char *type, const JSONValue &params) {
   b8128:	b537      	push	{r0, r1, r2, r4, r5, lr}
   b812a:	460c      	mov	r4, r1
    if (strcmp(type, "Serial") == 0) {
   b812c:	4620      	mov	r0, r4
   b812e:	4913      	ldr	r1, [pc, #76]	; (b817c <_ZN5spark26DefaultOutputStreamFactory12createStreamEPKcRKNS_9JSONValueE+0x54>)
Print* spark::DefaultOutputStreamFactory::createStream(const char *type, const JSONValue &params) {
   b8130:	4615      	mov	r5, r2
    if (strcmp(type, "Serial") == 0) {
   b8132:	f001 fc80 	bl	b9a36 <strcmp>
   b8136:	b950      	cbnz	r0, b814e <_ZN5spark26DefaultOutputStreamFactory12createStreamEPKcRKNS_9JSONValueE+0x26>
        Serial.begin();
   b8138:	f001 f8b6 	bl	b92a8 <_Z16_fetch_usbserialv>
   b813c:	f44f 5116 	mov.w	r1, #9600	; 0x2580
   b8140:	f001 f8a2 	bl	b9288 <_ZN9USBSerial5beginEl>
}
   b8144:	b003      	add	sp, #12
   b8146:	e8bd 4030 	ldmia.w	sp!, {r4, r5, lr}
        return &Serial;
   b814a:	f001 b8ad 	b.w	b92a8 <_Z16_fetch_usbserialv>
    if (strcmp(type, "Serial1") == 0) {
   b814e:	490c      	ldr	r1, [pc, #48]	; (b8180 <_ZN5spark26DefaultOutputStreamFactory12createStreamEPKcRKNS_9JSONValueE+0x58>)
   b8150:	4620      	mov	r0, r4
   b8152:	f001 fc70 	bl	b9a36 <strcmp>
   b8156:	b978      	cbnz	r0, b8178 <_ZN5spark26DefaultOutputStreamFactory12createStreamEPKcRKNS_9JSONValueE+0x50>
        int baud = 9600;
   b8158:	f44f 5316 	mov.w	r3, #9600	; 0x2580
        getParams(params, &baud);
   b815c:	a901      	add	r1, sp, #4
   b815e:	4628      	mov	r0, r5
        int baud = 9600;
   b8160:	9301      	str	r3, [sp, #4]
        getParams(params, &baud);
   b8162:	f7ff ffaf 	bl	b80c4 <_ZN5spark26DefaultOutputStreamFactory9getParamsERKNS_9JSONValueEPi>
        Serial1.begin(baud);
   b8166:	f001 f9bd 	bl	b94e4 <_Z22__fetch_global_Serial1v>
   b816a:	9901      	ldr	r1, [sp, #4]
   b816c:	f001 f834 	bl	b91d8 <_ZN11USARTSerial5beginEm>
        return &Serial1;
   b8170:	f001 f9b8 	bl	b94e4 <_Z22__fetch_global_Serial1v>
}
   b8174:	b003      	add	sp, #12
   b8176:	bd30      	pop	{r4, r5, pc}
    return nullptr;
   b8178:	2000      	movs	r0, #0
   b817a:	e7fb      	b.n	b8174 <_ZN5spark26DefaultOutputStreamFactory12createStreamEPKcRKNS_9JSONValueE+0x4c>
   b817c:	000bac72 	.word	0x000bac72
   b8180:	000bac79 	.word	0x000bac79

000b8184 <_ZN5spark6VectorINS_6detail9LogFilter4NodeENS_16DefaultAllocatorEED1Ev>:
inline spark::Vector<T, AllocatorT>::~Vector() {
   b8184:	b570      	push	{r4, r5, r6, lr}
    destruct(data_, data_ + size_);
   b8186:	e9d0 5300 	ldrd	r5, r3, [r0]
   b818a:	2614      	movs	r6, #20
inline spark::Vector<T, AllocatorT>::~Vector() {
   b818c:	4604      	mov	r4, r0
    destruct(data_, data_ + size_);
   b818e:	fb06 5603 	mla	r6, r6, r3, r5
        for (; p != end; ++p) {
   b8192:	42ae      	cmp	r6, r5
   b8194:	d005      	beq.n	b81a2 <_ZN5spark6VectorINS_6detail9LogFilter4NodeENS_16DefaultAllocatorEED1Ev+0x1e>
struct spark::detail::LogFilter::Node {
   b8196:	f105 0008 	add.w	r0, r5, #8
   b819a:	f7ff fff3 	bl	b8184 <_ZN5spark6VectorINS_6detail9LogFilter4NodeENS_16DefaultAllocatorEED1Ev>
   b819e:	3514      	adds	r5, #20
   b81a0:	e7f7      	b.n	b8192 <_ZN5spark6VectorINS_6detail9LogFilter4NodeENS_16DefaultAllocatorEED1Ev+0xe>
    ::free(ptr);
   b81a2:	6820      	ldr	r0, [r4, #0]
   b81a4:	f7fe ff10 	bl	b6fc8 <free>
}
   b81a8:	4620      	mov	r0, r4
   b81aa:	bd70      	pop	{r4, r5, r6, pc}

000b81ac <_ZN5spark6detail9LogFilterD1Ev>:
spark::detail::LogFilter::~LogFilter() {
   b81ac:	b510      	push	{r4, lr}
   b81ae:	4604      	mov	r4, r0
   b81b0:	300c      	adds	r0, #12
   b81b2:	f7ff ffe7 	bl	b8184 <_ZN5spark6VectorINS_6detail9LogFilter4NodeENS_16DefaultAllocatorEED1Ev>
   b81b6:	4620      	mov	r0, r4
   b81b8:	f7fe ff92 	bl	b70e0 <_ZN5spark6VectorI6StringNS_16DefaultAllocatorEED1Ev>
}
   b81bc:	4620      	mov	r0, r4
   b81be:	bd10      	pop	{r4, pc}

000b81c0 <_ZN5spark16StreamLogHandlerD1Ev>:
class StreamLogHandler: public LogHandler {
   b81c0:	b510      	push	{r4, lr}
    virtual ~LogHandler() = default;
   b81c2:	4b04      	ldr	r3, [pc, #16]	; (b81d4 <_ZN5spark16StreamLogHandlerD1Ev+0x14>)
class StreamLogHandler: public LogHandler {
   b81c4:	4604      	mov	r4, r0
    virtual ~LogHandler() = default;
   b81c6:	f840 3b04 	str.w	r3, [r0], #4
   b81ca:	f7ff ffef 	bl	b81ac <_ZN5spark6detail9LogFilterD1Ev>
class StreamLogHandler: public LogHandler {
   b81ce:	4620      	mov	r0, r4
   b81d0:	bd10      	pop	{r4, pc}
   b81d2:	bf00      	nop
   b81d4:	000ba868 	.word	0x000ba868

000b81d8 <_ZN5spark16StreamLogHandlerD0Ev>:
   b81d8:	b510      	push	{r4, lr}
   b81da:	4604      	mov	r4, r0
   b81dc:	f7ff fff0 	bl	b81c0 <_ZN5spark16StreamLogHandlerD1Ev>
   b81e0:	4620      	mov	r0, r4
   b81e2:	2124      	movs	r1, #36	; 0x24
   b81e4:	f7fb ff59 	bl	b409a <_ZdlPvj>
   b81e8:	4620      	mov	r0, r4
   b81ea:	bd10      	pop	{r4, pc}

000b81ec <_ZN5spark20JSONStreamLogHandlerD1Ev>:
class JSONStreamLogHandler: public StreamLogHandler {
   b81ec:	b510      	push	{r4, lr}
   b81ee:	4b03      	ldr	r3, [pc, #12]	; (b81fc <_ZN5spark20JSONStreamLogHandlerD1Ev+0x10>)
   b81f0:	6003      	str	r3, [r0, #0]
   b81f2:	4604      	mov	r4, r0
   b81f4:	f7ff ffe4 	bl	b81c0 <_ZN5spark16StreamLogHandlerD1Ev>
   b81f8:	4620      	mov	r0, r4
   b81fa:	bd10      	pop	{r4, pc}
   b81fc:	000bad14 	.word	0x000bad14

000b8200 <_ZN5spark20JSONStreamLogHandlerD0Ev>:
   b8200:	b510      	push	{r4, lr}
   b8202:	4604      	mov	r4, r0
   b8204:	f7ff fff2 	bl	b81ec <_ZN5spark20JSONStreamLogHandlerD1Ev>
   b8208:	4620      	mov	r0, r4
   b820a:	2124      	movs	r1, #36	; 0x24
   b820c:	f7fb ff45 	bl	b409a <_ZdlPvj>
   b8210:	4620      	mov	r0, r4
   b8212:	bd10      	pop	{r4, pc}

000b8214 <_ZN5spark6VectorINS_17LogCategoryFilterENS_16DefaultAllocatorEEC1EOS3_>:
        capacity_(0) {
   b8214:	2200      	movs	r2, #0
   b8216:	e9c0 2200 	strd	r2, r2, [r0]
inline spark::Vector<T, AllocatorT>::Vector(Vector<T, AllocatorT>&& vector) : Vector() {
   b821a:	b510      	push	{r4, lr}
        capacity_(0) {
   b821c:	6082      	str	r2, [r0, #8]
      __a = _GLIBCXX_MOVE(__b);
   b821e:	680c      	ldr	r4, [r1, #0]
   b8220:	6004      	str	r4, [r0, #0]
   b8222:	684c      	ldr	r4, [r1, #4]
   b8224:	6044      	str	r4, [r0, #4]
   b8226:	688c      	ldr	r4, [r1, #8]
      __b = _GLIBCXX_MOVE(__tmp);
   b8228:	600a      	str	r2, [r1, #0]
   b822a:	604a      	str	r2, [r1, #4]
      __a = _GLIBCXX_MOVE(__b);
   b822c:	6084      	str	r4, [r0, #8]
      __b = _GLIBCXX_MOVE(__tmp);
   b822e:	608a      	str	r2, [r1, #8]
}
   b8230:	bd10      	pop	{r4, pc}

000b8232 <_ZNSt10lock_guardI14RecursiveMutexED1Ev>:
      ~lock_guard()
   b8232:	b510      	push	{r4, lr}
    bool trylock() { return os_mutex_recursive_trylock(handle_)==0; }
    bool try_lock() { return trylock(); }
    void unlock() { os_mutex_recursive_unlock(handle_); }
   b8234:	6803      	ldr	r3, [r0, #0]
   b8236:	4604      	mov	r4, r0
   b8238:	6818      	ldr	r0, [r3, #0]
   b823a:	f7fe fc91 	bl	b6b60 <os_mutex_recursive_unlock>
      { _M_device.unlock(); }
   b823e:	4620      	mov	r0, r4
   b8240:	bd10      	pop	{r4, pc}
	...

000b8244 <_ZN5spark10LogManager10logMessageEPKciS2_PK13LogAttributesPv>:
}

void spark::LogManager::logMessage(const char *msg, int level, const char *category, const LogAttributes *attr, void *reserved) {
   b8244:	e92d 4ff0 	stmdb	sp!, {r4, r5, r6, r7, r8, r9, sl, fp, lr}
   b8248:	b087      	sub	sp, #28
   b824a:	4680      	mov	r8, r0
   b824c:	9303      	str	r3, [sp, #12]
#endif /* nRF52840 */

#if defined(STM32F10X_MD) || defined(STM32F10X_HD) || defined(STM32F2XX) || defined(nRF52840)
static inline bool HAL_IsISR() 
{
	return (SCB->ICSR & SCB_ICSR_VECTACTIVE_Msk) != 0;
   b824e:	4b1c      	ldr	r3, [pc, #112]	; (b82c0 <_ZN5spark10LogManager10logMessageEPKciS2_PK13LogAttributesPv+0x7c>)
   b8250:	685b      	ldr	r3, [r3, #4]
   b8252:	f3c3 0308 	ubfx	r3, r3, #0, #9
   b8256:	4689      	mov	r9, r1
   b8258:	4616      	mov	r6, r2
#ifndef LOG_FROM_ISR
    if (HAL_IsISR()) {
   b825a:	b96b      	cbnz	r3, b8278 <_ZN5spark10LogManager10logMessageEPKciS2_PK13LogAttributesPv+0x34>
        return;
    }
#endif
    LogManager *that = instance();
   b825c:	f7ff fed0 	bl	b8000 <_ZN5spark10LogManager8instanceEv>
   b8260:	4604      	mov	r4, r0
    LOG_WITH_LOCK(that->mutex_) {
   b8262:	f100 0324 	add.w	r3, r0, #36	; 0x24
      { _M_device.lock(); }
   b8266:	6a40      	ldr	r0, [r0, #36]	; 0x24
      explicit lock_guard(mutex_type& __m) : _M_device(__m)
   b8268:	9305      	str	r3, [sp, #20]
      { _M_device.lock(); }
   b826a:	f7ff fda3 	bl	b7db4 <_ZN14RecursiveMutex4lockEv.isra.0>
        // prevent re-entry
        if (that->isActive()) {
   b826e:	7b23      	ldrb	r3, [r4, #12]
   b8270:	b12b      	cbz	r3, b827e <_ZN5spark10LogManager10logMessageEPKciS2_PK13LogAttributesPv+0x3a>
    LOG_WITH_LOCK(that->mutex_) {
   b8272:	a805      	add	r0, sp, #20
   b8274:	f7ff ffdd 	bl	b8232 <_ZNSt10lock_guardI14RecursiveMutexED1Ev>
        for (LogHandler *handler: that->activeHandlers_) {
            handler->message(msg, (LogLevel)level, category, *attr);
        }
        that->setActive(false);
    }
}
   b8278:	b007      	add	sp, #28
   b827a:	e8bd 8ff0 	ldmia.w	sp!, {r4, r5, r6, r7, r8, r9, sl, fp, pc}
inline bool spark::LogManager::isActive() const {
    return outputActive_;
}

inline void spark::LogManager::setActive(bool outputActive) {
    outputActive_ = outputActive;
   b827e:	2301      	movs	r3, #1
   b8280:	7323      	strb	r3, [r4, #12]
    return data_ + size_;
   b8282:	e9d4 5300 	ldrd	r5, r3, [r4]
            handler->message(msg, (LogLevel)level, category, *attr);
   b8286:	fa5f f989 	uxtb.w	r9, r9
   b828a:	eb05 0a83 	add.w	sl, r5, r3, lsl #2
        for (LogHandler *handler: that->activeHandlers_) {
   b828e:	45aa      	cmp	sl, r5
   b8290:	d012      	beq.n	b82b8 <_ZN5spark10LogManager10logMessageEPKciS2_PK13LogAttributesPv+0x74>
   b8292:	f855 7b04 	ldr.w	r7, [r5], #4
    if (level >= filter_.level(category)) {
   b8296:	4631      	mov	r1, r6
   b8298:	1d38      	adds	r0, r7, #4
   b829a:	f7ff fe3d 	bl	b7f18 <_ZNK5spark6detail9LogFilter5levelEPKc>
   b829e:	4581      	cmp	r9, r0
   b82a0:	d3f5      	bcc.n	b828e <_ZN5spark10LogManager10logMessageEPKciS2_PK13LogAttributesPv+0x4a>
        logMessage(msg, level, category, attr);
   b82a2:	683b      	ldr	r3, [r7, #0]
   b82a4:	9a03      	ldr	r2, [sp, #12]
   b82a6:	9200      	str	r2, [sp, #0]
   b82a8:	f8d3 b008 	ldr.w	fp, [r3, #8]
   b82ac:	464a      	mov	r2, r9
   b82ae:	4633      	mov	r3, r6
   b82b0:	4641      	mov	r1, r8
   b82b2:	4638      	mov	r0, r7
   b82b4:	47d8      	blx	fp
   b82b6:	e7ea      	b.n	b828e <_ZN5spark10LogManager10logMessageEPKciS2_PK13LogAttributesPv+0x4a>
    outputActive_ = outputActive;
   b82b8:	2300      	movs	r3, #0
   b82ba:	7323      	strb	r3, [r4, #12]
   b82bc:	e7d9      	b.n	b8272 <_ZN5spark10LogManager10logMessageEPKciS2_PK13LogAttributesPv+0x2e>
   b82be:	bf00      	nop
   b82c0:	e000ed00 	.word	0xe000ed00

000b82c4 <_ZN5spark10LogManager8logWriteEPKcjiS2_Pv>:
void spark::LogManager::logWrite(const char *data, size_t size, int level, const char *category, void *reserved) {
   b82c4:	e92d 4ff7 	stmdb	sp!, {r0, r1, r2, r4, r5, r6, r7, r8, r9, sl, fp, lr}
   b82c8:	469b      	mov	fp, r3
   b82ca:	4b1a      	ldr	r3, [pc, #104]	; (b8334 <_ZN5spark10LogManager8logWriteEPKcjiS2_Pv+0x70>)
   b82cc:	685b      	ldr	r3, [r3, #4]
   b82ce:	f3c3 0308 	ubfx	r3, r3, #0, #9
   b82d2:	4680      	mov	r8, r0
   b82d4:	4689      	mov	r9, r1
   b82d6:	4616      	mov	r6, r2
    if (HAL_IsISR()) {
   b82d8:	b96b      	cbnz	r3, b82f6 <_ZN5spark10LogManager8logWriteEPKcjiS2_Pv+0x32>
    LogManager *that = instance();
   b82da:	f7ff fe91 	bl	b8000 <_ZN5spark10LogManager8instanceEv>
   b82de:	4604      	mov	r4, r0
    LOG_WITH_LOCK(that->mutex_) {
   b82e0:	f100 0324 	add.w	r3, r0, #36	; 0x24
   b82e4:	6a40      	ldr	r0, [r0, #36]	; 0x24
      explicit lock_guard(mutex_type& __m) : _M_device(__m)
   b82e6:	9301      	str	r3, [sp, #4]
      { _M_device.lock(); }
   b82e8:	f7ff fd64 	bl	b7db4 <_ZN14RecursiveMutex4lockEv.isra.0>
        if (that->isActive()) {
   b82ec:	7b23      	ldrb	r3, [r4, #12]
   b82ee:	b12b      	cbz	r3, b82fc <_ZN5spark10LogManager8logWriteEPKcjiS2_Pv+0x38>
    LOG_WITH_LOCK(that->mutex_) {
   b82f0:	a801      	add	r0, sp, #4
   b82f2:	f7ff ff9e 	bl	b8232 <_ZNSt10lock_guardI14RecursiveMutexED1Ev>
}
   b82f6:	b003      	add	sp, #12
   b82f8:	e8bd 8ff0 	ldmia.w	sp!, {r4, r5, r6, r7, r8, r9, sl, fp, pc}
    outputActive_ = outputActive;
   b82fc:	2301      	movs	r3, #1
   b82fe:	7323      	strb	r3, [r4, #12]
   b8300:	e9d4 5300 	ldrd	r5, r3, [r4]
    if (level >= filter_.level(category)) {
   b8304:	b2f6      	uxtb	r6, r6
   b8306:	eb05 0a83 	add.w	sl, r5, r3, lsl #2
        for (LogHandler *handler: that->activeHandlers_) {
   b830a:	4555      	cmp	r5, sl
   b830c:	d00e      	beq.n	b832c <_ZN5spark10LogManager8logWriteEPKcjiS2_Pv+0x68>
   b830e:	f855 7b04 	ldr.w	r7, [r5], #4
   b8312:	4659      	mov	r1, fp
   b8314:	1d38      	adds	r0, r7, #4
   b8316:	f7ff fdff 	bl	b7f18 <_ZNK5spark6detail9LogFilter5levelEPKc>
   b831a:	4286      	cmp	r6, r0
   b831c:	d3f5      	bcc.n	b830a <_ZN5spark10LogManager8logWriteEPKcjiS2_Pv+0x46>
        write(data, size);
   b831e:	683b      	ldr	r3, [r7, #0]
   b8320:	464a      	mov	r2, r9
   b8322:	68db      	ldr	r3, [r3, #12]
   b8324:	4641      	mov	r1, r8
   b8326:	4638      	mov	r0, r7
   b8328:	4798      	blx	r3
   b832a:	e7ee      	b.n	b830a <_ZN5spark10LogManager8logWriteEPKcjiS2_Pv+0x46>
    outputActive_ = outputActive;
   b832c:	2300      	movs	r3, #0
   b832e:	7323      	strb	r3, [r4, #12]
   b8330:	e7de      	b.n	b82f0 <_ZN5spark10LogManager8logWriteEPKcjiS2_Pv+0x2c>
   b8332:	bf00      	nop
   b8334:	e000ed00 	.word	0xe000ed00

000b8338 <_ZN5spark10LogManager10logEnabledEiPKcPv>:
int spark::LogManager::logEnabled(int level, const char *category, void *reserved) {
   b8338:	e92d 41f3 	stmdb	sp!, {r0, r1, r4, r5, r6, r7, r8, lr}
   b833c:	4b16      	ldr	r3, [pc, #88]	; (b8398 <_ZN5spark10LogManager10logEnabledEiPKcPv+0x60>)
   b833e:	685b      	ldr	r3, [r3, #4]
   b8340:	f3c3 0308 	ubfx	r3, r3, #0, #9
   b8344:	4605      	mov	r5, r0
   b8346:	460f      	mov	r7, r1
    if (HAL_IsISR()) {
   b8348:	bb1b      	cbnz	r3, b8392 <_ZN5spark10LogManager10logEnabledEiPKcPv+0x5a>
    LogManager *that = instance();
   b834a:	f7ff fe59 	bl	b8000 <_ZN5spark10LogManager8instanceEv>
    LOG_WITH_LOCK(that->mutex_) {
   b834e:	f100 0324 	add.w	r3, r0, #36	; 0x24
    LogManager *that = instance();
   b8352:	4604      	mov	r4, r0
   b8354:	6a40      	ldr	r0, [r0, #36]	; 0x24
      explicit lock_guard(mutex_type& __m) : _M_device(__m)
   b8356:	9301      	str	r3, [sp, #4]
      { _M_device.lock(); }
   b8358:	f7ff fd2c 	bl	b7db4 <_ZN14RecursiveMutex4lockEv.isra.0>
   b835c:	e9d4 6300 	ldrd	r6, r3, [r4]
    int minLevel = LOG_LEVEL_NONE;
   b8360:	2446      	movs	r4, #70	; 0x46
   b8362:	eb06 0883 	add.w	r8, r6, r3, lsl #2
        for (LogHandler *handler: that->activeHandlers_) {
   b8366:	45b0      	cmp	r8, r6
   b8368:	d109      	bne.n	b837e <_ZN5spark10LogManager10logEnabledEiPKcPv+0x46>
    LOG_WITH_LOCK(that->mutex_) {
   b836a:	a801      	add	r0, sp, #4
   b836c:	f7ff ff61 	bl	b8232 <_ZNSt10lock_guardI14RecursiveMutexED1Ev>
    return (level >= minLevel);
   b8370:	42a5      	cmp	r5, r4
   b8372:	bfb4      	ite	lt
   b8374:	2000      	movlt	r0, #0
   b8376:	2001      	movge	r0, #1
}
   b8378:	b002      	add	sp, #8
   b837a:	e8bd 81f0 	ldmia.w	sp!, {r4, r5, r6, r7, r8, pc}
    return filter_.level(category);
   b837e:	f856 0b04 	ldr.w	r0, [r6], #4
   b8382:	4639      	mov	r1, r7
   b8384:	3004      	adds	r0, #4
   b8386:	f7ff fdc7 	bl	b7f18 <_ZNK5spark6detail9LogFilter5levelEPKc>
            if (level < minLevel) {
   b838a:	4284      	cmp	r4, r0
   b838c:	bfa8      	it	ge
   b838e:	4604      	movge	r4, r0
        for (LogHandler *handler: that->activeHandlers_) {
   b8390:	e7e9      	b.n	b8366 <_ZN5spark10LogManager10logEnabledEiPKcPv+0x2e>
        return 0;
   b8392:	2000      	movs	r0, #0
   b8394:	e7f0      	b.n	b8378 <_ZN5spark10LogManager10logEnabledEiPKcPv+0x40>
   b8396:	bf00      	nop
   b8398:	e000ed00 	.word	0xe000ed00

000b839c <_ZN5spark6VectorIPNS_10LogHandlerENS_16DefaultAllocatorEE6appendES2_>:
inline bool spark::Vector<T, AllocatorT>::append(T value) {
   b839c:	b5f8      	push	{r3, r4, r5, r6, r7, lr}
    if (size_ + 1 > capacity_ && !realloc(size_ + 1)) {
   b839e:	e9d0 5301 	ldrd	r5, r3, [r0, #4]
   b83a2:	429d      	cmp	r5, r3
inline bool spark::Vector<T, AllocatorT>::append(T value) {
   b83a4:	4604      	mov	r4, r0
   b83a6:	460e      	mov	r6, r1
    if (size_ + 1 > capacity_ && !realloc(size_ + 1)) {
   b83a8:	db0d      	blt.n	b83c6 <_ZN5spark6VectorIPNS_10LogHandlerENS_16DefaultAllocatorEE6appendES2_+0x2a>
   b83aa:	1c6f      	adds	r7, r5, #1
        if (n > 0) {
   b83ac:	2f00      	cmp	r7, #0
            d = (T*)AllocatorT::realloc(data_, n * sizeof(T));
   b83ae:	6800      	ldr	r0, [r0, #0]
        if (n > 0) {
   b83b0:	dd04      	ble.n	b83bc <_ZN5spark6VectorIPNS_10LogHandlerENS_16DefaultAllocatorEE6appendES2_+0x20>
    return ::realloc(ptr, size);
   b83b2:	00b9      	lsls	r1, r7, #2
   b83b4:	f7fe fe10 	bl	b6fd8 <realloc>
            if (!d) {
   b83b8:	b918      	cbnz	r0, b83c2 <_ZN5spark6VectorIPNS_10LogHandlerENS_16DefaultAllocatorEE6appendES2_+0x26>
}
   b83ba:	bdf8      	pop	{r3, r4, r5, r6, r7, pc}
    ::free(ptr);
   b83bc:	f7fe fe04 	bl	b6fc8 <free>
        T* d = nullptr;
   b83c0:	2000      	movs	r0, #0
        data_ = d;
   b83c2:	6020      	str	r0, [r4, #0]
        capacity_ = n;
   b83c4:	60a7      	str	r7, [r4, #8]
    T* const p = data_ + i;
   b83c6:	6827      	ldr	r7, [r4, #0]
    move(p + 1, p, data_ + size_);
   b83c8:	6862      	ldr	r2, [r4, #4]
    T* const p = data_ + i;
   b83ca:	eb07 0185 	add.w	r1, r7, r5, lsl #2
    move(p + 1, p, data_ + size_);
   b83ce:	0092      	lsls	r2, r2, #2
        ::memmove(dest, p, (end - p) * sizeof(T));
   b83d0:	eba2 0285 	sub.w	r2, r2, r5, lsl #2
   b83d4:	1d08      	adds	r0, r1, #4
   b83d6:	f001 fa89 	bl	b98ec <memmove>
    new(p) T(std::move(value));
   b83da:	f847 6025 	str.w	r6, [r7, r5, lsl #2]
    ++size_;
   b83de:	6863      	ldr	r3, [r4, #4]
   b83e0:	3301      	adds	r3, #1
   b83e2:	6063      	str	r3, [r4, #4]
    return true;
   b83e4:	2001      	movs	r0, #1
   b83e6:	e7e8      	b.n	b83ba <_ZN5spark6VectorIPNS_10LogHandlerENS_16DefaultAllocatorEE6appendES2_+0x1e>

000b83e8 <_ZN5spark10LogManager10addHandlerEPNS_10LogHandlerE>:
bool spark::LogManager::addHandler(LogHandler *handler) {
   b83e8:	b537      	push	{r0, r1, r2, r4, r5, lr}
    LOG_WITH_LOCK(mutex_) {
   b83ea:	f100 0324 	add.w	r3, r0, #36	; 0x24
bool spark::LogManager::addHandler(LogHandler *handler) {
   b83ee:	4604      	mov	r4, r0
   b83f0:	6a40      	ldr	r0, [r0, #36]	; 0x24
      explicit lock_guard(mutex_type& __m) : _M_device(__m)
   b83f2:	9301      	str	r3, [sp, #4]
   b83f4:	460d      	mov	r5, r1
      { _M_device.lock(); }
   b83f6:	f7ff fcdd 	bl	b7db4 <_ZN14RecursiveMutex4lockEv.isra.0>
    return find(data_, data_ + size_, value);
   b83fa:	e9d4 3200 	ldrd	r3, r2, [r4]
   b83fe:	eb03 0282 	add.w	r2, r3, r2, lsl #2
        for (; p != end; ++p) {
   b8402:	4293      	cmp	r3, r2
   b8404:	4619      	mov	r1, r3
   b8406:	d00b      	beq.n	b8420 <_ZN5spark10LogManager10addHandlerEPNS_10LogHandlerE+0x38>
            if (*p == value) {
   b8408:	6809      	ldr	r1, [r1, #0]
   b840a:	42a9      	cmp	r1, r5
   b840c:	f103 0304 	add.w	r3, r3, #4
   b8410:	d1f7      	bne.n	b8402 <_ZN5spark10LogManager10addHandlerEPNS_10LogHandlerE+0x1a>
            return false;
   b8412:	a801      	add	r0, sp, #4
   b8414:	f7ff ff0d 	bl	b8232 <_ZNSt10lock_guardI14RecursiveMutexED1Ev>
   b8418:	2500      	movs	r5, #0
}
   b841a:	4628      	mov	r0, r5
   b841c:	b003      	add	sp, #12
   b841e:	bd30      	pop	{r4, r5, pc}
        if (activeHandlers_.contains(handler) || !activeHandlers_.append(handler)) {
   b8420:	4629      	mov	r1, r5
   b8422:	4620      	mov	r0, r4
   b8424:	f7ff ffba 	bl	b839c <_ZN5spark6VectorIPNS_10LogHandlerENS_16DefaultAllocatorEE6appendES2_>
   b8428:	4605      	mov	r5, r0
   b842a:	2800      	cmp	r0, #0
   b842c:	d0f1      	beq.n	b8412 <_ZN5spark10LogManager10addHandlerEPNS_10LogHandlerE+0x2a>
        if (activeHandlers_.size() == 1) {
   b842e:	6863      	ldr	r3, [r4, #4]
   b8430:	2b01      	cmp	r3, #1
   b8432:	d101      	bne.n	b8438 <_ZN5spark10LogManager10addHandlerEPNS_10LogHandlerE+0x50>
            setSystemCallbacks();
   b8434:	f7ff fe00 	bl	b8038 <_ZN5spark10LogManager18setSystemCallbacksEv>
    LOG_WITH_LOCK(mutex_) {
   b8438:	a801      	add	r0, sp, #4
   b843a:	f7ff fefa 	bl	b8232 <_ZNSt10lock_guardI14RecursiveMutexED1Ev>
   b843e:	e7ec      	b.n	b841a <_ZN5spark10LogManager10addHandlerEPNS_10LogHandlerE+0x32>

000b8440 <_ZN5spark6VectorIPNS_10LogHandlerENS_16DefaultAllocatorEE9removeOneERKS2_>:
inline bool spark::Vector<T, AllocatorT>::removeOne(const T &value) {
   b8440:	b570      	push	{r4, r5, r6, lr}
   b8442:	4604      	mov	r4, r0
    T* const p = find(data_, data_ + size_, value);
   b8444:	e9d0 0200 	ldrd	r0, r2, [r0]
inline bool spark::Vector<T, AllocatorT>::removeOne(const T &value) {
   b8448:	460b      	mov	r3, r1
    T* const p = find(data_, data_ + size_, value);
   b844a:	eb00 0282 	add.w	r2, r0, r2, lsl #2
        for (; p != end; ++p) {
   b844e:	4282      	cmp	r2, r0
   b8450:	d00f      	beq.n	b8472 <_ZN5spark6VectorIPNS_10LogHandlerENS_16DefaultAllocatorEE9removeOneERKS2_+0x32>
    move(p, p + 1, data_ + size_);
   b8452:	4601      	mov	r1, r0
            if (*p == value) {
   b8454:	681d      	ldr	r5, [r3, #0]
   b8456:	f851 6b04 	ldr.w	r6, [r1], #4
   b845a:	42ae      	cmp	r6, r5
   b845c:	d107      	bne.n	b846e <_ZN5spark6VectorIPNS_10LogHandlerENS_16DefaultAllocatorEE9removeOneERKS2_+0x2e>
        ::memmove(dest, p, (end - p) * sizeof(T));
   b845e:	1a52      	subs	r2, r2, r1
   b8460:	f001 fa44 	bl	b98ec <memmove>
    --size_;
   b8464:	6863      	ldr	r3, [r4, #4]
   b8466:	3b01      	subs	r3, #1
   b8468:	6063      	str	r3, [r4, #4]
    return true;
   b846a:	2001      	movs	r0, #1
}
   b846c:	bd70      	pop	{r4, r5, r6, pc}
    move(p, p + 1, data_ + size_);
   b846e:	4608      	mov	r0, r1
   b8470:	e7ed      	b.n	b844e <_ZN5spark6VectorIPNS_10LogHandlerENS_16DefaultAllocatorEE9removeOneERKS2_+0xe>
        return false;
   b8472:	2000      	movs	r0, #0
   b8474:	e7fa      	b.n	b846c <_ZN5spark6VectorIPNS_10LogHandlerENS_16DefaultAllocatorEE9removeOneERKS2_+0x2c>

000b8476 <_ZN5spark10LogManager13removeHandlerEPNS_10LogHandlerE>:
void spark::LogManager::removeHandler(LogHandler *handler) {
   b8476:	b51f      	push	{r0, r1, r2, r3, r4, lr}
    LOG_WITH_LOCK(mutex_) {
   b8478:	f100 0324 	add.w	r3, r0, #36	; 0x24
void spark::LogManager::removeHandler(LogHandler *handler) {
   b847c:	4604      	mov	r4, r0
   b847e:	6a40      	ldr	r0, [r0, #36]	; 0x24
   b8480:	9101      	str	r1, [sp, #4]
      explicit lock_guard(mutex_type& __m) : _M_device(__m)
   b8482:	9303      	str	r3, [sp, #12]
      { _M_device.lock(); }
   b8484:	f7ff fc96 	bl	b7db4 <_ZN14RecursiveMutex4lockEv.isra.0>
        if (activeHandlers_.removeOne(handler) && activeHandlers_.isEmpty()) {
   b8488:	a901      	add	r1, sp, #4
   b848a:	4620      	mov	r0, r4
   b848c:	f7ff ffd8 	bl	b8440 <_ZN5spark6VectorIPNS_10LogHandlerENS_16DefaultAllocatorEE9removeOneERKS2_>
   b8490:	b118      	cbz	r0, b849a <_ZN5spark10LogManager13removeHandlerEPNS_10LogHandlerE+0x24>
   b8492:	6863      	ldr	r3, [r4, #4]
   b8494:	b90b      	cbnz	r3, b849a <_ZN5spark10LogManager13removeHandlerEPNS_10LogHandlerE+0x24>
            resetSystemCallbacks();
   b8496:	f7ff fddb 	bl	b8050 <_ZN5spark10LogManager20resetSystemCallbacksEv>
    LOG_WITH_LOCK(mutex_) {
   b849a:	a803      	add	r0, sp, #12
   b849c:	f7ff fec9 	bl	b8232 <_ZNSt10lock_guardI14RecursiveMutexED1Ev>
}
   b84a0:	b004      	add	sp, #16
   b84a2:	bd10      	pop	{r4, pc}

000b84a4 <_ZN5spark10LogManager22destroyFactoryHandlersEv>:
void spark::LogManager::destroyFactoryHandlers() {
   b84a4:	b570      	push	{r4, r5, r6, lr}
    return data_ + size_;
   b84a6:	e9d0 5604 	ldrd	r5, r6, [r0, #16]
   b84aa:	2318      	movs	r3, #24
   b84ac:	4604      	mov	r4, r0
   b84ae:	fb03 5606 	mla	r6, r3, r6, r5
    for (const FactoryHandler &h: factoryHandlers_) {
   b84b2:	42ae      	cmp	r6, r5
   b84b4:	d015      	beq.n	b84e2 <_ZN5spark10LogManager22destroyFactoryHandlersEv+0x3e>
        activeHandlers_.removeOne(h.handler);
   b84b6:	f105 0110 	add.w	r1, r5, #16
   b84ba:	4620      	mov	r0, r4
   b84bc:	f7ff ffc0 	bl	b8440 <_ZN5spark6VectorIPNS_10LogHandlerENS_16DefaultAllocatorEE9removeOneERKS2_>
        if (activeHandlers_.isEmpty()) {
   b84c0:	6863      	ldr	r3, [r4, #4]
   b84c2:	b90b      	cbnz	r3, b84c8 <_ZN5spark10LogManager22destroyFactoryHandlersEv+0x24>
            resetSystemCallbacks();
   b84c4:	f7ff fdc4 	bl	b8050 <_ZN5spark10LogManager20resetSystemCallbacksEv>
        handlerFactory_->destroyHandler(h.handler);
   b84c8:	69e0      	ldr	r0, [r4, #28]
   b84ca:	6929      	ldr	r1, [r5, #16]
   b84cc:	6803      	ldr	r3, [r0, #0]
   b84ce:	68db      	ldr	r3, [r3, #12]
   b84d0:	4798      	blx	r3
        if (h.stream) {
   b84d2:	6969      	ldr	r1, [r5, #20]
   b84d4:	b119      	cbz	r1, b84de <_ZN5spark10LogManager22destroyFactoryHandlersEv+0x3a>
            streamFactory_->destroyStream(h.stream);
   b84d6:	6a20      	ldr	r0, [r4, #32]
   b84d8:	6803      	ldr	r3, [r0, #0]
   b84da:	68db      	ldr	r3, [r3, #12]
   b84dc:	4798      	blx	r3
    for (const FactoryHandler &h: factoryHandlers_) {
   b84de:	3518      	adds	r5, #24
   b84e0:	e7e7      	b.n	b84b2 <_ZN5spark10LogManager22destroyFactoryHandlersEv+0xe>
    destruct(data_, data_ + size_);
   b84e2:	e9d4 5304 	ldrd	r5, r3, [r4, #16]
   b84e6:	2618      	movs	r6, #24
   b84e8:	fb06 5603 	mla	r6, r6, r3, r5
        for (; p != end; ++p) {
   b84ec:	42ae      	cmp	r6, r5
   b84ee:	d004      	beq.n	b84fa <_ZN5spark10LogManager22destroyFactoryHandlersEv+0x56>
struct spark::LogManager::FactoryHandler {
   b84f0:	4628      	mov	r0, r5
   b84f2:	f000 fcdb 	bl	b8eac <_ZN6StringD1Ev>
   b84f6:	3518      	adds	r5, #24
   b84f8:	e7f8      	b.n	b84ec <_ZN5spark10LogManager22destroyFactoryHandlersEv+0x48>
    size_ = 0;
   b84fa:	2300      	movs	r3, #0
   b84fc:	6163      	str	r3, [r4, #20]
}
   b84fe:	bd70      	pop	{r4, r5, r6, pc}

000b8500 <_ZN5spark10LogManagerD1Ev>:
spark::LogManager::~LogManager() {
   b8500:	b573      	push	{r0, r1, r4, r5, r6, lr}
   b8502:	4604      	mov	r4, r0
    resetSystemCallbacks();
   b8504:	f7ff fda4 	bl	b8050 <_ZN5spark10LogManager20resetSystemCallbacksEv>
    LOG_WITH_LOCK(mutex_) {
   b8508:	f104 0324 	add.w	r3, r4, #36	; 0x24
   b850c:	6a60      	ldr	r0, [r4, #36]	; 0x24
      explicit lock_guard(mutex_type& __m) : _M_device(__m)
   b850e:	9301      	str	r3, [sp, #4]
      { _M_device.lock(); }
   b8510:	f7ff fc50 	bl	b7db4 <_ZN14RecursiveMutex4lockEv.isra.0>
         destroyFactoryHandlers();
   b8514:	4620      	mov	r0, r4
   b8516:	f7ff ffc5 	bl	b84a4 <_ZN5spark10LogManager22destroyFactoryHandlersEv>
    LOG_WITH_LOCK(mutex_) {
   b851a:	a801      	add	r0, sp, #4
   b851c:	f7ff fe89 	bl	b8232 <_ZNSt10lock_guardI14RecursiveMutexED1Ev>
        if (handle_) {
   b8520:	6a60      	ldr	r0, [r4, #36]	; 0x24
   b8522:	b108      	cbz	r0, b8528 <_ZN5spark10LogManagerD1Ev+0x28>
            os_mutex_recursive_destroy(handle_);
   b8524:	f7fe fb0c 	bl	b6b40 <os_mutex_recursive_destroy>
    destruct(data_, data_ + size_);
   b8528:	e9d4 5304 	ldrd	r5, r3, [r4, #16]
   b852c:	2618      	movs	r6, #24
   b852e:	fb06 5603 	mla	r6, r6, r3, r5
        for (; p != end; ++p) {
   b8532:	42ae      	cmp	r6, r5
   b8534:	d004      	beq.n	b8540 <_ZN5spark10LogManagerD1Ev+0x40>
struct spark::LogManager::FactoryHandler {
   b8536:	4628      	mov	r0, r5
   b8538:	f000 fcb8 	bl	b8eac <_ZN6StringD1Ev>
   b853c:	3518      	adds	r5, #24
   b853e:	e7f8      	b.n	b8532 <_ZN5spark10LogManagerD1Ev+0x32>
    ::free(ptr);
   b8540:	6920      	ldr	r0, [r4, #16]
   b8542:	f7fe fd41 	bl	b6fc8 <free>
   b8546:	6820      	ldr	r0, [r4, #0]
   b8548:	f7fe fd3e 	bl	b6fc8 <free>
}
   b854c:	4620      	mov	r0, r4
   b854e:	b002      	add	sp, #8
   b8550:	bd70      	pop	{r4, r5, r6, pc}
	...

000b8554 <__tcf_2>:
    static LogManager mgr;
   b8554:	4801      	ldr	r0, [pc, #4]	; (b855c <__tcf_2+0x8>)
   b8556:	f7ff bfd3 	b.w	b8500 <_ZN5spark10LogManagerD1Ev>
   b855a:	bf00      	nop
   b855c:	2003e6b4 	.word	0x2003e6b4

000b8560 <_ZN5spark6VectorINS_6detail9LogFilter4NodeENS_16DefaultAllocatorEE4moveIS3_Li0EEEvPS3_S7_S7_>:
        if (dest > p && dest < end) {
   b8560:	4288      	cmp	r0, r1
    static void move(T* dest, T* p, T* end) {
   b8562:	b5f8      	push	{r3, r4, r5, r6, r7, lr}
   b8564:	4604      	mov	r4, r0
   b8566:	460d      	mov	r5, r1
   b8568:	4616      	mov	r6, r2
        if (dest > p && dest < end) {
   b856a:	d915      	bls.n	b8598 <_ZN5spark6VectorINS_6detail9LogFilter4NodeENS_16DefaultAllocatorEE4moveIS3_Li0EEEvPS3_S7_S7_+0x38>
   b856c:	4290      	cmp	r0, r2
   b856e:	d214      	bcs.n	b859a <_ZN5spark6VectorINS_6detail9LogFilter4NodeENS_16DefaultAllocatorEE4moveIS3_Li0EEEvPS3_S7_S7_+0x3a>
            --end;
   b8570:	f1a2 0614 	sub.w	r6, r2, #20
            dest += end - p - 1;
   b8574:	1a75      	subs	r5, r6, r1
   b8576:	f1a1 0714 	sub.w	r7, r1, #20
   b857a:	442c      	add	r4, r5
            for (; end != p; --end, --dest) {
   b857c:	42b7      	cmp	r7, r6
   b857e:	d01a      	beq.n	b85b6 <_ZN5spark6VectorINS_6detail9LogFilter4NodeENS_16DefaultAllocatorEE4moveIS3_Li0EEEvPS3_S7_S7_+0x56>
                new(dest) T(std::move(*end));
   b8580:	b11c      	cbz	r4, b858a <_ZN5spark6VectorINS_6detail9LogFilter4NodeENS_16DefaultAllocatorEE4moveIS3_Li0EEEvPS3_S7_S7_+0x2a>
   b8582:	4631      	mov	r1, r6
   b8584:	4620      	mov	r0, r4
   b8586:	f7ff fc78 	bl	b7e7a <_ZN5spark6detail9LogFilter4NodeC1EOS2_>
struct spark::detail::LogFilter::Node {
   b858a:	f106 0008 	add.w	r0, r6, #8
   b858e:	f7ff fdf9 	bl	b8184 <_ZN5spark6VectorINS_6detail9LogFilter4NodeENS_16DefaultAllocatorEED1Ev>
            for (; end != p; --end, --dest) {
   b8592:	3e14      	subs	r6, #20
   b8594:	3c14      	subs	r4, #20
   b8596:	e7f1      	b.n	b857c <_ZN5spark6VectorINS_6detail9LogFilter4NodeENS_16DefaultAllocatorEE4moveIS3_Li0EEEvPS3_S7_S7_+0x1c>
        } else if (dest != p) {
   b8598:	d00d      	beq.n	b85b6 <_ZN5spark6VectorINS_6detail9LogFilter4NodeENS_16DefaultAllocatorEE4moveIS3_Li0EEEvPS3_S7_S7_+0x56>
            for (; p != end; ++p, ++dest) {
   b859a:	42b5      	cmp	r5, r6
   b859c:	d00b      	beq.n	b85b6 <_ZN5spark6VectorINS_6detail9LogFilter4NodeENS_16DefaultAllocatorEE4moveIS3_Li0EEEvPS3_S7_S7_+0x56>
                new(dest) T(std::move(*p));
   b859e:	b11c      	cbz	r4, b85a8 <_ZN5spark6VectorINS_6detail9LogFilter4NodeENS_16DefaultAllocatorEE4moveIS3_Li0EEEvPS3_S7_S7_+0x48>
   b85a0:	4629      	mov	r1, r5
   b85a2:	4620      	mov	r0, r4
   b85a4:	f7ff fc69 	bl	b7e7a <_ZN5spark6detail9LogFilter4NodeC1EOS2_>
   b85a8:	f105 0008 	add.w	r0, r5, #8
   b85ac:	f7ff fdea 	bl	b8184 <_ZN5spark6VectorINS_6detail9LogFilter4NodeENS_16DefaultAllocatorEED1Ev>
            for (; p != end; ++p, ++dest) {
   b85b0:	3514      	adds	r5, #20
   b85b2:	3414      	adds	r4, #20
   b85b4:	e7f1      	b.n	b859a <_ZN5spark6VectorINS_6detail9LogFilter4NodeENS_16DefaultAllocatorEE4moveIS3_Li0EEEvPS3_S7_S7_+0x3a>
    }
   b85b6:	bdf8      	pop	{r3, r4, r5, r6, r7, pc}

000b85b8 <_ZN5spark6VectorI6StringNS_16DefaultAllocatorEE4moveIS1_Li0EEEvPS1_S5_S5_>:
        if (dest > p && dest < end) {
   b85b8:	4288      	cmp	r0, r1
    static void move(T* dest, T* p, T* end) {
   b85ba:	b5f8      	push	{r3, r4, r5, r6, r7, lr}
   b85bc:	4604      	mov	r4, r0
   b85be:	460d      	mov	r5, r1
   b85c0:	4616      	mov	r6, r2
        if (dest > p && dest < end) {
   b85c2:	d914      	bls.n	b85ee <_ZN5spark6VectorI6StringNS_16DefaultAllocatorEE4moveIS1_Li0EEEvPS1_S5_S5_+0x36>
   b85c4:	4290      	cmp	r0, r2
   b85c6:	d213      	bcs.n	b85f0 <_ZN5spark6VectorI6StringNS_16DefaultAllocatorEE4moveIS1_Li0EEEvPS1_S5_S5_+0x38>
            --end;
   b85c8:	f1a2 0610 	sub.w	r6, r2, #16
            dest += end - p - 1;
   b85cc:	1a75      	subs	r5, r6, r1
   b85ce:	f1a1 0710 	sub.w	r7, r1, #16
   b85d2:	442c      	add	r4, r5
            for (; end != p; --end, --dest) {
   b85d4:	42b7      	cmp	r7, r6
   b85d6:	d018      	beq.n	b860a <_ZN5spark6VectorI6StringNS_16DefaultAllocatorEE4moveIS1_Li0EEEvPS1_S5_S5_+0x52>
                new(dest) T(std::move(*end));
   b85d8:	b11c      	cbz	r4, b85e2 <_ZN5spark6VectorI6StringNS_16DefaultAllocatorEE4moveIS1_Li0EEEvPS1_S5_S5_+0x2a>
   b85da:	4631      	mov	r1, r6
   b85dc:	4620      	mov	r0, r4
   b85de:	f000 fce2 	bl	b8fa6 <_ZN6StringC1EOS_>
                end->~T();
   b85e2:	4630      	mov	r0, r6
   b85e4:	f000 fc62 	bl	b8eac <_ZN6StringD1Ev>
            for (; end != p; --end, --dest) {
   b85e8:	3e10      	subs	r6, #16
   b85ea:	3c10      	subs	r4, #16
   b85ec:	e7f2      	b.n	b85d4 <_ZN5spark6VectorI6StringNS_16DefaultAllocatorEE4moveIS1_Li0EEEvPS1_S5_S5_+0x1c>
        } else if (dest != p) {
   b85ee:	d00c      	beq.n	b860a <_ZN5spark6VectorI6StringNS_16DefaultAllocatorEE4moveIS1_Li0EEEvPS1_S5_S5_+0x52>
            for (; p != end; ++p, ++dest) {
   b85f0:	42b5      	cmp	r5, r6
   b85f2:	d00a      	beq.n	b860a <_ZN5spark6VectorI6StringNS_16DefaultAllocatorEE4moveIS1_Li0EEEvPS1_S5_S5_+0x52>
                new(dest) T(std::move(*p));
   b85f4:	b11c      	cbz	r4, b85fe <_ZN5spark6VectorI6StringNS_16DefaultAllocatorEE4moveIS1_Li0EEEvPS1_S5_S5_+0x46>
   b85f6:	4629      	mov	r1, r5
   b85f8:	4620      	mov	r0, r4
   b85fa:	f000 fcd4 	bl	b8fa6 <_ZN6StringC1EOS_>
                p->~T();
   b85fe:	4628      	mov	r0, r5
   b8600:	f000 fc54 	bl	b8eac <_ZN6StringD1Ev>
            for (; p != end; ++p, ++dest) {
   b8604:	3510      	adds	r5, #16
   b8606:	3410      	adds	r4, #16
   b8608:	e7f2      	b.n	b85f0 <_ZN5spark6VectorI6StringNS_16DefaultAllocatorEE4moveIS1_Li0EEEvPS1_S5_S5_+0x38>
    }
   b860a:	bdf8      	pop	{r3, r4, r5, r6, r7, pc}

000b860c <_ZN5spark6VectorI6StringNS_16DefaultAllocatorEE7reallocIS1_Li0EEEbi>:
    bool realloc(int n) {
   b860c:	b570      	push	{r4, r5, r6, lr}
        if (n > 0) {
   b860e:	1e0e      	subs	r6, r1, #0
    bool realloc(int n) {
   b8610:	4605      	mov	r5, r0
        if (n > 0) {
   b8612:	dd11      	ble.n	b8638 <_ZN5spark6VectorI6StringNS_16DefaultAllocatorEE7reallocIS1_Li0EEEbi+0x2c>
    return ::malloc(size);
   b8614:	0130      	lsls	r0, r6, #4
   b8616:	f7fe fccf 	bl	b6fb8 <malloc>
            if (!d) {
   b861a:	4604      	mov	r4, r0
   b861c:	b158      	cbz	r0, b8636 <_ZN5spark6VectorI6StringNS_16DefaultAllocatorEE7reallocIS1_Li0EEEbi+0x2a>
            move(d, data_, data_ + size_);
   b861e:	e9d5 1200 	ldrd	r1, r2, [r5]
   b8622:	eb01 1202 	add.w	r2, r1, r2, lsl #4
   b8626:	f7ff ffc7 	bl	b85b8 <_ZN5spark6VectorI6StringNS_16DefaultAllocatorEE4moveIS1_Li0EEEvPS1_S5_S5_>
    ::free(ptr);
   b862a:	6828      	ldr	r0, [r5, #0]
   b862c:	f7fe fccc 	bl	b6fc8 <free>
        data_ = d;
   b8630:	602c      	str	r4, [r5, #0]
        capacity_ = n;
   b8632:	60ae      	str	r6, [r5, #8]
        return true;
   b8634:	2001      	movs	r0, #1
    }
   b8636:	bd70      	pop	{r4, r5, r6, pc}
        T* d = nullptr;
   b8638:	2400      	movs	r4, #0
   b863a:	e7f6      	b.n	b862a <_ZN5spark6VectorI6StringNS_16DefaultAllocatorEE7reallocIS1_Li0EEEbi+0x1e>

000b863c <_ZN5spark6detail9LogFilterC1E8LogLevelNS_6VectorINS_17LogCategoryFilterENS_16DefaultAllocatorEEE>:
spark::detail::LogFilter::LogFilter(LogLevel level, LogCategoryFilters filters) :
   b863c:	e92d 4ff0 	stmdb	sp!, {r4, r5, r6, r7, r8, r9, sl, fp, lr}
   b8640:	4690      	mov	r8, r2
   b8642:	b095      	sub	sp, #84	; 0x54
        capacity_(0) {
   b8644:	2300      	movs	r3, #0
   b8646:	9103      	str	r1, [sp, #12]
    return size_;
   b8648:	f8d8 1004 	ldr.w	r1, [r8, #4]
        capacity_(0) {
   b864c:	930a      	str	r3, [sp, #40]	; 0x28
        level_(LOG_LEVEL_NONE) { // Fallback level that will be used in case of construction errors
   b864e:	2246      	movs	r2, #70	; 0x46
    if (n > capacity_ && !realloc(n)) {
   b8650:	4299      	cmp	r1, r3
        capacity_(0) {
   b8652:	e9c0 3300 	strd	r3, r3, [r0]
   b8656:	e9c0 3302 	strd	r3, r3, [r0, #8]
   b865a:	e9c0 3304 	strd	r3, r3, [r0, #16]
   b865e:	e9cd 3308 	strd	r3, r3, [sp, #32]
spark::detail::LogFilter::LogFilter(LogLevel level, LogCategoryFilters filters) :
   b8662:	4604      	mov	r4, r0
        level_(LOG_LEVEL_NONE) { // Fallback level that will be used in case of construction errors
   b8664:	7602      	strb	r2, [r0, #24]
    if (n > capacity_ && !realloc(n)) {
   b8666:	dc23      	bgt.n	b86b0 <_ZN5spark6detail9LogFilterC1E8LogLevelNS_6VectorINS_17LogCategoryFilterENS_16DefaultAllocatorEEE+0x74>
    return data_ + size_;
   b8668:	e9d8 5700 	ldrd	r5, r7, [r8]
   b866c:	2314      	movs	r3, #20
   b866e:	fb03 5707 	mla	r7, r3, r7, r5
    for (LogCategoryFilter &filter: filters) {
   b8672:	42af      	cmp	r7, r5
   b8674:	d03b      	beq.n	b86ee <_ZN5spark6detail9LogFilterC1E8LogLevelNS_6VectorINS_17LogCategoryFilterENS_16DefaultAllocatorEEE+0xb2>
        cats.append(std::move(filter.cat_));
   b8676:	4629      	mov	r1, r5
   b8678:	a80b      	add	r0, sp, #44	; 0x2c
   b867a:	f000 fc94 	bl	b8fa6 <_ZN6StringC1EOS_>
    return insert(size_, std::move(value));
   b867e:	a90b      	add	r1, sp, #44	; 0x2c
   b8680:	a80f      	add	r0, sp, #60	; 0x3c
   b8682:	9e09      	ldr	r6, [sp, #36]	; 0x24
   b8684:	f000 fc8f 	bl	b8fa6 <_ZN6StringC1EOS_>
    if (size_ + 1 > capacity_ && !realloc(size_ + 1)) {
   b8688:	e9dd 1309 	ldrd	r1, r3, [sp, #36]	; 0x24
   b868c:	4299      	cmp	r1, r3
   b868e:	da1b      	bge.n	b86c8 <_ZN5spark6detail9LogFilterC1E8LogLevelNS_6VectorINS_17LogCategoryFilterENS_16DefaultAllocatorEEE+0x8c>
    T* const p = data_ + i;
   b8690:	9b08      	ldr	r3, [sp, #32]
    move(p + 1, p, data_ + size_);
   b8692:	9a09      	ldr	r2, [sp, #36]	; 0x24
    T* const p = data_ + i;
   b8694:	eb03 1606 	add.w	r6, r3, r6, lsl #4
    move(p + 1, p, data_ + size_);
   b8698:	eb03 1202 	add.w	r2, r3, r2, lsl #4
   b869c:	4631      	mov	r1, r6
   b869e:	f106 0010 	add.w	r0, r6, #16
   b86a2:	f7ff ff89 	bl	b85b8 <_ZN5spark6VectorI6StringNS_16DefaultAllocatorEE4moveIS1_Li0EEEvPS1_S5_S5_>
    new(p) T(std::move(value));
   b86a6:	b9ee      	cbnz	r6, b86e4 <_ZN5spark6detail9LogFilterC1E8LogLevelNS_6VectorINS_17LogCategoryFilterENS_16DefaultAllocatorEEE+0xa8>
    ++size_;
   b86a8:	9b09      	ldr	r3, [sp, #36]	; 0x24
   b86aa:	3301      	adds	r3, #1
   b86ac:	9309      	str	r3, [sp, #36]	; 0x24
    return true;
   b86ae:	e011      	b.n	b86d4 <_ZN5spark6detail9LogFilterC1E8LogLevelNS_6VectorINS_17LogCategoryFilterENS_16DefaultAllocatorEEE+0x98>
    if (n > capacity_ && !realloc(n)) {
   b86b0:	a808      	add	r0, sp, #32
   b86b2:	f7ff ffab 	bl	b860c <_ZN5spark6VectorI6StringNS_16DefaultAllocatorEE7reallocIS1_Li0EEEbi>
   b86b6:	2800      	cmp	r0, #0
   b86b8:	d1d6      	bne.n	b8668 <_ZN5spark6detail9LogFilterC1E8LogLevelNS_6VectorINS_17LogCategoryFilterENS_16DefaultAllocatorEEE+0x2c>
        return;
   b86ba:	a808      	add	r0, sp, #32
   b86bc:	f7fe fd10 	bl	b70e0 <_ZN5spark6VectorI6StringNS_16DefaultAllocatorEED1Ev>
}
   b86c0:	4620      	mov	r0, r4
   b86c2:	b015      	add	sp, #84	; 0x54
   b86c4:	e8bd 8ff0 	ldmia.w	sp!, {r4, r5, r6, r7, r8, r9, sl, fp, pc}
    if (size_ + 1 > capacity_ && !realloc(size_ + 1)) {
   b86c8:	3101      	adds	r1, #1
   b86ca:	a808      	add	r0, sp, #32
   b86cc:	f7ff ff9e 	bl	b860c <_ZN5spark6VectorI6StringNS_16DefaultAllocatorEE7reallocIS1_Li0EEEbi>
   b86d0:	2800      	cmp	r0, #0
   b86d2:	d1dd      	bne.n	b8690 <_ZN5spark6detail9LogFilterC1E8LogLevelNS_6VectorINS_17LogCategoryFilterENS_16DefaultAllocatorEEE+0x54>
    return insert(size_, std::move(value));
   b86d4:	a80f      	add	r0, sp, #60	; 0x3c
   b86d6:	f000 fbe9 	bl	b8eac <_ZN6StringD1Ev>
        cats.append(std::move(filter.cat_));
   b86da:	a80b      	add	r0, sp, #44	; 0x2c
   b86dc:	f000 fbe6 	bl	b8eac <_ZN6StringD1Ev>
    for (LogCategoryFilter &filter: filters) {
   b86e0:	3514      	adds	r5, #20
   b86e2:	e7c6      	b.n	b8672 <_ZN5spark6detail9LogFilterC1E8LogLevelNS_6VectorINS_17LogCategoryFilterENS_16DefaultAllocatorEEE+0x36>
    new(p) T(std::move(value));
   b86e4:	a90f      	add	r1, sp, #60	; 0x3c
   b86e6:	4630      	mov	r0, r6
   b86e8:	f000 fc5d 	bl	b8fa6 <_ZN6StringC1EOS_>
   b86ec:	e7dc      	b.n	b86a8 <_ZN5spark6detail9LogFilterC1E8LogLevelNS_6VectorINS_17LogCategoryFilterENS_16DefaultAllocatorEEE+0x6c>
        capacity_(0) {
   b86ee:	2600      	movs	r6, #0
   b86f0:	e9cd 660b 	strd	r6, r6, [sp, #44]	; 0x2c
   b86f4:	960d      	str	r6, [sp, #52]	; 0x34
    for (int i = 0; i < cats.size(); ++i) {
   b86f6:	f04f 0914 	mov.w	r9, #20
    return data_[i];
   b86fa:	e9dd 2308 	ldrd	r2, r3, [sp, #32]
   b86fe:	429e      	cmp	r6, r3
   b8700:	da7c      	bge.n	b87fc <_ZN5spark6detail9LogFilterC1E8LogLevelNS_6VectorINS_17LogCategoryFilterENS_16DefaultAllocatorEEE+0x1c0>
    char operator [] (unsigned int index) const;
    char& operator [] (unsigned int index);
    void getBytes(unsigned char *buf, unsigned int bufsize, unsigned int index=0) const;
    void toCharArray(char *buf, unsigned int bufsize, unsigned int index=0) const
        {getBytes((unsigned char *)buf, bufsize, index);}
    const char * c_str() const { return buffer; }
   b8702:	0133      	lsls	r3, r6, #4
   b8704:	58d3      	ldr	r3, [r2, r3]
        const char *category = cats.at(i).c_str();
   b8706:	9306      	str	r3, [sp, #24]
        if (!category) {
   b8708:	b90b      	cbnz	r3, b870e <_ZN5spark6detail9LogFilterC1E8LogLevelNS_6VectorINS_17LogCategoryFilterENS_16DefaultAllocatorEEE+0xd2>
    for (int i = 0; i < cats.size(); ++i) {
   b870a:	3601      	adds	r6, #1
   b870c:	e7f5      	b.n	b86fa <_ZN5spark6detail9LogFilterC1E8LogLevelNS_6VectorINS_17LogCategoryFilterENS_16DefaultAllocatorEEE+0xbe>
        size_t size = 0; // Name length
   b870e:	2300      	movs	r3, #0
   b8710:	9307      	str	r3, [sp, #28]
   b8712:	fb09 f306 	mul.w	r3, r9, r6
   b8716:	9302      	str	r3, [sp, #8]
        Vector<Node> *pNodes = &nodes; // Root nodes
   b8718:	ad0b      	add	r5, sp, #44	; 0x2c
        while ((name = nextSubcategoryName(category, size))) {
   b871a:	a907      	add	r1, sp, #28
   b871c:	a806      	add	r0, sp, #24
   b871e:	f7ff fb22 	bl	b7d66 <_ZN12_GLOBAL__N_119nextSubcategoryNameERPKcRj>
   b8722:	4682      	mov	sl, r0
   b8724:	2800      	cmp	r0, #0
   b8726:	d0f0      	beq.n	b870a <_ZN5spark6detail9LogFilterC1E8LogLevelNS_6VectorINS_17LogCategoryFilterENS_16DefaultAllocatorEEE+0xce>
            bool found = false;
   b8728:	f04f 0300 	mov.w	r3, #0
   b872c:	f88d 3017 	strb.w	r3, [sp, #23]
            const int index = nodeIndex(*pNodes, name, size, found);
   b8730:	4601      	mov	r1, r0
   b8732:	9a07      	ldr	r2, [sp, #28]
   b8734:	f10d 0317 	add.w	r3, sp, #23
   b8738:	4628      	mov	r0, r5
   b873a:	f7ff fbb1 	bl	b7ea0 <_ZN5spark6detail9LogFilter9nodeIndexERKNS_6VectorINS1_4NodeENS_16DefaultAllocatorEEEPKcjRb>
            if (!found && !pNodes->insert(index, Node(name, size))) { // Add node
   b873e:	f89d 7017 	ldrb.w	r7, [sp, #23]
            const int index = nodeIndex(*pNodes, name, size, found);
   b8742:	9001      	str	r0, [sp, #4]
            if (!found && !pNodes->insert(index, Node(name, size))) { // Add node
   b8744:	2f00      	cmp	r7, #0
   b8746:	d14a      	bne.n	b87de <_ZN5spark6detail9LogFilterC1E8LogLevelNS_6VectorINS_17LogCategoryFilterENS_16DefaultAllocatorEEE+0x1a2>
   b8748:	f8bd 301c 	ldrh.w	r3, [sp, #28]
            level(-1) {
   b874c:	f8ad 3040 	strh.w	r3, [sp, #64]	; 0x40
        capacity_(0) {
   b8750:	e9cd 7711 	strd	r7, r7, [sp, #68]	; 0x44
   b8754:	f64f 73ff 	movw	r3, #65535	; 0xffff
   b8758:	f8cd a03c 	str.w	sl, [sp, #60]	; 0x3c
   b875c:	f8ad 3042 	strh.w	r3, [sp, #66]	; 0x42
   b8760:	9713      	str	r7, [sp, #76]	; 0x4c
    if (size_ + 1 > capacity_ && !realloc(size_ + 1)) {
   b8762:	e9d5 3201 	ldrd	r3, r2, [r5, #4]
   b8766:	4293      	cmp	r3, r2
   b8768:	db17      	blt.n	b879a <_ZN5spark6detail9LogFilterC1E8LogLevelNS_6VectorINS_17LogCategoryFilterENS_16DefaultAllocatorEEE+0x15e>
   b876a:	f103 0a01 	add.w	sl, r3, #1
        if (n > 0) {
   b876e:	f1ba 0f00 	cmp.w	sl, #0
   b8772:	dd30      	ble.n	b87d6 <_ZN5spark6detail9LogFilterC1E8LogLevelNS_6VectorINS_17LogCategoryFilterENS_16DefaultAllocatorEEE+0x19a>
    return ::malloc(size);
   b8774:	fb09 f00a 	mul.w	r0, r9, sl
   b8778:	f7fe fc1e 	bl	b6fb8 <malloc>
            if (!d) {
   b877c:	4683      	mov	fp, r0
   b877e:	b360      	cbz	r0, b87da <_ZN5spark6detail9LogFilterC1E8LogLevelNS_6VectorINS_17LogCategoryFilterENS_16DefaultAllocatorEEE+0x19e>
            move(d, data_, data_ + size_);
   b8780:	e9d5 1200 	ldrd	r1, r2, [r5]
   b8784:	fb09 1202 	mla	r2, r9, r2, r1
   b8788:	f7ff feea 	bl	b8560 <_ZN5spark6VectorINS_6detail9LogFilter4NodeENS_16DefaultAllocatorEE4moveIS3_Li0EEEvPS3_S7_S7_>
    ::free(ptr);
   b878c:	6828      	ldr	r0, [r5, #0]
   b878e:	f7fe fc1b 	bl	b6fc8 <free>
        data_ = d;
   b8792:	f8c5 b000 	str.w	fp, [r5]
        capacity_ = n;
   b8796:	f8c5 a008 	str.w	sl, [r5, #8]
    T* const p = data_ + i;
   b879a:	682b      	ldr	r3, [r5, #0]
   b879c:	9a01      	ldr	r2, [sp, #4]
   b879e:	fb09 3a02 	mla	sl, r9, r2, r3
    move(p + 1, p, data_ + size_);
   b87a2:	686a      	ldr	r2, [r5, #4]
   b87a4:	4651      	mov	r1, sl
   b87a6:	fb09 3202 	mla	r2, r9, r2, r3
   b87aa:	f10a 0014 	add.w	r0, sl, #20
   b87ae:	f7ff fed7 	bl	b8560 <_ZN5spark6VectorINS_6detail9LogFilter4NodeENS_16DefaultAllocatorEE4moveIS3_Li0EEEvPS3_S7_S7_>
    new(p) T(std::move(value));
   b87b2:	f1ba 0f00 	cmp.w	sl, #0
   b87b6:	d003      	beq.n	b87c0 <_ZN5spark6detail9LogFilterC1E8LogLevelNS_6VectorINS_17LogCategoryFilterENS_16DefaultAllocatorEEE+0x184>
   b87b8:	a90f      	add	r1, sp, #60	; 0x3c
   b87ba:	4650      	mov	r0, sl
   b87bc:	f7ff fb5d 	bl	b7e7a <_ZN5spark6detail9LogFilter4NodeC1EOS2_>
    ++size_;
   b87c0:	686b      	ldr	r3, [r5, #4]
   b87c2:	3301      	adds	r3, #1
   b87c4:	606b      	str	r3, [r5, #4]
struct spark::detail::LogFilter::Node {
   b87c6:	a811      	add	r0, sp, #68	; 0x44
   b87c8:	f7ff fcdc 	bl	b8184 <_ZN5spark6VectorINS_6detail9LogFilter4NodeENS_16DefaultAllocatorEED1Ev>
            if (!found && !pNodes->insert(index, Node(name, size))) { // Add node
   b87cc:	b13f      	cbz	r7, b87de <_ZN5spark6detail9LogFilterC1E8LogLevelNS_6VectorINS_17LogCategoryFilterENS_16DefaultAllocatorEEE+0x1a2>
    Vector<Node> nodes;
   b87ce:	a80b      	add	r0, sp, #44	; 0x2c
   b87d0:	f7ff fcd8 	bl	b8184 <_ZN5spark6VectorINS_6detail9LogFilter4NodeENS_16DefaultAllocatorEED1Ev>
   b87d4:	e771      	b.n	b86ba <_ZN5spark6detail9LogFilterC1E8LogLevelNS_6VectorINS_17LogCategoryFilterENS_16DefaultAllocatorEEE+0x7e>
        T* d = nullptr;
   b87d6:	46bb      	mov	fp, r7
   b87d8:	e7d8      	b.n	b878c <_ZN5spark6detail9LogFilterC1E8LogLevelNS_6VectorINS_17LogCategoryFilterENS_16DefaultAllocatorEEE+0x150>
            if (!found && !pNodes->insert(index, Node(name, size))) { // Add node
   b87da:	2701      	movs	r7, #1
   b87dc:	e7f3      	b.n	b87c6 <_ZN5spark6detail9LogFilterC1E8LogLevelNS_6VectorINS_17LogCategoryFilterENS_16DefaultAllocatorEEE+0x18a>
    return data_[i];
   b87de:	9b01      	ldr	r3, [sp, #4]
   b87e0:	682d      	ldr	r5, [r5, #0]
   b87e2:	fb09 5503 	mla	r5, r9, r3, r5
            if (!*category) { // Check if it's last subcategory
   b87e6:	9b06      	ldr	r3, [sp, #24]
   b87e8:	781b      	ldrb	r3, [r3, #0]
   b87ea:	b92b      	cbnz	r3, b87f8 <_ZN5spark6detail9LogFilterC1E8LogLevelNS_6VectorINS_17LogCategoryFilterENS_16DefaultAllocatorEEE+0x1bc>
                node.level = filters.at(i).level_;
   b87ec:	f8d8 3000 	ldr.w	r3, [r8]
   b87f0:	9a02      	ldr	r2, [sp, #8]
   b87f2:	4413      	add	r3, r2
   b87f4:	7c1b      	ldrb	r3, [r3, #16]
   b87f6:	80eb      	strh	r3, [r5, #6]
            pNodes = &node.nodes;
   b87f8:	3508      	adds	r5, #8
        while ((name = nextSubcategoryName(category, size))) {
   b87fa:	e78e      	b.n	b871a <_ZN5spark6detail9LogFilterC1E8LogLevelNS_6VectorINS_17LogCategoryFilterENS_16DefaultAllocatorEEE+0xde>
      _Tp __tmp = _GLIBCXX_MOVE(__a);
   b87fc:	6821      	ldr	r1, [r4, #0]
      __a = _GLIBCXX_MOVE(__b);
   b87fe:	6022      	str	r2, [r4, #0]
      _Tp __tmp = _GLIBCXX_MOVE(__a);
   b8800:	6862      	ldr	r2, [r4, #4]
      __a = _GLIBCXX_MOVE(__b);
   b8802:	6063      	str	r3, [r4, #4]
      _Tp __tmp = _GLIBCXX_MOVE(__a);
   b8804:	68a3      	ldr	r3, [r4, #8]
      __b = _GLIBCXX_MOVE(__tmp);
   b8806:	9209      	str	r2, [sp, #36]	; 0x24
      __a = _GLIBCXX_MOVE(__b);
   b8808:	9a0a      	ldr	r2, [sp, #40]	; 0x28
      __b = _GLIBCXX_MOVE(__tmp);
   b880a:	930a      	str	r3, [sp, #40]	; 0x28
      _Tp __tmp = _GLIBCXX_MOVE(__a);
   b880c:	68e3      	ldr	r3, [r4, #12]
      __a = _GLIBCXX_MOVE(__b);
   b880e:	60a2      	str	r2, [r4, #8]
   b8810:	9a0b      	ldr	r2, [sp, #44]	; 0x2c
      __b = _GLIBCXX_MOVE(__tmp);
   b8812:	930b      	str	r3, [sp, #44]	; 0x2c
      _Tp __tmp = _GLIBCXX_MOVE(__a);
   b8814:	6923      	ldr	r3, [r4, #16]
      __a = _GLIBCXX_MOVE(__b);
   b8816:	60e2      	str	r2, [r4, #12]
   b8818:	9a0c      	ldr	r2, [sp, #48]	; 0x30
      __b = _GLIBCXX_MOVE(__tmp);
   b881a:	930c      	str	r3, [sp, #48]	; 0x30
      _Tp __tmp = _GLIBCXX_MOVE(__a);
   b881c:	6963      	ldr	r3, [r4, #20]
      __a = _GLIBCXX_MOVE(__b);
   b881e:	6122      	str	r2, [r4, #16]
   b8820:	9a0d      	ldr	r2, [sp, #52]	; 0x34
      __b = _GLIBCXX_MOVE(__tmp);
   b8822:	930d      	str	r3, [sp, #52]	; 0x34
    level_ = level;
   b8824:	9b03      	ldr	r3, [sp, #12]
   b8826:	9108      	str	r1, [sp, #32]
      __a = _GLIBCXX_MOVE(__b);
   b8828:	6162      	str	r2, [r4, #20]
   b882a:	7623      	strb	r3, [r4, #24]
   b882c:	e7cf      	b.n	b87ce <_ZN5spark6detail9LogFilterC1E8LogLevelNS_6VectorINS_17LogCategoryFilterENS_16DefaultAllocatorEEE+0x192>
	...

000b8830 <_ZN5spark16StreamLogHandlerC1ER5Print8LogLevelNS_6VectorINS_17LogCategoryFilterENS_16DefaultAllocatorEEE>:
inline spark::StreamLogHandler::StreamLogHandler(Print &stream, LogLevel level, LogCategoryFilters filters) :
   b8830:	b5f0      	push	{r4, r5, r6, r7, lr}
   b8832:	4604      	mov	r4, r0
   b8834:	b087      	sub	sp, #28
   b8836:	460d      	mov	r5, r1
        filter_(level, filters) {
   b8838:	4626      	mov	r6, r4
        stream_(&stream) {
   b883a:	4619      	mov	r1, r3
   b883c:	4668      	mov	r0, sp
inline spark::StreamLogHandler::StreamLogHandler(Print &stream, LogLevel level, LogCategoryFilters filters) :
   b883e:	4617      	mov	r7, r2
        stream_(&stream) {
   b8840:	f7fb ff95 	bl	b476e <_ZN5spark6VectorINS_17LogCategoryFilterENS_16DefaultAllocatorEEC1ERKS3_>
        filter_(level, filters) {
   b8844:	4b0b      	ldr	r3, [pc, #44]	; (b8874 <_ZN5spark16StreamLogHandlerC1ER5Print8LogLevelNS_6VectorINS_17LogCategoryFilterENS_16DefaultAllocatorEEE+0x44>)
   b8846:	f846 3b04 	str.w	r3, [r6], #4
   b884a:	4669      	mov	r1, sp
   b884c:	a803      	add	r0, sp, #12
   b884e:	f7fb ff8e 	bl	b476e <_ZN5spark6VectorINS_17LogCategoryFilterENS_16DefaultAllocatorEEC1ERKS3_>
   b8852:	aa03      	add	r2, sp, #12
   b8854:	4639      	mov	r1, r7
   b8856:	4630      	mov	r0, r6
   b8858:	f7ff fef0 	bl	b863c <_ZN5spark6detail9LogFilterC1E8LogLevelNS_6VectorINS_17LogCategoryFilterENS_16DefaultAllocatorEEE>
   b885c:	a803      	add	r0, sp, #12
   b885e:	f7fb fe07 	bl	b4470 <_ZN5spark6VectorINS_17LogCategoryFilterENS_16DefaultAllocatorEED1Ev>
        stream_(&stream) {
   b8862:	4668      	mov	r0, sp
   b8864:	f7fb fe04 	bl	b4470 <_ZN5spark6VectorINS_17LogCategoryFilterENS_16DefaultAllocatorEED1Ev>
   b8868:	4b03      	ldr	r3, [pc, #12]	; (b8878 <_ZN5spark16StreamLogHandlerC1ER5Print8LogLevelNS_6VectorINS_17LogCategoryFilterENS_16DefaultAllocatorEEE+0x48>)
   b886a:	6023      	str	r3, [r4, #0]
}
   b886c:	4620      	mov	r0, r4
        stream_(&stream) {
   b886e:	6225      	str	r5, [r4, #32]
}
   b8870:	b007      	add	sp, #28
   b8872:	bdf0      	pop	{r4, r5, r6, r7, pc}
   b8874:	000ba868 	.word	0x000ba868
   b8878:	000bacfc 	.word	0x000bacfc

000b887c <_ZN5spark24DefaultLogHandlerFactory13createHandlerEPKc8LogLevelNS_6VectorINS_17LogCategoryFilterENS_16DefaultAllocatorEEEP5PrintRKNS_9JSONValueE>:
            Print *stream, const JSONValue &params) {
   b887c:	b5f0      	push	{r4, r5, r6, r7, lr}
   b887e:	460f      	mov	r7, r1
   b8880:	b085      	sub	sp, #20
    if (strcmp(type, "JSONStreamLogHandler") == 0) {
   b8882:	491d      	ldr	r1, [pc, #116]	; (b88f8 <_ZN5spark24DefaultLogHandlerFactory13createHandlerEPKc8LogLevelNS_6VectorINS_17LogCategoryFilterENS_16DefaultAllocatorEEEP5PrintRKNS_9JSONValueE+0x7c>)
            Print *stream, const JSONValue &params) {
   b8884:	9c0a      	ldr	r4, [sp, #40]	; 0x28
    if (strcmp(type, "JSONStreamLogHandler") == 0) {
   b8886:	4638      	mov	r0, r7
            Print *stream, const JSONValue &params) {
   b8888:	4616      	mov	r6, r2
   b888a:	461d      	mov	r5, r3
    if (strcmp(type, "JSONStreamLogHandler") == 0) {
   b888c:	f001 f8d3 	bl	b9a36 <strcmp>
   b8890:	b9c0      	cbnz	r0, b88c4 <_ZN5spark24DefaultLogHandlerFactory13createHandlerEPKc8LogLevelNS_6VectorINS_17LogCategoryFilterENS_16DefaultAllocatorEEEP5PrintRKNS_9JSONValueE+0x48>
        if (!stream) {
   b8892:	b1a4      	cbz	r4, b88be <_ZN5spark24DefaultLogHandlerFactory13createHandlerEPKc8LogLevelNS_6VectorINS_17LogCategoryFilterENS_16DefaultAllocatorEEEP5PrintRKNS_9JSONValueE+0x42>
        return new(std::nothrow) JSONStreamLogHandler(*stream, level, std::move(filters));
   b8894:	4629      	mov	r1, r5
   b8896:	a801      	add	r0, sp, #4
   b8898:	f7ff fcbc 	bl	b8214 <_ZN5spark6VectorINS_17LogCategoryFilterENS_16DefaultAllocatorEEC1EOS3_>
   b889c:	4917      	ldr	r1, [pc, #92]	; (b88fc <_ZN5spark24DefaultLogHandlerFactory13createHandlerEPKc8LogLevelNS_6VectorINS_17LogCategoryFilterENS_16DefaultAllocatorEEEP5PrintRKNS_9JSONValueE+0x80>)
   b889e:	2024      	movs	r0, #36	; 0x24
   b88a0:	f000 fe44 	bl	b952c <_ZnwjRKSt9nothrow_t>
   b88a4:	4605      	mov	r5, r0
   b88a6:	b130      	cbz	r0, b88b6 <_ZN5spark24DefaultLogHandlerFactory13createHandlerEPKc8LogLevelNS_6VectorINS_17LogCategoryFilterENS_16DefaultAllocatorEEEP5PrintRKNS_9JSONValueE+0x3a>
    using StreamLogHandler::StreamLogHandler;
   b88a8:	ab01      	add	r3, sp, #4
   b88aa:	4632      	mov	r2, r6
   b88ac:	4621      	mov	r1, r4
   b88ae:	f7ff ffbf 	bl	b8830 <_ZN5spark16StreamLogHandlerC1ER5Print8LogLevelNS_6VectorINS_17LogCategoryFilterENS_16DefaultAllocatorEEE>
   b88b2:	4b13      	ldr	r3, [pc, #76]	; (b8900 <_ZN5spark24DefaultLogHandlerFactory13createHandlerEPKc8LogLevelNS_6VectorINS_17LogCategoryFilterENS_16DefaultAllocatorEEEP5PrintRKNS_9JSONValueE+0x84>)
   b88b4:	602b      	str	r3, [r5, #0]
        return new(std::nothrow) StreamLogHandler(*stream, level, std::move(filters));
   b88b6:	a801      	add	r0, sp, #4
   b88b8:	f7fb fdda 	bl	b4470 <_ZN5spark6VectorINS_17LogCategoryFilterENS_16DefaultAllocatorEED1Ev>
   b88bc:	462c      	mov	r4, r5
}
   b88be:	4620      	mov	r0, r4
   b88c0:	b005      	add	sp, #20
   b88c2:	bdf0      	pop	{r4, r5, r6, r7, pc}
    } else if (strcmp(type, "StreamLogHandler") == 0) {
   b88c4:	490f      	ldr	r1, [pc, #60]	; (b8904 <_ZN5spark24DefaultLogHandlerFactory13createHandlerEPKc8LogLevelNS_6VectorINS_17LogCategoryFilterENS_16DefaultAllocatorEEEP5PrintRKNS_9JSONValueE+0x88>)
   b88c6:	4638      	mov	r0, r7
   b88c8:	f001 f8b5 	bl	b9a36 <strcmp>
   b88cc:	b990      	cbnz	r0, b88f4 <_ZN5spark24DefaultLogHandlerFactory13createHandlerEPKc8LogLevelNS_6VectorINS_17LogCategoryFilterENS_16DefaultAllocatorEEEP5PrintRKNS_9JSONValueE+0x78>
        if (!stream) {
   b88ce:	2c00      	cmp	r4, #0
   b88d0:	d0f5      	beq.n	b88be <_ZN5spark24DefaultLogHandlerFactory13createHandlerEPKc8LogLevelNS_6VectorINS_17LogCategoryFilterENS_16DefaultAllocatorEEEP5PrintRKNS_9JSONValueE+0x42>
        return new(std::nothrow) StreamLogHandler(*stream, level, std::move(filters));
   b88d2:	4629      	mov	r1, r5
   b88d4:	a801      	add	r0, sp, #4
   b88d6:	f7ff fc9d 	bl	b8214 <_ZN5spark6VectorINS_17LogCategoryFilterENS_16DefaultAllocatorEEC1EOS3_>
   b88da:	4908      	ldr	r1, [pc, #32]	; (b88fc <_ZN5spark24DefaultLogHandlerFactory13createHandlerEPKc8LogLevelNS_6VectorINS_17LogCategoryFilterENS_16DefaultAllocatorEEEP5PrintRKNS_9JSONValueE+0x80>)
   b88dc:	2024      	movs	r0, #36	; 0x24
   b88de:	f000 fe25 	bl	b952c <_ZnwjRKSt9nothrow_t>
   b88e2:	4605      	mov	r5, r0
   b88e4:	2800      	cmp	r0, #0
   b88e6:	d0e6      	beq.n	b88b6 <_ZN5spark24DefaultLogHandlerFactory13createHandlerEPKc8LogLevelNS_6VectorINS_17LogCategoryFilterENS_16DefaultAllocatorEEEP5PrintRKNS_9JSONValueE+0x3a>
   b88e8:	ab01      	add	r3, sp, #4
   b88ea:	4632      	mov	r2, r6
   b88ec:	4621      	mov	r1, r4
   b88ee:	f7ff ff9f 	bl	b8830 <_ZN5spark16StreamLogHandlerC1ER5Print8LogLevelNS_6VectorINS_17LogCategoryFilterENS_16DefaultAllocatorEEE>
   b88f2:	e7e0      	b.n	b88b6 <_ZN5spark24DefaultLogHandlerFactory13createHandlerEPKc8LogLevelNS_6VectorINS_17LogCategoryFilterENS_16DefaultAllocatorEEEP5PrintRKNS_9JSONValueE+0x3a>
            return nullptr; // Output stream is not specified
   b88f4:	2400      	movs	r4, #0
   b88f6:	e7e2      	b.n	b88be <_ZN5spark24DefaultLogHandlerFactory13createHandlerEPKc8LogLevelNS_6VectorINS_17LogCategoryFilterENS_16DefaultAllocatorEEEP5PrintRKNS_9JSONValueE+0x42>
   b88f8:	000bac81 	.word	0x000bac81
   b88fc:	000bae0c 	.word	0x000bae0c
   b8900:	000bad14 	.word	0x000bad14
   b8904:	000bac85 	.word	0x000bac85

000b8908 <_GLOBAL__sub_I__ZN5spark3LogE>:
        name_(name) {
   b8908:	4b01      	ldr	r3, [pc, #4]	; (b8910 <_GLOBAL__sub_I__ZN5spark3LogE+0x8>)
   b890a:	4a02      	ldr	r2, [pc, #8]	; (b8914 <_GLOBAL__sub_I__ZN5spark3LogE+0xc>)
   b890c:	601a      	str	r2, [r3, #0]
#if Wiring_LogConfig

// spark::
void spark::logProcessControlRequest(ctrl_request* req) {
    JSONRequestHandler::process(req);
}
   b890e:	4770      	bx	lr
   b8910:	2003e6b0 	.word	0x2003e6b0
   b8914:	000bac96 	.word	0x000bac96

000b8918 <_ZN5spark16StreamLogHandler10logMessageEPKc8LogLevelS2_RK13LogAttributes>:
void spark::StreamLogHandler::logMessage(const char *msg, LogLevel level, const char *category, const LogAttributes &attr) {
   b8918:	e92d 47f0 	stmdb	sp!, {r4, r5, r6, r7, r8, r9, sl, lr}
   b891c:	9d08      	ldr	r5, [sp, #32]
    if (stream_ == &Serial && Network.listening()) {
   b891e:	f8d0 9020 	ldr.w	r9, [r0, #32]
void spark::StreamLogHandler::logMessage(const char *msg, LogLevel level, const char *category, const LogAttributes &attr) {
   b8922:	4604      	mov	r4, r0
   b8924:	460e      	mov	r6, r1
   b8926:	4617      	mov	r7, r2
   b8928:	4698      	mov	r8, r3
    if (stream_ == &Serial && Network.listening()) {
   b892a:	f000 fcbd 	bl	b92a8 <_Z16_fetch_usbserialv>
   b892e:	4581      	cmp	r9, r0
   b8930:	d04c      	beq.n	b89cc <_ZN5spark16StreamLogHandler10logMessageEPKc8LogLevelS2_RK13LogAttributes+0xb4>
    if (attr.has_time) {
   b8932:	792b      	ldrb	r3, [r5, #4]
   b8934:	0719      	lsls	r1, r3, #28
   b8936:	d504      	bpl.n	b8942 <_ZN5spark16StreamLogHandler10logMessageEPKc8LogLevelS2_RK13LogAttributes+0x2a>
        printf("%010u ", (unsigned)attr.time);
   b8938:	696a      	ldr	r2, [r5, #20]
   b893a:	4954      	ldr	r1, [pc, #336]	; (b8a8c <_ZN5spark16StreamLogHandler10logMessageEPKc8LogLevelS2_RK13LogAttributes+0x174>)
   b893c:	4620      	mov	r0, r4
   b893e:	f7ff fa8d 	bl	b7e5c <_ZN5spark16StreamLogHandler6printfEPKcz>
    if (category) {
   b8942:	f1b8 0f00 	cmp.w	r8, #0
   b8946:	d00d      	beq.n	b8964 <_ZN5spark16StreamLogHandler10logMessageEPKc8LogLevelS2_RK13LogAttributes+0x4c>
        write('[');
   b8948:	215b      	movs	r1, #91	; 0x5b
   b894a:	4620      	mov	r0, r4
   b894c:	f7ff fa7a 	bl	b7e44 <_ZN5spark16StreamLogHandler5writeEc>
        write(category);
   b8950:	4641      	mov	r1, r8
   b8952:	4620      	mov	r0, r4
   b8954:	f7ff fa67 	bl	b7e26 <_ZN5spark16StreamLogHandler5writeEPKc>
        write("] ", 2);
   b8958:	6823      	ldr	r3, [r4, #0]
   b895a:	494d      	ldr	r1, [pc, #308]	; (b8a90 <_ZN5spark16StreamLogHandler10logMessageEPKc8LogLevelS2_RK13LogAttributes+0x178>)
   b895c:	68db      	ldr	r3, [r3, #12]
   b895e:	2202      	movs	r2, #2
   b8960:	4620      	mov	r0, r4
   b8962:	4798      	blx	r3
    if (attr.has_file) {
   b8964:	792b      	ldrb	r3, [r5, #4]
   b8966:	07da      	lsls	r2, r3, #31
   b8968:	d523      	bpl.n	b89b2 <_ZN5spark16StreamLogHandler10logMessageEPKc8LogLevelS2_RK13LogAttributes+0x9a>
        s = extractFileName(attr.file); // Strip directory path
   b896a:	f8d5 8008 	ldr.w	r8, [r5, #8]
    const char *s1 = strrchr(s, '/');
   b896e:	212f      	movs	r1, #47	; 0x2f
   b8970:	4640      	mov	r0, r8
   b8972:	f001 f8ac 	bl	b9ace <strrchr>
    if (s1) {
   b8976:	b108      	cbz	r0, b897c <_ZN5spark16StreamLogHandler10logMessageEPKc8LogLevelS2_RK13LogAttributes+0x64>
        return s1 + 1;
   b8978:	f100 0801 	add.w	r8, r0, #1
        write(s); // File name
   b897c:	4641      	mov	r1, r8
   b897e:	4620      	mov	r0, r4
   b8980:	f7ff fa51 	bl	b7e26 <_ZN5spark16StreamLogHandler5writeEPKc>
        if (attr.has_line) {
   b8984:	792b      	ldrb	r3, [r5, #4]
   b8986:	079b      	lsls	r3, r3, #30
   b8988:	d508      	bpl.n	b899c <_ZN5spark16StreamLogHandler10logMessageEPKc8LogLevelS2_RK13LogAttributes+0x84>
            write(':');
   b898a:	213a      	movs	r1, #58	; 0x3a
   b898c:	4620      	mov	r0, r4
   b898e:	f7ff fa59 	bl	b7e44 <_ZN5spark16StreamLogHandler5writeEc>
            printf("%d", (int)attr.line); // Line number
   b8992:	68ea      	ldr	r2, [r5, #12]
   b8994:	493f      	ldr	r1, [pc, #252]	; (b8a94 <_ZN5spark16StreamLogHandler10logMessageEPKc8LogLevelS2_RK13LogAttributes+0x17c>)
   b8996:	4620      	mov	r0, r4
   b8998:	f7ff fa60 	bl	b7e5c <_ZN5spark16StreamLogHandler6printfEPKcz>
        if (attr.has_function) {
   b899c:	792a      	ldrb	r2, [r5, #4]
            write(", ", 2);
   b899e:	6823      	ldr	r3, [r4, #0]
        if (attr.has_function) {
   b89a0:	f012 0f04 	tst.w	r2, #4
            write(", ", 2);
   b89a4:	68db      	ldr	r3, [r3, #12]
   b89a6:	bf14      	ite	ne
   b89a8:	493b      	ldrne	r1, [pc, #236]	; (b8a98 <_ZN5spark16StreamLogHandler10logMessageEPKc8LogLevelS2_RK13LogAttributes+0x180>)
            write(": ", 2);
   b89aa:	493c      	ldreq	r1, [pc, #240]	; (b8a9c <_ZN5spark16StreamLogHandler10logMessageEPKc8LogLevelS2_RK13LogAttributes+0x184>)
            write(", ", 2);
   b89ac:	2202      	movs	r2, #2
            write(": ", 2);
   b89ae:	4620      	mov	r0, r4
   b89b0:	4798      	blx	r3
    if (attr.has_function) {
   b89b2:	792b      	ldrb	r3, [r5, #4]
   b89b4:	0758      	lsls	r0, r3, #29
   b89b6:	d51d      	bpl.n	b89f4 <_ZN5spark16StreamLogHandler10logMessageEPKc8LogLevelS2_RK13LogAttributes+0xdc>
        s = extractFuncName(attr.function, &n); // Strip argument and return types
   b89b8:	6929      	ldr	r1, [r5, #16]
const char* extractFuncName(const char *s, size_t *size) {
   b89ba:	460b      	mov	r3, r1
   b89bc:	461a      	mov	r2, r3
    for (; *s; ++s) {
   b89be:	f813 0b01 	ldrb.w	r0, [r3], #1
   b89c2:	b160      	cbz	r0, b89de <_ZN5spark16StreamLogHandler10logMessageEPKc8LogLevelS2_RK13LogAttributes+0xc6>
        if (*s == ' ') {
   b89c4:	2820      	cmp	r0, #32
   b89c6:	d108      	bne.n	b89da <_ZN5spark16StreamLogHandler10logMessageEPKc8LogLevelS2_RK13LogAttributes+0xc2>
            s1 = s + 1; // Skip return type
   b89c8:	4619      	mov	r1, r3
   b89ca:	e7f7      	b.n	b89bc <_ZN5spark16StreamLogHandler10logMessageEPKc8LogLevelS2_RK13LogAttributes+0xa4>
    if (stream_ == &Serial && Network.listening()) {
   b89cc:	4834      	ldr	r0, [pc, #208]	; (b8aa0 <_ZN5spark16StreamLogHandler10logMessageEPKc8LogLevelS2_RK13LogAttributes+0x188>)
   b89ce:	f000 f966 	bl	b8c9e <_ZN5spark12NetworkClass9listeningEv>
   b89d2:	2800      	cmp	r0, #0
   b89d4:	d0ad      	beq.n	b8932 <_ZN5spark16StreamLogHandler10logMessageEPKc8LogLevelS2_RK13LogAttributes+0x1a>
}
   b89d6:	e8bd 87f0 	ldmia.w	sp!, {r4, r5, r6, r7, r8, r9, sl, pc}
        } else if (*s == '(') {
   b89da:	2828      	cmp	r0, #40	; 0x28
   b89dc:	d1ee      	bne.n	b89bc <_ZN5spark16StreamLogHandler10logMessageEPKc8LogLevelS2_RK13LogAttributes+0xa4>
        write(s, n);
   b89de:	6823      	ldr	r3, [r4, #0]
   b89e0:	1a52      	subs	r2, r2, r1
   b89e2:	68db      	ldr	r3, [r3, #12]
   b89e4:	4620      	mov	r0, r4
   b89e6:	4798      	blx	r3
        write("(): ", 4);
   b89e8:	6823      	ldr	r3, [r4, #0]
   b89ea:	492e      	ldr	r1, [pc, #184]	; (b8aa4 <_ZN5spark16StreamLogHandler10logMessageEPKc8LogLevelS2_RK13LogAttributes+0x18c>)
   b89ec:	68db      	ldr	r3, [r3, #12]
   b89ee:	2204      	movs	r2, #4
   b89f0:	4620      	mov	r0, r4
   b89f2:	4798      	blx	r3
    return log_level_name(level, nullptr);
   b89f4:	2100      	movs	r1, #0
   b89f6:	4638      	mov	r0, r7
   b89f8:	f7fe fa02 	bl	b6e00 <log_level_name>
   b89fc:	4601      	mov	r1, r0
    write(s);
   b89fe:	4620      	mov	r0, r4
   b8a00:	f7ff fa11 	bl	b7e26 <_ZN5spark16StreamLogHandler5writeEPKc>
    write(": ", 2);
   b8a04:	6823      	ldr	r3, [r4, #0]
   b8a06:	4925      	ldr	r1, [pc, #148]	; (b8a9c <_ZN5spark16StreamLogHandler10logMessageEPKc8LogLevelS2_RK13LogAttributes+0x184>)
   b8a08:	68db      	ldr	r3, [r3, #12]
   b8a0a:	2202      	movs	r2, #2
   b8a0c:	4620      	mov	r0, r4
   b8a0e:	4798      	blx	r3
    if (msg) {
   b8a10:	b11e      	cbz	r6, b8a1a <_ZN5spark16StreamLogHandler10logMessageEPKc8LogLevelS2_RK13LogAttributes+0x102>
        write(msg);
   b8a12:	4631      	mov	r1, r6
   b8a14:	4620      	mov	r0, r4
   b8a16:	f7ff fa06 	bl	b7e26 <_ZN5spark16StreamLogHandler5writeEPKc>
    if (attr.has_code || attr.has_details) {
   b8a1a:	792b      	ldrb	r3, [r5, #4]
   b8a1c:	f013 0f30 	tst.w	r3, #48	; 0x30
   b8a20:	d02c      	beq.n	b8a7c <_ZN5spark16StreamLogHandler10logMessageEPKc8LogLevelS2_RK13LogAttributes+0x164>
        write(" [", 2);
   b8a22:	6823      	ldr	r3, [r4, #0]
   b8a24:	4920      	ldr	r1, [pc, #128]	; (b8aa8 <_ZN5spark16StreamLogHandler10logMessageEPKc8LogLevelS2_RK13LogAttributes+0x190>)
   b8a26:	68db      	ldr	r3, [r3, #12]
   b8a28:	2202      	movs	r2, #2
   b8a2a:	4620      	mov	r0, r4
   b8a2c:	4798      	blx	r3
        if (attr.has_code) {
   b8a2e:	792b      	ldrb	r3, [r5, #4]
   b8a30:	06d9      	lsls	r1, r3, #27
   b8a32:	d50a      	bpl.n	b8a4a <_ZN5spark16StreamLogHandler10logMessageEPKc8LogLevelS2_RK13LogAttributes+0x132>
            write("code = ", 7);
   b8a34:	6823      	ldr	r3, [r4, #0]
   b8a36:	491d      	ldr	r1, [pc, #116]	; (b8aac <_ZN5spark16StreamLogHandler10logMessageEPKc8LogLevelS2_RK13LogAttributes+0x194>)
   b8a38:	68db      	ldr	r3, [r3, #12]
   b8a3a:	2207      	movs	r2, #7
   b8a3c:	4620      	mov	r0, r4
   b8a3e:	4798      	blx	r3
            printf("%" PRIiPTR, (intptr_t)attr.code);
   b8a40:	69aa      	ldr	r2, [r5, #24]
   b8a42:	491b      	ldr	r1, [pc, #108]	; (b8ab0 <_ZN5spark16StreamLogHandler10logMessageEPKc8LogLevelS2_RK13LogAttributes+0x198>)
   b8a44:	4620      	mov	r0, r4
   b8a46:	f7ff fa09 	bl	b7e5c <_ZN5spark16StreamLogHandler6printfEPKcz>
        if (attr.has_details) {
   b8a4a:	792b      	ldrb	r3, [r5, #4]
   b8a4c:	069a      	lsls	r2, r3, #26
   b8a4e:	d511      	bpl.n	b8a74 <_ZN5spark16StreamLogHandler10logMessageEPKc8LogLevelS2_RK13LogAttributes+0x15c>
            if (attr.has_code) {
   b8a50:	06db      	lsls	r3, r3, #27
   b8a52:	d505      	bpl.n	b8a60 <_ZN5spark16StreamLogHandler10logMessageEPKc8LogLevelS2_RK13LogAttributes+0x148>
                write(", ", 2);
   b8a54:	6823      	ldr	r3, [r4, #0]
   b8a56:	4910      	ldr	r1, [pc, #64]	; (b8a98 <_ZN5spark16StreamLogHandler10logMessageEPKc8LogLevelS2_RK13LogAttributes+0x180>)
   b8a58:	68db      	ldr	r3, [r3, #12]
   b8a5a:	2202      	movs	r2, #2
   b8a5c:	4620      	mov	r0, r4
   b8a5e:	4798      	blx	r3
            write("details = ", 10);
   b8a60:	6823      	ldr	r3, [r4, #0]
   b8a62:	4914      	ldr	r1, [pc, #80]	; (b8ab4 <_ZN5spark16StreamLogHandler10logMessageEPKc8LogLevelS2_RK13LogAttributes+0x19c>)
   b8a64:	68db      	ldr	r3, [r3, #12]
   b8a66:	4620      	mov	r0, r4
   b8a68:	220a      	movs	r2, #10
   b8a6a:	4798      	blx	r3
            write(attr.details);
   b8a6c:	69e9      	ldr	r1, [r5, #28]
   b8a6e:	4620      	mov	r0, r4
   b8a70:	f7ff f9d9 	bl	b7e26 <_ZN5spark16StreamLogHandler5writeEPKc>
        write(']');
   b8a74:	215d      	movs	r1, #93	; 0x5d
   b8a76:	4620      	mov	r0, r4
   b8a78:	f7ff f9e4 	bl	b7e44 <_ZN5spark16StreamLogHandler5writeEc>
    write("\r\n", 2);
   b8a7c:	6823      	ldr	r3, [r4, #0]
   b8a7e:	490e      	ldr	r1, [pc, #56]	; (b8ab8 <_ZN5spark16StreamLogHandler10logMessageEPKc8LogLevelS2_RK13LogAttributes+0x1a0>)
   b8a80:	68db      	ldr	r3, [r3, #12]
   b8a82:	4620      	mov	r0, r4
   b8a84:	2202      	movs	r2, #2
}
   b8a86:	e8bd 47f0 	ldmia.w	sp!, {r4, r5, r6, r7, r8, r9, sl, lr}
    write("\r\n", 2);
   b8a8a:	4718      	bx	r3
   b8a8c:	000bac9a 	.word	0x000bac9a
   b8a90:	000baca1 	.word	0x000baca1
   b8a94:	000ba665 	.word	0x000ba665
   b8a98:	000baca4 	.word	0x000baca4
   b8a9c:	000baca9 	.word	0x000baca9
   b8aa0:	2003e6dc 	.word	0x2003e6dc
   b8aa4:	000baca7 	.word	0x000baca7
   b8aa8:	000bacac 	.word	0x000bacac
   b8aac:	000bacaf 	.word	0x000bacaf
   b8ab0:	000bacb7 	.word	0x000bacb7
   b8ab4:	000bacba 	.word	0x000bacba
   b8ab8:	000bacc5 	.word	0x000bacc5

000b8abc <_ZN5spark20JSONStreamLogHandler10logMessageEPKc8LogLevelS2_RK13LogAttributes>:
void spark::JSONStreamLogHandler::logMessage(const char *msg, LogLevel level, const char *category, const LogAttributes &attr) {
   b8abc:	e92d 43f0 	stmdb	sp!, {r4, r5, r6, r7, r8, r9, lr}
   b8ac0:	b085      	sub	sp, #20
    return stream_;
   b8ac2:	f8d0 9020 	ldr.w	r9, [r0, #32]
   b8ac6:	9c0c      	ldr	r4, [sp, #48]	; 0x30
   b8ac8:	4605      	mov	r5, r0
   b8aca:	460f      	mov	r7, r1
   b8acc:	4690      	mov	r8, r2
   b8ace:	461e      	mov	r6, r3
    if (this->stream() == &Serial && Network.listening()) {
   b8ad0:	f000 fbea 	bl	b92a8 <_Z16_fetch_usbserialv>
   b8ad4:	4581      	cmp	r9, r0
   b8ad6:	d105      	bne.n	b8ae4 <_ZN5spark20JSONStreamLogHandler10logMessageEPKc8LogLevelS2_RK13LogAttributes+0x28>
   b8ad8:	4849      	ldr	r0, [pc, #292]	; (b8c00 <_ZN5spark20JSONStreamLogHandler10logMessageEPKc8LogLevelS2_RK13LogAttributes+0x144>)
   b8ada:	f000 f8e0 	bl	b8c9e <_ZN5spark12NetworkClass9listeningEv>
   b8ade:	2800      	cmp	r0, #0
   b8ae0:	f040 808a 	bne.w	b8bf8 <_ZN5spark20JSONStreamLogHandler10logMessageEPKc8LogLevelS2_RK13LogAttributes+0x13c>
   b8ae4:	6a2b      	ldr	r3, [r5, #32]
        strm_(stream) {
   b8ae6:	4a47      	ldr	r2, [pc, #284]	; (b8c04 <_ZN5spark20JSONStreamLogHandler10logMessageEPKc8LogLevelS2_RK13LogAttributes+0x148>)
   b8ae8:	9201      	str	r2, [sp, #4]
        state_(BEGIN) {
   b8aea:	f04f 0900 	mov.w	r9, #0
    json.beginObject();
   b8aee:	a801      	add	r0, sp, #4
        strm_(stream) {
   b8af0:	9303      	str	r3, [sp, #12]
        state_(BEGIN) {
   b8af2:	f88d 9008 	strb.w	r9, [sp, #8]
   b8af6:	f7ff f878 	bl	b7bea <_ZN5spark10JSONWriter11beginObjectEv>
    return log_level_name(level, nullptr);
   b8afa:	4649      	mov	r1, r9
   b8afc:	4640      	mov	r0, r8
   b8afe:	f7fe f97f 	bl	b6e00 <log_level_name>
    json.name("l", 1).value(s);
   b8b02:	4941      	ldr	r1, [pc, #260]	; (b8c08 <_ZN5spark20JSONStreamLogHandler10logMessageEPKc8LogLevelS2_RK13LogAttributes+0x14c>)
   b8b04:	4680      	mov	r8, r0
   b8b06:	2201      	movs	r2, #1
   b8b08:	a801      	add	r0, sp, #4
   b8b0a:	f7ff f8fd 	bl	b7d08 <_ZN5spark10JSONWriter4nameEPKcj>
   b8b0e:	4641      	mov	r1, r8
   b8b10:	f7ff f97b 	bl	b7e0a <_ZN5spark10JSONWriter5valueEPKc>
    if (msg) {
   b8b14:	b13f      	cbz	r7, b8b26 <_ZN5spark20JSONStreamLogHandler10logMessageEPKc8LogLevelS2_RK13LogAttributes+0x6a>
        json.name("m", 1).value(msg);
   b8b16:	493d      	ldr	r1, [pc, #244]	; (b8c0c <_ZN5spark20JSONStreamLogHandler10logMessageEPKc8LogLevelS2_RK13LogAttributes+0x150>)
   b8b18:	2201      	movs	r2, #1
   b8b1a:	a801      	add	r0, sp, #4
   b8b1c:	f7ff f8f4 	bl	b7d08 <_ZN5spark10JSONWriter4nameEPKcj>
   b8b20:	4639      	mov	r1, r7
   b8b22:	f7ff f972 	bl	b7e0a <_ZN5spark10JSONWriter5valueEPKc>
    if (category) {
   b8b26:	b13e      	cbz	r6, b8b38 <_ZN5spark20JSONStreamLogHandler10logMessageEPKc8LogLevelS2_RK13LogAttributes+0x7c>
        json.name("c", 1).value(category);
   b8b28:	4939      	ldr	r1, [pc, #228]	; (b8c10 <_ZN5spark20JSONStreamLogHandler10logMessageEPKc8LogLevelS2_RK13LogAttributes+0x154>)
   b8b2a:	2201      	movs	r2, #1
   b8b2c:	a801      	add	r0, sp, #4
   b8b2e:	f7ff f8eb 	bl	b7d08 <_ZN5spark10JSONWriter4nameEPKcj>
   b8b32:	4631      	mov	r1, r6
   b8b34:	f7ff f969 	bl	b7e0a <_ZN5spark10JSONWriter5valueEPKc>
    if (attr.has_file) {
   b8b38:	7923      	ldrb	r3, [r4, #4]
   b8b3a:	07df      	lsls	r7, r3, #31
   b8b3c:	d50e      	bpl.n	b8b5c <_ZN5spark20JSONStreamLogHandler10logMessageEPKc8LogLevelS2_RK13LogAttributes+0xa0>
        s = extractFileName(attr.file); // Strip directory path
   b8b3e:	68a6      	ldr	r6, [r4, #8]
    const char *s1 = strrchr(s, '/');
   b8b40:	212f      	movs	r1, #47	; 0x2f
   b8b42:	4630      	mov	r0, r6
   b8b44:	f000 ffc3 	bl	b9ace <strrchr>
    if (s1) {
   b8b48:	b100      	cbz	r0, b8b4c <_ZN5spark20JSONStreamLogHandler10logMessageEPKc8LogLevelS2_RK13LogAttributes+0x90>
        return s1 + 1;
   b8b4a:	1c46      	adds	r6, r0, #1
        json.name("f", 1).value(s);
   b8b4c:	4931      	ldr	r1, [pc, #196]	; (b8c14 <_ZN5spark20JSONStreamLogHandler10logMessageEPKc8LogLevelS2_RK13LogAttributes+0x158>)
   b8b4e:	2201      	movs	r2, #1
   b8b50:	a801      	add	r0, sp, #4
   b8b52:	f7ff f8d9 	bl	b7d08 <_ZN5spark10JSONWriter4nameEPKcj>
   b8b56:	4631      	mov	r1, r6
   b8b58:	f7ff f957 	bl	b7e0a <_ZN5spark10JSONWriter5valueEPKc>
    if (attr.has_line) {
   b8b5c:	7923      	ldrb	r3, [r4, #4]
   b8b5e:	079e      	lsls	r6, r3, #30
   b8b60:	d507      	bpl.n	b8b72 <_ZN5spark20JSONStreamLogHandler10logMessageEPKc8LogLevelS2_RK13LogAttributes+0xb6>
        json.name("ln", 2).value(attr.line);
   b8b62:	492d      	ldr	r1, [pc, #180]	; (b8c18 <_ZN5spark20JSONStreamLogHandler10logMessageEPKc8LogLevelS2_RK13LogAttributes+0x15c>)
   b8b64:	2202      	movs	r2, #2
   b8b66:	a801      	add	r0, sp, #4
   b8b68:	f7ff f8ce 	bl	b7d08 <_ZN5spark10JSONWriter4nameEPKcj>
   b8b6c:	68e1      	ldr	r1, [r4, #12]
   b8b6e:	f7ff f849 	bl	b7c04 <_ZN5spark10JSONWriter5valueEi>
    if (attr.has_function) {
   b8b72:	7923      	ldrb	r3, [r4, #4]
   b8b74:	0758      	lsls	r0, r3, #29
   b8b76:	d514      	bpl.n	b8ba2 <_ZN5spark20JSONStreamLogHandler10logMessageEPKc8LogLevelS2_RK13LogAttributes+0xe6>
        s = extractFuncName(attr.function, &n); // Strip argument and return types
   b8b78:	6926      	ldr	r6, [r4, #16]
const char* extractFuncName(const char *s, size_t *size) {
   b8b7a:	4633      	mov	r3, r6
   b8b7c:	461f      	mov	r7, r3
    for (; *s; ++s) {
   b8b7e:	f813 2b01 	ldrb.w	r2, [r3], #1
   b8b82:	b12a      	cbz	r2, b8b90 <_ZN5spark20JSONStreamLogHandler10logMessageEPKc8LogLevelS2_RK13LogAttributes+0xd4>
        if (*s == ' ') {
   b8b84:	2a20      	cmp	r2, #32
   b8b86:	d101      	bne.n	b8b8c <_ZN5spark20JSONStreamLogHandler10logMessageEPKc8LogLevelS2_RK13LogAttributes+0xd0>
            s1 = s + 1; // Skip return type
   b8b88:	461e      	mov	r6, r3
   b8b8a:	e7f7      	b.n	b8b7c <_ZN5spark20JSONStreamLogHandler10logMessageEPKc8LogLevelS2_RK13LogAttributes+0xc0>
        } else if (*s == '(') {
   b8b8c:	2a28      	cmp	r2, #40	; 0x28
   b8b8e:	d1f5      	bne.n	b8b7c <_ZN5spark20JSONStreamLogHandler10logMessageEPKc8LogLevelS2_RK13LogAttributes+0xc0>
        json.name("fn", 2).value(s, n);
   b8b90:	4922      	ldr	r1, [pc, #136]	; (b8c1c <_ZN5spark20JSONStreamLogHandler10logMessageEPKc8LogLevelS2_RK13LogAttributes+0x160>)
   b8b92:	2202      	movs	r2, #2
   b8b94:	a801      	add	r0, sp, #4
   b8b96:	f7ff f8b7 	bl	b7d08 <_ZN5spark10JSONWriter4nameEPKcj>
   b8b9a:	1bba      	subs	r2, r7, r6
   b8b9c:	4631      	mov	r1, r6
   b8b9e:	f7ff f8c3 	bl	b7d28 <_ZN5spark10JSONWriter5valueEPKcj>
    if (attr.has_time) {
   b8ba2:	7923      	ldrb	r3, [r4, #4]
   b8ba4:	0719      	lsls	r1, r3, #28
   b8ba6:	d507      	bpl.n	b8bb8 <_ZN5spark20JSONStreamLogHandler10logMessageEPKc8LogLevelS2_RK13LogAttributes+0xfc>
        json.name("t", 1).value((unsigned)attr.time);
   b8ba8:	491d      	ldr	r1, [pc, #116]	; (b8c20 <_ZN5spark20JSONStreamLogHandler10logMessageEPKc8LogLevelS2_RK13LogAttributes+0x164>)
   b8baa:	2201      	movs	r2, #1
   b8bac:	a801      	add	r0, sp, #4
   b8bae:	f7ff f8ab 	bl	b7d08 <_ZN5spark10JSONWriter4nameEPKcj>
   b8bb2:	6961      	ldr	r1, [r4, #20]
   b8bb4:	f7ff f838 	bl	b7c28 <_ZN5spark10JSONWriter5valueEj>
    if (attr.has_code) {
   b8bb8:	7923      	ldrb	r3, [r4, #4]
   b8bba:	06da      	lsls	r2, r3, #27
   b8bbc:	d508      	bpl.n	b8bd0 <_ZN5spark20JSONStreamLogHandler10logMessageEPKc8LogLevelS2_RK13LogAttributes+0x114>
        json.name("code", 4).value((int)attr.code);
   b8bbe:	2204      	movs	r2, #4
   b8bc0:	4918      	ldr	r1, [pc, #96]	; (b8c24 <_ZN5spark20JSONStreamLogHandler10logMessageEPKc8LogLevelS2_RK13LogAttributes+0x168>)
   b8bc2:	eb0d 0002 	add.w	r0, sp, r2
   b8bc6:	f7ff f89f 	bl	b7d08 <_ZN5spark10JSONWriter4nameEPKcj>
   b8bca:	69a1      	ldr	r1, [r4, #24]
   b8bcc:	f7ff f81a 	bl	b7c04 <_ZN5spark10JSONWriter5valueEi>
    if (attr.has_details) {
   b8bd0:	7923      	ldrb	r3, [r4, #4]
   b8bd2:	069b      	lsls	r3, r3, #26
   b8bd4:	d507      	bpl.n	b8be6 <_ZN5spark20JSONStreamLogHandler10logMessageEPKc8LogLevelS2_RK13LogAttributes+0x12a>
        json.name("detail", 6).value(attr.details);
   b8bd6:	4914      	ldr	r1, [pc, #80]	; (b8c28 <_ZN5spark20JSONStreamLogHandler10logMessageEPKc8LogLevelS2_RK13LogAttributes+0x16c>)
   b8bd8:	2206      	movs	r2, #6
   b8bda:	a801      	add	r0, sp, #4
   b8bdc:	f7ff f894 	bl	b7d08 <_ZN5spark10JSONWriter4nameEPKcj>
   b8be0:	69e1      	ldr	r1, [r4, #28]
   b8be2:	f7ff f912 	bl	b7e0a <_ZN5spark10JSONWriter5valueEPKc>
    json.endObject();
   b8be6:	a801      	add	r0, sp, #4
   b8be8:	f7fe ffe9 	bl	b7bbe <_ZN5spark10JSONWriter9endObjectEv>
    return stream_;
   b8bec:	6a28      	ldr	r0, [r5, #32]
    this->stream()->write((const uint8_t*)"\r\n", 2);
   b8bee:	490f      	ldr	r1, [pc, #60]	; (b8c2c <_ZN5spark20JSONStreamLogHandler10logMessageEPKc8LogLevelS2_RK13LogAttributes+0x170>)
   b8bf0:	6803      	ldr	r3, [r0, #0]
   b8bf2:	2202      	movs	r2, #2
   b8bf4:	68db      	ldr	r3, [r3, #12]
   b8bf6:	4798      	blx	r3
}
   b8bf8:	b005      	add	sp, #20
   b8bfa:	e8bd 83f0 	ldmia.w	sp!, {r4, r5, r6, r7, r8, r9, pc}
   b8bfe:	bf00      	nop
   b8c00:	2003e6dc 	.word	0x2003e6dc
   b8c04:	000bace4 	.word	0x000bace4
   b8c08:	000bac77 	.word	0x000bac77
   b8c0c:	000bacc8 	.word	0x000bacc8
   b8c10:	000bae7b 	.word	0x000bae7b
   b8c14:	000bacca 	.word	0x000bacca
   b8c18:	000baccc 	.word	0x000baccc
   b8c1c:	000baccf 	.word	0x000baccf
   b8c20:	000ba058 	.word	0x000ba058
   b8c24:	000ba797 	.word	0x000ba797
   b8c28:	000bacd2 	.word	0x000bacd2
   b8c2c:	000bacc5 	.word	0x000bacc5

000b8c30 <_ZN5spark12NetworkClass7connectEj>:
        return Network;
    }
}

void NetworkClass::connect(unsigned flags) {
    network_connect(*this, flags, 0, nullptr);
   b8c30:	2300      	movs	r3, #0
   b8c32:	6840      	ldr	r0, [r0, #4]
   b8c34:	461a      	mov	r2, r3
   b8c36:	f7fe b95f 	b.w	b6ef8 <network_connect>

000b8c3a <_ZN5spark12NetworkClass10disconnectEv>:
}

void NetworkClass::disconnect() {
    network_disconnect(*this, NETWORK_DISCONNECT_REASON_USER, nullptr);
   b8c3a:	6840      	ldr	r0, [r0, #4]
   b8c3c:	2200      	movs	r2, #0
   b8c3e:	2102      	movs	r1, #2
   b8c40:	f7fe b96a 	b.w	b6f18 <network_disconnect>

000b8c44 <_ZN5spark12NetworkClass10connectingEv>:
}

bool NetworkClass::connecting() {
    return network_connecting(*this, 0, nullptr);
   b8c44:	2200      	movs	r2, #0
   b8c46:	6840      	ldr	r0, [r0, #4]
   b8c48:	4611      	mov	r1, r2
   b8c4a:	f7fe b95d 	b.w	b6f08 <network_connecting>

000b8c4e <_ZN5spark12NetworkClass5readyEv>:
}

bool NetworkClass::ready() {
    return network_ready(*this, 0, nullptr);
   b8c4e:	2200      	movs	r2, #0
   b8c50:	6840      	ldr	r0, [r0, #4]
   b8c52:	4611      	mov	r1, r2
   b8c54:	f7fe b968 	b.w	b6f28 <network_ready>

000b8c58 <_ZN5spark12NetworkClass2onEv>:
}

void NetworkClass::on() {
    network_on(*this, 0, 0, nullptr);
   b8c58:	2300      	movs	r3, #0
   b8c5a:	6840      	ldr	r0, [r0, #4]
   b8c5c:	461a      	mov	r2, r3
   b8c5e:	4619      	mov	r1, r3
   b8c60:	f7fe b96a 	b.w	b6f38 <network_on>

000b8c64 <_ZN5spark12NetworkClass3offEv>:
}

void NetworkClass::off() {
    network_off(*this, 0, 0, nullptr);
   b8c64:	2300      	movs	r3, #0
   b8c66:	6840      	ldr	r0, [r0, #4]
   b8c68:	461a      	mov	r2, r3
   b8c6a:	4619      	mov	r1, r3
   b8c6c:	f7fe b96c 	b.w	b6f48 <network_off>

000b8c70 <_ZN5spark12NetworkClass4isOnEv>:
}

bool NetworkClass::isOn() {
    return network_is_on(*this, nullptr);
   b8c70:	6840      	ldr	r0, [r0, #4]
   b8c72:	2100      	movs	r1, #0
   b8c74:	f7fe b990 	b.w	b6f98 <network_is_on>

000b8c78 <_ZN5spark12NetworkClass5isOffEv>:
}

bool NetworkClass::isOff() {
    return network_is_off(*this, nullptr);
   b8c78:	6840      	ldr	r0, [r0, #4]
   b8c7a:	2100      	movs	r1, #0
   b8c7c:	f7fe b994 	b.w	b6fa8 <network_is_off>

000b8c80 <_ZN5spark12NetworkClass6listenEb>:
}

void NetworkClass::listen(bool begin) {
    network_listen(*this, begin ? 0 : 1, nullptr);
   b8c80:	6840      	ldr	r0, [r0, #4]
   b8c82:	2200      	movs	r2, #0
   b8c84:	f081 0101 	eor.w	r1, r1, #1
   b8c88:	f7fe b966 	b.w	b6f58 <network_listen>

000b8c8c <_ZN5spark12NetworkClass16setListenTimeoutEt>:
}

void NetworkClass::setListenTimeout(uint16_t timeout) {
    network_set_listen_timeout(*this, timeout, nullptr);
   b8c8c:	6840      	ldr	r0, [r0, #4]
   b8c8e:	2200      	movs	r2, #0
   b8c90:	f7fe b972 	b.w	b6f78 <network_set_listen_timeout>

000b8c94 <_ZN5spark12NetworkClass16getListenTimeoutEv>:
}

uint16_t NetworkClass::getListenTimeout() {
    return network_get_listen_timeout(*this, 0, nullptr);
   b8c94:	2200      	movs	r2, #0
   b8c96:	6840      	ldr	r0, [r0, #4]
   b8c98:	4611      	mov	r1, r2
   b8c9a:	f7fe b975 	b.w	b6f88 <network_get_listen_timeout>

000b8c9e <_ZN5spark12NetworkClass9listeningEv>:
}

bool NetworkClass::listening() {
    return network_listening(*this, 0, nullptr);
   b8c9e:	2200      	movs	r2, #0
   b8ca0:	6840      	ldr	r0, [r0, #4]
   b8ca2:	4611      	mov	r1, r2
   b8ca4:	f7fe b960 	b.w	b6f68 <network_listening>

000b8ca8 <_ZN5spark12NetworkClass7resolveEPKc>:
}

IPAddress NetworkClass::resolve(const char* name) {
   b8ca8:	e92d 43f0 	stmdb	sp!, {r4, r5, r6, r7, r8, r9, lr}
   b8cac:	b095      	sub	sp, #84	; 0x54
   b8cae:	4614      	mov	r4, r2
   b8cb0:	460d      	mov	r5, r1
   b8cb2:	4607      	mov	r7, r0
    IPAddress addr;
   b8cb4:	f7fe fe32 	bl	b791c <_ZN9IPAddressC1Ev>
#if HAL_USE_INET_HAL_POSIX
    struct addrinfo *ai = nullptr;
   b8cb8:	2100      	movs	r1, #0
    struct addrinfo hints = {};
   b8cba:	221c      	movs	r2, #28
   b8cbc:	a80d      	add	r0, sp, #52	; 0x34
    struct addrinfo *ai = nullptr;
   b8cbe:	9100      	str	r1, [sp, #0]
    struct addrinfo hints = {};
   b8cc0:	f000 fe2e 	bl	b9920 <memset>
    hints.ai_flags = AI_ADDRCONFIG;
   b8cc4:	2340      	movs	r3, #64	; 0x40
   b8cc6:	930c      	str	r3, [sp, #48]	; 0x30
    hints.ai_family = AF_UNSPEC;
    const int r = getaddrinfo(name, nullptr, &hints, &ai);
   b8cc8:	4620      	mov	r0, r4
   b8cca:	466b      	mov	r3, sp
   b8ccc:	aa0c      	add	r2, sp, #48	; 0x30
   b8cce:	2100      	movs	r1, #0
   b8cd0:	f7fd ffe6 	bl	b6ca0 <netdb_getaddrinfo>
    if (!r) {
   b8cd4:	4604      	mov	r4, r0
   b8cd6:	2800      	cmp	r0, #0
   b8cd8:	d14b      	bne.n	b8d72 <_ZN5spark12NetworkClass7resolveEPKc+0xca>
        bool ok = false;
        // This is not really needed if AI_ADDRCONFIG is properly supported
        bool ipv4 = network_ready(*this, NETWORK_READY_TYPE_IPV4, nullptr);
   b8cda:	4602      	mov	r2, r0
   b8cdc:	2101      	movs	r1, #1
   b8cde:	6868      	ldr	r0, [r5, #4]
   b8ce0:	f7fe f922 	bl	b6f28 <network_ready>
        bool ipv6 = network_ready(*this, NETWORK_READY_TYPE_IPV6, nullptr);
   b8ce4:	2102      	movs	r1, #2
        bool ipv4 = network_ready(*this, NETWORK_READY_TYPE_IPV4, nullptr);
   b8ce6:	4680      	mov	r8, r0
        bool ipv6 = network_ready(*this, NETWORK_READY_TYPE_IPV6, nullptr);
   b8ce8:	4622      	mov	r2, r4
   b8cea:	6868      	ldr	r0, [r5, #4]
   b8cec:	f7fe f91c 	bl	b6f28 <network_ready>
        for (auto cur = ai; cur != nullptr && !ok; cur = cur->ai_next) {
   b8cf0:	9e00      	ldr	r6, [sp, #0]
        bool ipv6 = network_ready(*this, NETWORK_READY_TYPE_IPV6, nullptr);
   b8cf2:	4681      	mov	r9, r0
        bool ok = false;
   b8cf4:	4621      	mov	r1, r4
        for (auto cur = ai; cur != nullptr && !ok; cur = cur->ai_next) {
   b8cf6:	2e00      	cmp	r6, #0
   b8cf8:	d03b      	beq.n	b8d72 <_ZN5spark12NetworkClass7resolveEPKc+0xca>
   b8cfa:	2900      	cmp	r1, #0
   b8cfc:	d139      	bne.n	b8d72 <_ZN5spark12NetworkClass7resolveEPKc+0xca>
            // NOTE: using only the first entry that matches the current state of IPv4/IPv6 connectivity
            switch (cur->ai_family) {
   b8cfe:	6873      	ldr	r3, [r6, #4]
   b8d00:	2b02      	cmp	r3, #2
   b8d02:	d003      	beq.n	b8d0c <_ZN5spark12NetworkClass7resolveEPKc+0x64>
   b8d04:	2b0a      	cmp	r3, #10
   b8d06:	d011      	beq.n	b8d2c <_ZN5spark12NetworkClass7resolveEPKc+0x84>
        for (auto cur = ai; cur != nullptr && !ok; cur = cur->ai_next) {
   b8d08:	69f6      	ldr	r6, [r6, #28]
   b8d0a:	e7f4      	b.n	b8cf6 <_ZN5spark12NetworkClass7resolveEPKc+0x4e>
                case AF_INET: {
                    if (!ipv4) {
   b8d0c:	f1b8 0f00 	cmp.w	r8, #0
   b8d10:	d0fa      	beq.n	b8d08 <_ZN5spark12NetworkClass7resolveEPKc+0x60>
                        continue;
                    }
                    // NOTE: HAL_IPAddress is little-endian
                    auto in = (struct sockaddr_in*)cur->ai_addr;
                    addr = (const uint8_t*)(&in->sin_addr.s_addr);
   b8d12:	6971      	ldr	r1, [r6, #20]
        return *this = IPAddress(address);
   b8d14:	a806      	add	r0, sp, #24
   b8d16:	3104      	adds	r1, #4
class IPAddress : public Printable {
   b8d18:	ad07      	add	r5, sp, #28
        return *this = IPAddress(address);
   b8d1a:	f7fe fe2d 	bl	b7978 <_ZN9IPAddressC1EPKh>
class IPAddress : public Printable {
   b8d1e:	cd0f      	ldmia	r5!, {r0, r1, r2, r3}
   b8d20:	1d3c      	adds	r4, r7, #4
   b8d22:	c40f      	stmia	r4!, {r0, r1, r2, r3}
   b8d24:	682b      	ldr	r3, [r5, #0]
   b8d26:	7023      	strb	r3, [r4, #0]
                    ok = true;
   b8d28:	4641      	mov	r1, r8
        return *this = IPAddress(address);
   b8d2a:	e7ed      	b.n	b8d08 <_ZN5spark12NetworkClass7resolveEPKc+0x60>
                    break;
                }
                case AF_INET6: {
                    if (!ipv6) {
   b8d2c:	f1b9 0f00 	cmp.w	r9, #0
   b8d30:	d0ea      	beq.n	b8d08 <_ZN5spark12NetworkClass7resolveEPKc+0x60>
                        continue;
                    }
                    auto in6 = (struct sockaddr_in6*)cur->ai_addr;
   b8d32:	6974      	ldr	r4, [r6, #20]
                    HAL_IPAddress a = {};
   b8d34:	2210      	movs	r2, #16
   b8d36:	a801      	add	r0, sp, #4
   b8d38:	f000 fdf2 	bl	b9920 <memset>
                    a.v = 6;
   b8d3c:	2306      	movs	r3, #6
   b8d3e:	f88d 3014 	strb.w	r3, [sp, #20]
                    memcpy(a.ipv6, in6->sin6_addr.s6_addr, sizeof(a.ipv6));
   b8d42:	ad01      	add	r5, sp, #4
   b8d44:	f104 0308 	add.w	r3, r4, #8
   b8d48:	3418      	adds	r4, #24
   b8d4a:	6818      	ldr	r0, [r3, #0]
   b8d4c:	6859      	ldr	r1, [r3, #4]
   b8d4e:	462a      	mov	r2, r5
   b8d50:	c203      	stmia	r2!, {r0, r1}
   b8d52:	3308      	adds	r3, #8
   b8d54:	42a3      	cmp	r3, r4
   b8d56:	4615      	mov	r5, r2
   b8d58:	d1f7      	bne.n	b8d4a <_ZN5spark12NetworkClass7resolveEPKc+0xa2>
                    addr = IPAddress(a);
   b8d5a:	a901      	add	r1, sp, #4
   b8d5c:	a806      	add	r0, sp, #24
class IPAddress : public Printable {
   b8d5e:	ad07      	add	r5, sp, #28
   b8d60:	f7fe fdea 	bl	b7938 <_ZN9IPAddressC1ERK16_HAL_IPAddress_t>
   b8d64:	cd0f      	ldmia	r5!, {r0, r1, r2, r3}
   b8d66:	1d3c      	adds	r4, r7, #4
   b8d68:	c40f      	stmia	r4!, {r0, r1, r2, r3}
   b8d6a:	682b      	ldr	r3, [r5, #0]
   b8d6c:	7023      	strb	r3, [r4, #0]
                    ok = true;
   b8d6e:	4649      	mov	r1, r9
   b8d70:	e7ca      	b.n	b8d08 <_ZN5spark12NetworkClass7resolveEPKc+0x60>
                    break;
                }
            }
        }
    }
    freeaddrinfo(ai);
   b8d72:	9800      	ldr	r0, [sp, #0]
   b8d74:	f7fd ff8c 	bl	b6c90 <netdb_freeaddrinfo>
    return Cellular.resolve(name);
#endif // Wiring_Cellular

#endif // HAL_USE_INET_HAL_POSIX
    return addr;
}
   b8d78:	4638      	mov	r0, r7
   b8d7a:	b015      	add	sp, #84	; 0x54
   b8d7c:	e8bd 83f0 	ldmia.w	sp!, {r4, r5, r6, r7, r8, r9, pc}

000b8d80 <_GLOBAL__sub_I__ZN5spark7NetworkE>:
   b8d80:	4b02      	ldr	r3, [pc, #8]	; (b8d8c <_GLOBAL__sub_I__ZN5spark7NetworkE+0xc>)
   b8d82:	4a03      	ldr	r2, [pc, #12]	; (b8d90 <_GLOBAL__sub_I__ZN5spark7NetworkE+0x10>)
   b8d84:	601a      	str	r2, [r3, #0]
   b8d86:	2200      	movs	r2, #0
   b8d88:	605a      	str	r2, [r3, #4]

} // spark
   b8d8a:	4770      	bx	lr
   b8d8c:	2003e6dc 	.word	0x2003e6dc
   b8d90:	000bad5c 	.word	0x000bad5c

000b8d94 <_ZN5Print5writeEPKhj>:

// Public Methods //////////////////////////////////////////////////////////////

/* default implementation: may be overridden */
size_t Print::write(const uint8_t *buffer, size_t size)
{
   b8d94:	b5f8      	push	{r3, r4, r5, r6, r7, lr}
   b8d96:	4606      	mov	r6, r0
   b8d98:	460d      	mov	r5, r1
  size_t n = 0;
   b8d9a:	188f      	adds	r7, r1, r2
   b8d9c:	2400      	movs	r4, #0
  while (size--) {
   b8d9e:	42bd      	cmp	r5, r7
   b8da0:	d00c      	beq.n	b8dbc <_ZN5Print5writeEPKhj+0x28>
     int chunk = write(*buffer++);
   b8da2:	6833      	ldr	r3, [r6, #0]
   b8da4:	f815 1b01 	ldrb.w	r1, [r5], #1
   b8da8:	689b      	ldr	r3, [r3, #8]
   b8daa:	4630      	mov	r0, r6
   b8dac:	4798      	blx	r3
     if (chunk>=0)
   b8dae:	1e03      	subs	r3, r0, #0
   b8db0:	db01      	blt.n	b8db6 <_ZN5Print5writeEPKhj+0x22>
         n += chunk;
   b8db2:	441c      	add	r4, r3
  while (size--) {
   b8db4:	e7f3      	b.n	b8d9e <_ZN5Print5writeEPKhj+0xa>
     int chunk = write(*buffer++);
   b8db6:	2c00      	cmp	r4, #0
   b8db8:	bf08      	it	eq
   b8dba:	461c      	moveq	r4, r3
             n = chunk;
         break;
     }
  }
  return n;
}
   b8dbc:	4620      	mov	r0, r4
   b8dbe:	bdf8      	pop	{r3, r4, r5, r6, r7, pc}

000b8dc0 <_ZN5Print5writeEPKc>:
    size_t write(const char *str) {
   b8dc0:	b513      	push	{r0, r1, r4, lr}
   b8dc2:	4604      	mov	r4, r0
    }
   b8dc4:	4608      	mov	r0, r1
      if (str == NULL) return 0;
   b8dc6:	b159      	cbz	r1, b8de0 <_ZN5Print5writeEPKc+0x20>
      return write((const uint8_t *)str, strlen(str));
   b8dc8:	9101      	str	r1, [sp, #4]
   b8dca:	f000 fe64 	bl	b9a96 <strlen>
   b8dce:	6823      	ldr	r3, [r4, #0]
   b8dd0:	9901      	ldr	r1, [sp, #4]
   b8dd2:	68db      	ldr	r3, [r3, #12]
   b8dd4:	4602      	mov	r2, r0
   b8dd6:	4620      	mov	r0, r4
    }
   b8dd8:	b002      	add	sp, #8
   b8dda:	e8bd 4010 	ldmia.w	sp!, {r4, lr}
      return write((const uint8_t *)str, strlen(str));
   b8dde:	4718      	bx	r3
    }
   b8de0:	b002      	add	sp, #8
   b8de2:	bd10      	pop	{r4, pc}

000b8de4 <_ZN5Print5printEc>:
  return write(str);
}

size_t Print::print(char c)
{
  return write(c);
   b8de4:	6803      	ldr	r3, [r0, #0]
   b8de6:	689b      	ldr	r3, [r3, #8]
   b8de8:	4718      	bx	r3

000b8dea <_ZN5Print7printlnEv>:
{
  return print(reinterpret_cast<const char*>(str));
}

size_t Print::println(void)
{
   b8dea:	b538      	push	{r3, r4, r5, lr}
  size_t n = print('\r');
   b8dec:	210d      	movs	r1, #13
{
   b8dee:	4605      	mov	r5, r0
  size_t n = print('\r');
   b8df0:	f7ff fff8 	bl	b8de4 <_ZN5Print5printEc>
  n += print('\n');
   b8df4:	210a      	movs	r1, #10
  size_t n = print('\r');
   b8df6:	4604      	mov	r4, r0
  n += print('\n');
   b8df8:	4628      	mov	r0, r5
   b8dfa:	f7ff fff3 	bl	b8de4 <_ZN5Print5printEc>
  return n;
}
   b8dfe:	4420      	add	r0, r4
   b8e00:	bd38      	pop	{r3, r4, r5, pc}

000b8e02 <_ZN5Print11printNumberEmh>:
  return println(reinterpret_cast<const char*>(str));
}

// Private Methods /////////////////////////////////////////////////////////////

size_t Print::printNumber(unsigned long n, uint8_t base) {
   b8e02:	b530      	push	{r4, r5, lr}
   b8e04:	b08b      	sub	sp, #44	; 0x2c
  char buf[8 * sizeof(n) + 1]; // Assumes 8-bit chars plus zero byte.
  char *str = &buf[sizeof(buf) - 1];

  *str = '\0';
   b8e06:	2300      	movs	r3, #0

  // prevent crash if called with base == 1
  if (base < 2) base = 10;
   b8e08:	2a01      	cmp	r2, #1
  *str = '\0';
   b8e0a:	f88d 3024 	strb.w	r3, [sp, #36]	; 0x24
  if (base < 2) base = 10;
   b8e0e:	bf98      	it	ls
   b8e10:	220a      	movls	r2, #10
   b8e12:	ac09      	add	r4, sp, #36	; 0x24

  do {
   decltype(n) m = n;
   n /= base;
   b8e14:	460d      	mov	r5, r1
   b8e16:	fbb1 f1f2 	udiv	r1, r1, r2
   char c = m - base * n;
   b8e1a:	fb01 5312 	mls	r3, r1, r2, r5
   b8e1e:	f003 03ff 	and.w	r3, r3, #255	; 0xff
   *--str = c < 10 ? c + '0' : c + 'A' - 10;
   b8e22:	2b09      	cmp	r3, #9
   b8e24:	bf94      	ite	ls
   b8e26:	3330      	addls	r3, #48	; 0x30
   b8e28:	3337      	addhi	r3, #55	; 0x37
   b8e2a:	b2db      	uxtb	r3, r3
  } while(n);
   b8e2c:	42aa      	cmp	r2, r5
   *--str = c < 10 ? c + '0' : c + 'A' - 10;
   b8e2e:	f804 3d01 	strb.w	r3, [r4, #-1]!
  } while(n);
   b8e32:	d9ef      	bls.n	b8e14 <_ZN5Print11printNumberEmh+0x12>

  return write(str);
   b8e34:	4621      	mov	r1, r4
   b8e36:	f7ff ffc3 	bl	b8dc0 <_ZN5Print5writeEPKc>
}
   b8e3a:	b00b      	add	sp, #44	; 0x2c
   b8e3c:	bd30      	pop	{r4, r5, pc}

000b8e3e <_ZN5Print7vprintfEbPKcSt9__va_list>:

  return n;
}

size_t Print::vprintf(bool newline, const char* format, va_list args)
{
   b8e3e:	e92d 41f0 	stmdb	sp!, {r4, r5, r6, r7, r8, lr}
   b8e42:	b086      	sub	sp, #24
   b8e44:	af00      	add	r7, sp, #0
   b8e46:	4605      	mov	r5, r0
   b8e48:	460e      	mov	r6, r1
    const int bufsize = 20;
    char test[bufsize];
    va_list args2;
    va_copy(args2, args);
    size_t n = vsnprintf(test, bufsize, format, args);
   b8e4a:	1d38      	adds	r0, r7, #4
   b8e4c:	2114      	movs	r1, #20
{
   b8e4e:	4614      	mov	r4, r2
    va_copy(args2, args);
   b8e50:	603b      	str	r3, [r7, #0]
    size_t n = vsnprintf(test, bufsize, format, args);
   b8e52:	f7fe f8e1 	bl	b7018 <vsnprintf>

    if (n<bufsize)
   b8e56:	2813      	cmp	r0, #19
   b8e58:	d80e      	bhi.n	b8e78 <_ZN5Print7vprintfEbPKcSt9__va_list+0x3a>
  return write(str);
   b8e5a:	1d39      	adds	r1, r7, #4
   b8e5c:	4628      	mov	r0, r5
   b8e5e:	f7ff ffaf 	bl	b8dc0 <_ZN5Print5writeEPKc>
   b8e62:	4604      	mov	r4, r0
    {
        char bigger[n+1];
        n = vsnprintf(bigger, n+1, format, args2);
        n = print(bigger);
    }
    if (newline)
   b8e64:	b11e      	cbz	r6, b8e6e <_ZN5Print7vprintfEbPKcSt9__va_list+0x30>
        n += println();
   b8e66:	4628      	mov	r0, r5
   b8e68:	f7ff ffbf 	bl	b8dea <_ZN5Print7printlnEv>
   b8e6c:	4404      	add	r4, r0

    va_end(args2);
    return n;
}
   b8e6e:	4620      	mov	r0, r4
   b8e70:	3718      	adds	r7, #24
   b8e72:	46bd      	mov	sp, r7
   b8e74:	e8bd 81f0 	ldmia.w	sp!, {r4, r5, r6, r7, r8, pc}
        char bigger[n+1];
   b8e78:	f100 0308 	add.w	r3, r0, #8
   b8e7c:	f023 0307 	bic.w	r3, r3, #7
        n = print(bigger);
   b8e80:	46e8      	mov	r8, sp
        char bigger[n+1];
   b8e82:	ebad 0d03 	sub.w	sp, sp, r3
        n = vsnprintf(bigger, n+1, format, args2);
   b8e86:	4622      	mov	r2, r4
   b8e88:	1c41      	adds	r1, r0, #1
   b8e8a:	683b      	ldr	r3, [r7, #0]
   b8e8c:	4668      	mov	r0, sp
   b8e8e:	f7fe f8c3 	bl	b7018 <vsnprintf>
  return write(str);
   b8e92:	4669      	mov	r1, sp
   b8e94:	4628      	mov	r0, r5
   b8e96:	f7ff ff93 	bl	b8dc0 <_ZN5Print5writeEPKc>
   b8e9a:	4604      	mov	r4, r0
   b8e9c:	46c5      	mov	sp, r8
   b8e9e:	e7e1      	b.n	b8e64 <_ZN5Print7vprintfEbPKcSt9__va_list+0x26>

000b8ea0 <_GLOBAL__sub_I_RGB>:
    _Function_base() : _M_manager(nullptr) { }
   b8ea0:	4b01      	ldr	r3, [pc, #4]	; (b8ea8 <_GLOBAL__sub_I_RGB+0x8>)
   b8ea2:	2200      	movs	r2, #0
   b8ea4:	609a      	str	r2, [r3, #8]
{
    RGBClass* const d = static_cast<RGBClass*>(data);
    if (d->changeHandler_) {
        d->changeHandler_(r, g, b);
    }
}
   b8ea6:	4770      	bx	lr
   b8ea8:	2003e6e4 	.word	0x2003e6e4

000b8eac <_ZN6StringD1Ev>:
    init();
    char buf[33] = {};
    dtoa(value, decimalPlaces, buf);
  *this = buf;
}
String::~String()
   b8eac:	b510      	push	{r4, lr}
   b8eae:	4604      	mov	r4, r0
{
    free(buffer);
   b8eb0:	6800      	ldr	r0, [r0, #0]
   b8eb2:	f7fe f889 	bl	b6fc8 <free>
}
   b8eb6:	4620      	mov	r0, r4
   b8eb8:	bd10      	pop	{r4, pc}

000b8eba <_ZN6String10invalidateEv>:
    len = 0;
    flags = 0;
}

void String::invalidate(void)
{
   b8eba:	b510      	push	{r4, lr}
   b8ebc:	4604      	mov	r4, r0
    if (buffer) {
   b8ebe:	6800      	ldr	r0, [r0, #0]
   b8ec0:	b108      	cbz	r0, b8ec6 <_ZN6String10invalidateEv+0xc>
        free(buffer);
   b8ec2:	f7fe f881 	bl	b6fc8 <free>
    }
    buffer = nullptr;
   b8ec6:	2300      	movs	r3, #0
    capacity = len = 0;
   b8ec8:	e9c4 3301 	strd	r3, r3, [r4, #4]
    buffer = nullptr;
   b8ecc:	6023      	str	r3, [r4, #0]
}
   b8ece:	bd10      	pop	{r4, pc}

000b8ed0 <_ZN6String12changeBufferEj>:
    }
    return 0;
}

unsigned char String::changeBuffer(unsigned int maxStrLen)
{
   b8ed0:	b538      	push	{r3, r4, r5, lr}
   b8ed2:	4604      	mov	r4, r0
   b8ed4:	460d      	mov	r5, r1
    char *newbuffer = (char *)realloc(buffer, maxStrLen + 1);
   b8ed6:	6800      	ldr	r0, [r0, #0]
   b8ed8:	3101      	adds	r1, #1
   b8eda:	f7fe f87d 	bl	b6fd8 <realloc>
    if (newbuffer) {
   b8ede:	b110      	cbz	r0, b8ee6 <_ZN6String12changeBufferEj+0x16>
        buffer = newbuffer;
        capacity = maxStrLen;
   b8ee0:	e9c4 0500 	strd	r0, r5, [r4]
        return 1;
   b8ee4:	2001      	movs	r0, #1
    }
    return 0;
}
   b8ee6:	bd38      	pop	{r3, r4, r5, pc}

000b8ee8 <_ZN6String7reserveEj>:
{
   b8ee8:	b510      	push	{r4, lr}
    if (buffer && capacity >= size) {
   b8eea:	6803      	ldr	r3, [r0, #0]
{
   b8eec:	4604      	mov	r4, r0
    if (buffer && capacity >= size) {
   b8eee:	b123      	cbz	r3, b8efa <_ZN6String7reserveEj+0x12>
   b8ef0:	6843      	ldr	r3, [r0, #4]
   b8ef2:	428b      	cmp	r3, r1
   b8ef4:	d301      	bcc.n	b8efa <_ZN6String7reserveEj+0x12>
   b8ef6:	2001      	movs	r0, #1
}
   b8ef8:	bd10      	pop	{r4, pc}
    if (changeBuffer(size)) {
   b8efa:	4620      	mov	r0, r4
   b8efc:	f7ff ffe8 	bl	b8ed0 <_ZN6String12changeBufferEj>
   b8f00:	2800      	cmp	r0, #0
   b8f02:	d0f9      	beq.n	b8ef8 <_ZN6String7reserveEj+0x10>
        if (len == 0) {
   b8f04:	68a3      	ldr	r3, [r4, #8]
   b8f06:	2b00      	cmp	r3, #0
   b8f08:	d1f5      	bne.n	b8ef6 <_ZN6String7reserveEj+0xe>
            buffer[0] = 0;
   b8f0a:	6822      	ldr	r2, [r4, #0]
   b8f0c:	7013      	strb	r3, [r2, #0]
   b8f0e:	e7f2      	b.n	b8ef6 <_ZN6String7reserveEj+0xe>

000b8f10 <_ZN6String4copyEPKcj>:
/*********************************************/
/*  Copy and Move                            */
/*********************************************/

String & String::copy(const char *cstr, unsigned int length)
{
   b8f10:	b537      	push	{r0, r1, r2, r4, r5, lr}
   b8f12:	460d      	mov	r5, r1
    if (!reserve(length)) {
   b8f14:	4611      	mov	r1, r2
   b8f16:	9201      	str	r2, [sp, #4]
{
   b8f18:	4604      	mov	r4, r0
    if (!reserve(length)) {
   b8f1a:	f7ff ffe5 	bl	b8ee8 <_ZN6String7reserveEj>
   b8f1e:	9a01      	ldr	r2, [sp, #4]
   b8f20:	b928      	cbnz	r0, b8f2e <_ZN6String4copyEPKcj+0x1e>
        invalidate();
   b8f22:	4620      	mov	r0, r4
   b8f24:	f7ff ffc9 	bl	b8eba <_ZN6String10invalidateEv>
    }
    len = length;
    memcpy(buffer, cstr, length);
    buffer[len] = 0;
    return *this;
}
   b8f28:	4620      	mov	r0, r4
   b8f2a:	b003      	add	sp, #12
   b8f2c:	bd30      	pop	{r4, r5, pc}
    len = length;
   b8f2e:	60a2      	str	r2, [r4, #8]
    memcpy(buffer, cstr, length);
   b8f30:	4629      	mov	r1, r5
   b8f32:	6820      	ldr	r0, [r4, #0]
   b8f34:	f000 fccc 	bl	b98d0 <memcpy>
    buffer[len] = 0;
   b8f38:	6822      	ldr	r2, [r4, #0]
   b8f3a:	68a3      	ldr	r3, [r4, #8]
   b8f3c:	2100      	movs	r1, #0
   b8f3e:	54d1      	strb	r1, [r2, r3]
    return *this;
   b8f40:	e7f2      	b.n	b8f28 <_ZN6String4copyEPKcj+0x18>

000b8f42 <_ZN6StringC1EPK19__FlashStringHelper>:
    buffer = nullptr;
   b8f42:	2300      	movs	r3, #0
String::String(const __FlashStringHelper *pstr)
   b8f44:	b513      	push	{r0, r1, r4, lr}
    capacity = 0;
   b8f46:	e9c0 3300 	strd	r3, r3, [r0]
String::String(const __FlashStringHelper *pstr)
   b8f4a:	4604      	mov	r4, r0
    len = 0;
   b8f4c:	6083      	str	r3, [r0, #8]
    flags = 0;
   b8f4e:	7303      	strb	r3, [r0, #12]
    if (cstr) {
   b8f50:	b141      	cbz	r1, b8f64 <_ZN6StringC1EPK19__FlashStringHelper+0x22>
        copy(cstr, strlen(cstr));
   b8f52:	4608      	mov	r0, r1
   b8f54:	9101      	str	r1, [sp, #4]
   b8f56:	f000 fd9e 	bl	b9a96 <strlen>
   b8f5a:	9901      	ldr	r1, [sp, #4]
   b8f5c:	4602      	mov	r2, r0
   b8f5e:	4620      	mov	r0, r4
   b8f60:	f7ff ffd6 	bl	b8f10 <_ZN6String4copyEPKcj>
}
   b8f64:	4620      	mov	r0, r4
   b8f66:	b002      	add	sp, #8
   b8f68:	bd10      	pop	{r4, pc}

000b8f6a <_ZN6String4moveERS_>:
    return copy(reinterpret_cast<const char*>(pstr), length);
}

#ifdef __GXX_EXPERIMENTAL_CXX0X__
void String::move(String &rhs)
{
   b8f6a:	b538      	push	{r3, r4, r5, lr}
   b8f6c:	4605      	mov	r5, r0
    if (buffer) {
   b8f6e:	6800      	ldr	r0, [r0, #0]
{
   b8f70:	460c      	mov	r4, r1
    if (buffer) {
   b8f72:	b170      	cbz	r0, b8f92 <_ZN6String4moveERS_+0x28>
        if (capacity >= rhs.len && rhs.buffer) {
   b8f74:	686a      	ldr	r2, [r5, #4]
   b8f76:	688b      	ldr	r3, [r1, #8]
   b8f78:	429a      	cmp	r2, r3
   b8f7a:	d308      	bcc.n	b8f8e <_ZN6String4moveERS_+0x24>
   b8f7c:	6809      	ldr	r1, [r1, #0]
   b8f7e:	b131      	cbz	r1, b8f8e <_ZN6String4moveERS_+0x24>
            strcpy(buffer, rhs.buffer);
   b8f80:	f000 fd63 	bl	b9a4a <strcpy>
            len = rhs.len;
   b8f84:	68a3      	ldr	r3, [r4, #8]
   b8f86:	60ab      	str	r3, [r5, #8]
            rhs.len = 0;
   b8f88:	2300      	movs	r3, #0
    buffer = rhs.buffer;
    capacity = rhs.capacity;
    len = rhs.len;
    rhs.buffer = nullptr;
    rhs.capacity = 0;
    rhs.len = 0;
   b8f8a:	60a3      	str	r3, [r4, #8]
}
   b8f8c:	bd38      	pop	{r3, r4, r5, pc}
            free(buffer);
   b8f8e:	f7fe f81b 	bl	b6fc8 <free>
    buffer = rhs.buffer;
   b8f92:	6823      	ldr	r3, [r4, #0]
   b8f94:	602b      	str	r3, [r5, #0]
    capacity = rhs.capacity;
   b8f96:	6863      	ldr	r3, [r4, #4]
   b8f98:	606b      	str	r3, [r5, #4]
    len = rhs.len;
   b8f9a:	68a3      	ldr	r3, [r4, #8]
   b8f9c:	60ab      	str	r3, [r5, #8]
    rhs.buffer = nullptr;
   b8f9e:	2300      	movs	r3, #0
    rhs.capacity = 0;
   b8fa0:	e9c4 3300 	strd	r3, r3, [r4]
   b8fa4:	e7f1      	b.n	b8f8a <_ZN6String4moveERS_+0x20>

000b8fa6 <_ZN6StringC1EOS_>:
String::String(String &&rval)
   b8fa6:	b510      	push	{r4, lr}
    buffer = nullptr;
   b8fa8:	2300      	movs	r3, #0
    capacity = 0;
   b8faa:	e9c0 3300 	strd	r3, r3, [r0]
String::String(String &&rval)
   b8fae:	4604      	mov	r4, r0
    len = 0;
   b8fb0:	6083      	str	r3, [r0, #8]
    flags = 0;
   b8fb2:	7303      	strb	r3, [r0, #12]
    move(rval);
   b8fb4:	f7ff ffd9 	bl	b8f6a <_ZN6String4moveERS_>
}
   b8fb8:	4620      	mov	r0, r4
   b8fba:	bd10      	pop	{r4, pc}

000b8fbc <_ZN6StringaSERKS_>:
#endif

String & String::operator = (const String &rhs)
{
    if (this == &rhs) {
   b8fbc:	4288      	cmp	r0, r1
{
   b8fbe:	b510      	push	{r4, lr}
   b8fc0:	4604      	mov	r4, r0
    if (this == &rhs) {
   b8fc2:	d005      	beq.n	b8fd0 <_ZN6StringaSERKS_+0x14>
        return *this;
    }

    if (rhs.buffer) {
   b8fc4:	680b      	ldr	r3, [r1, #0]
   b8fc6:	b12b      	cbz	r3, b8fd4 <_ZN6StringaSERKS_+0x18>
        copy(rhs.buffer, rhs.len);
   b8fc8:	688a      	ldr	r2, [r1, #8]
   b8fca:	4619      	mov	r1, r3
   b8fcc:	f7ff ffa0 	bl	b8f10 <_ZN6String4copyEPKcj>
    else {
        invalidate();
    }

    return *this;
}
   b8fd0:	4620      	mov	r0, r4
   b8fd2:	bd10      	pop	{r4, pc}
        invalidate();
   b8fd4:	f7ff ff71 	bl	b8eba <_ZN6String10invalidateEv>
   b8fd8:	e7fa      	b.n	b8fd0 <_ZN6StringaSERKS_+0x14>

000b8fda <_ZN6StringC1ERKS_>:
String::String(const String &value)
   b8fda:	b510      	push	{r4, lr}
    buffer = nullptr;
   b8fdc:	2300      	movs	r3, #0
String::String(const String &value)
   b8fde:	4604      	mov	r4, r0
    capacity = 0;
   b8fe0:	e9c0 3300 	strd	r3, r3, [r0]
    len = 0;
   b8fe4:	6083      	str	r3, [r0, #8]
    flags = 0;
   b8fe6:	7303      	strb	r3, [r0, #12]
    *this = value;
   b8fe8:	f7ff ffe8 	bl	b8fbc <_ZN6StringaSERKS_>
}
   b8fec:	4620      	mov	r0, r4
   b8fee:	bd10      	pop	{r4, pc}

000b8ff0 <_ZN6StringaSEPKc>:
    return *this;
}
#endif

String & String::operator = (const char *cstr)
{
   b8ff0:	b513      	push	{r0, r1, r4, lr}
   b8ff2:	4604      	mov	r4, r0
    if (cstr) {
   b8ff4:	b159      	cbz	r1, b900e <_ZN6StringaSEPKc+0x1e>
        copy(cstr, strlen(cstr));
   b8ff6:	4608      	mov	r0, r1
   b8ff8:	9101      	str	r1, [sp, #4]
   b8ffa:	f000 fd4c 	bl	b9a96 <strlen>
   b8ffe:	9901      	ldr	r1, [sp, #4]
   b9000:	4602      	mov	r2, r0
   b9002:	4620      	mov	r0, r4
   b9004:	f7ff ff84 	bl	b8f10 <_ZN6String4copyEPKcj>
    else {
        invalidate();
    }

    return *this;
}
   b9008:	4620      	mov	r0, r4
   b900a:	b002      	add	sp, #8
   b900c:	bd10      	pop	{r4, pc}
        invalidate();
   b900e:	f7ff ff54 	bl	b8eba <_ZN6String10invalidateEv>
   b9012:	e7f9      	b.n	b9008 <_ZN6StringaSEPKc+0x18>

000b9014 <_ZN6String6concatEPKcj>:
{
    return concat(s.buffer, s.len);
}

unsigned char String::concat(const char *cstr, unsigned int length)
{
   b9014:	b570      	push	{r4, r5, r6, lr}
   b9016:	4605      	mov	r5, r0
    unsigned int newlen = len + length;
    if (!cstr) {
   b9018:	460e      	mov	r6, r1
   b901a:	b909      	cbnz	r1, b9020 <_ZN6String6concatEPKcj+0xc>
        return 0;
   b901c:	2000      	movs	r0, #0
        return 0;
    }
    strcpy(buffer + len, cstr);
    len = newlen;
    return 1;
}
   b901e:	bd70      	pop	{r4, r5, r6, pc}
    if (length == 0) {
   b9020:	b16a      	cbz	r2, b903e <_ZN6String6concatEPKcj+0x2a>
    unsigned int newlen = len + length;
   b9022:	6884      	ldr	r4, [r0, #8]
   b9024:	4414      	add	r4, r2
    if (!reserve(newlen)) {
   b9026:	4621      	mov	r1, r4
   b9028:	f7ff ff5e 	bl	b8ee8 <_ZN6String7reserveEj>
   b902c:	2800      	cmp	r0, #0
   b902e:	d0f5      	beq.n	b901c <_ZN6String6concatEPKcj+0x8>
    strcpy(buffer + len, cstr);
   b9030:	6828      	ldr	r0, [r5, #0]
   b9032:	68ab      	ldr	r3, [r5, #8]
   b9034:	4631      	mov	r1, r6
   b9036:	4418      	add	r0, r3
   b9038:	f000 fd07 	bl	b9a4a <strcpy>
    len = newlen;
   b903c:	60ac      	str	r4, [r5, #8]
        return 1;
   b903e:	2001      	movs	r0, #1
   b9040:	e7ed      	b.n	b901e <_ZN6String6concatEPKcj+0xa>

000b9042 <_ZN6String6concatEc>:
unsigned char String::concat(const __FlashStringHelper * str) {
    return concat(reinterpret_cast<const char*>(str));
}

unsigned char String::concat(char c)
{
   b9042:	b507      	push	{r0, r1, r2, lr}
    char buf[2] = {};
   b9044:	2300      	movs	r3, #0
   b9046:	f8ad 3004 	strh.w	r3, [sp, #4]
    buf[0] = c;
    buf[1] = 0;
    return concat(buf, 1);
   b904a:	2201      	movs	r2, #1
    buf[0] = c;
   b904c:	f88d 1004 	strb.w	r1, [sp, #4]
    return concat(buf, 1);
   b9050:	a901      	add	r1, sp, #4
   b9052:	f7ff ffdf 	bl	b9014 <_ZN6String6concatEPKcj>
}
   b9056:	b003      	add	sp, #12
   b9058:	f85d fb04 	ldr.w	pc, [sp], #4

000b905c <_ZNK6String6equalsEPKc>:
{
    return (len == s2.len && compareTo(s2) == 0);
}

unsigned char String::equals(const char *cstr) const
{
   b905c:	b508      	push	{r3, lr}
    if (len == 0) {
   b905e:	6882      	ldr	r2, [r0, #8]
   b9060:	b93a      	cbnz	r2, b9072 <_ZNK6String6equalsEPKc+0x16>
        return (cstr == nullptr || *cstr == 0);
   b9062:	b121      	cbz	r1, b906e <_ZNK6String6equalsEPKc+0x12>
   b9064:	7808      	ldrb	r0, [r1, #0]
    }
    if (cstr == nullptr) {
        return buffer[0] == 0;
    }
    return strcmp(buffer, cstr) == 0;
   b9066:	fab0 f080 	clz	r0, r0
   b906a:	0940      	lsrs	r0, r0, #5
   b906c:	e000      	b.n	b9070 <_ZNK6String6equalsEPKc+0x14>
        return (cstr == nullptr || *cstr == 0);
   b906e:	2001      	movs	r0, #1
}
   b9070:	bd08      	pop	{r3, pc}
        return buffer[0] == 0;
   b9072:	6800      	ldr	r0, [r0, #0]
    if (cstr == nullptr) {
   b9074:	b909      	cbnz	r1, b907a <_ZNK6String6equalsEPKc+0x1e>
        return buffer[0] == 0;
   b9076:	7800      	ldrb	r0, [r0, #0]
   b9078:	e7f5      	b.n	b9066 <_ZNK6String6equalsEPKc+0xa>
    return strcmp(buffer, cstr) == 0;
   b907a:	f000 fcdc 	bl	b9a36 <strcmp>
   b907e:	e7f2      	b.n	b9066 <_ZNK6String6equalsEPKc+0xa>

000b9080 <_GLOBAL__sub_I_System>:
} // namespace particle

// particle::Flag<TagT, ValueT>
template<typename TagT, typename ValueT>
inline particle::Flag<TagT, ValueT>::Flag(ValueT val) :
        val_(val) {
   b9080:	4b05      	ldr	r3, [pc, #20]	; (b9098 <_GLOBAL__sub_I_System+0x18>)
   b9082:	2202      	movs	r2, #2
   b9084:	601a      	str	r2, [r3, #0]

class SystemSleepResult {
public:
    SystemSleepResult()
            : wakeupSource_(nullptr),
              error_(SYSTEM_ERROR_NONE) {
   b9086:	4b05      	ldr	r3, [pc, #20]	; (b909c <_GLOBAL__sub_I_System+0x1c>)
    SleepResult() {}
   b9088:	4a05      	ldr	r2, [pc, #20]	; (b90a0 <_GLOBAL__sub_I_System+0x20>)
   b908a:	609a      	str	r2, [r3, #8]
              error_(SYSTEM_ERROR_NONE) {
   b908c:	2000      	movs	r0, #0
   b908e:	e9c3 0000 	strd	r0, r0, [r3]

class SystemClass {
public:

    SystemClass(System_Mode_TypeDef mode = DEFAULT) {
        set_system_mode(mode);
   b9092:	f7fd becd 	b.w	b6e30 <set_system_mode>
   b9096:	bf00      	nop
   b9098:	2003e700 	.word	0x2003e700
   b909c:	2003e6f4 	.word	0x2003e6f4
   b90a0:	ffff0000 	.word	0xffff0000

000b90a4 <_ZN10CloudClass12syncTimeDoneEv.isra.0>:
    bool syncTimeDone(void)
   b90a4:	b508      	push	{r3, lr}
        return !spark_sync_time_pending(nullptr) || disconnected();
   b90a6:	2000      	movs	r0, #0
   b90a8:	f7fd ff16 	bl	b6ed8 <spark_sync_time_pending>
   b90ac:	b128      	cbz	r0, b90ba <_ZN10CloudClass12syncTimeDoneEv.isra.0+0x16>
    static bool connected(void) { return spark_cloud_flag_connected(); }
   b90ae:	f7fd ff03 	bl	b6eb8 <spark_cloud_flag_connected>
        return !spark_sync_time_pending(nullptr) || disconnected();
   b90b2:	f080 0001 	eor.w	r0, r0, #1
   b90b6:	b2c0      	uxtb	r0, r0
    }
   b90b8:	bd08      	pop	{r3, pc}
        return !spark_sync_time_pending(nullptr) || disconnected();
   b90ba:	2001      	movs	r0, #1
   b90bc:	e7fc      	b.n	b90b8 <_ZN10CloudClass12syncTimeDoneEv.isra.0+0x14>

000b90be <_ZN9TimeClass7isValidEv>:
    strftime(buf, sizeof(buf), format_str, calendar_time);
    return String(buf);
}

bool TimeClass::isValid()
{
   b90be:	b510      	push	{r4, lr}
    bool rtcstate = hal_rtc_time_is_valid(nullptr);
   b90c0:	2000      	movs	r0, #0
   b90c2:	f7fd fd6d 	bl	b6ba0 <hal_rtc_time_is_valid>
    if (rtcstate)
   b90c6:	4604      	mov	r4, r0
   b90c8:	b9a0      	cbnz	r0, b90f4 <_ZN9TimeClass7isValidEv+0x36>
    }

    static System_Mode_TypeDef mode(void) {
        return system_mode();
   b90ca:	f7fd fea9 	bl	b6e20 <system_mode>
        return rtcstate;
    if (System.mode() == AUTOMATIC && system_thread_get_state(nullptr) == spark::feature::DISABLED)
   b90ce:	2801      	cmp	r0, #1
   b90d0:	d110      	bne.n	b90f4 <_ZN9TimeClass7isValidEv+0x36>
   b90d2:	4620      	mov	r0, r4
   b90d4:	f7fd fecc 	bl	b6e70 <system_thread_get_state>
   b90d8:	b960      	cbnz	r0, b90f4 <_ZN9TimeClass7isValidEv+0x36>
    {
        waitUntil(Particle.syncTimeDone);
   b90da:	f7ff ffe3 	bl	b90a4 <_ZN10CloudClass12syncTimeDoneEv.isra.0>

    static uint32_t freeMemory();

    template<typename Condition, typename While>
    static bool waitConditionWhile(Condition _condition, While _while) {
        while (_while() && !_condition()) {
   b90de:	b910      	cbnz	r0, b90e6 <_ZN9TimeClass7isValidEv+0x28>
            spark_process();
   b90e0:	f7fd fee2 	bl	b6ea8 <spark_process>
        while (_while() && !_condition()) {
   b90e4:	e7f9      	b.n	b90da <_ZN9TimeClass7isValidEv+0x1c>
   b90e6:	f7ff ffdd 	bl	b90a4 <_ZN10CloudClass12syncTimeDoneEv.isra.0>
        return hal_rtc_time_is_valid(nullptr);
    }
    return rtcstate;
}
   b90ea:	e8bd 4010 	ldmia.w	sp!, {r4, lr}
        return hal_rtc_time_is_valid(nullptr);
   b90ee:	2000      	movs	r0, #0
   b90f0:	f7fd bd56 	b.w	b6ba0 <hal_rtc_time_is_valid>
}
   b90f4:	4620      	mov	r0, r4
   b90f6:	bd10      	pop	{r4, pc}

000b90f8 <_ZN9TimeClass3nowEv>:
{
   b90f8:	b51f      	push	{r0, r1, r2, r3, r4, lr}
    (void)isValid();
   b90fa:	f7ff ffe0 	bl	b90be <_ZN9TimeClass7isValidEv>
    struct timeval tv = {};
   b90fe:	2210      	movs	r2, #16
   b9100:	2100      	movs	r1, #0
   b9102:	4668      	mov	r0, sp
   b9104:	f000 fc0c 	bl	b9920 <memset>
    hal_rtc_get_time(&tv, nullptr);
   b9108:	2100      	movs	r1, #0
   b910a:	4668      	mov	r0, sp
   b910c:	f7fd fd50 	bl	b6bb0 <hal_rtc_get_time>
}
   b9110:	9800      	ldr	r0, [sp, #0]
   b9112:	b005      	add	sp, #20
   b9114:	f85d fb04 	ldr.w	pc, [sp], #4

000b9118 <_GLOBAL__sub_I_TIME_FORMAT_DEFAULT>:
const char* TimeClass::format_spec = TIME_FORMAT_DEFAULT;
   b9118:	4b02      	ldr	r3, [pc, #8]	; (b9124 <_GLOBAL__sub_I_TIME_FORMAT_DEFAULT+0xc>)
   b911a:	681a      	ldr	r2, [r3, #0]
   b911c:	4b02      	ldr	r3, [pc, #8]	; (b9128 <_GLOBAL__sub_I_TIME_FORMAT_DEFAULT+0x10>)
   b911e:	601a      	str	r2, [r3, #0]
{
  return isValid();
}


TimeClass Time;
   b9120:	4770      	bx	lr
   b9122:	bf00      	nop
   b9124:	2003b6d0 	.word	0x2003b6d0
   b9128:	2003e704 	.word	0x2003e704

000b912c <_ZN11USARTSerialD1Ev>:
private:
  hal_usart_interface_t _serial;
  bool _blocking;
public:
  USARTSerial(hal_usart_interface_t serial, const hal_usart_buffer_config_t& config);
  virtual ~USARTSerial() {};
   b912c:	4770      	bx	lr

000b912e <_ZN11USARTSerial14blockOnOverrunEb>:
    hal_usart_half_duplex(_serial, Enable);
}

void USARTSerial::blockOnOverrun(bool block)
{
  _blocking = block;
   b912e:	7441      	strb	r1, [r0, #17]
}
   b9130:	4770      	bx	lr

000b9132 <_ZN11USARTSerial17availableForWriteEv>:


int USARTSerial::availableForWrite(void)
{
   b9132:	b508      	push	{r3, lr}
  return std::max(0, (int)hal_usart_available_data_for_write(_serial));
   b9134:	7c00      	ldrb	r0, [r0, #16]
   b9136:	f7fd fdeb 	bl	b6d10 <hal_usart_available_data_for_write>
}
   b913a:	ea20 70e0 	bic.w	r0, r0, r0, asr #31
   b913e:	bd08      	pop	{r3, pc}

000b9140 <_ZN11USARTSerial9availableEv>:

int USARTSerial::available(void)
{
   b9140:	b508      	push	{r3, lr}
  return std::max(0, (int)hal_usart_available(_serial));
   b9142:	7c00      	ldrb	r0, [r0, #16]
   b9144:	f7fd fdc4 	bl	b6cd0 <hal_usart_available>
}
   b9148:	ea20 70e0 	bic.w	r0, r0, r0, asr #31
   b914c:	bd08      	pop	{r3, pc}

000b914e <_ZN11USARTSerial4peekEv>:

int USARTSerial::peek(void)
{
   b914e:	b508      	push	{r3, lr}
  return std::max(-1, (int)hal_usart_peek(_serial));
   b9150:	7c00      	ldrb	r0, [r0, #16]
   b9152:	f7fd fdcd 	bl	b6cf0 <hal_usart_peek>
}
   b9156:	ea40 70e0 	orr.w	r0, r0, r0, asr #31
   b915a:	bd08      	pop	{r3, pc}

000b915c <_ZN11USARTSerial4readEv>:

int USARTSerial::read(void)
{
   b915c:	b508      	push	{r3, lr}
  return std::max(-1, (int)hal_usart_read(_serial));
   b915e:	7c00      	ldrb	r0, [r0, #16]
   b9160:	f7fd fdbe 	bl	b6ce0 <hal_usart_read>
}
   b9164:	ea40 70e0 	orr.w	r0, r0, r0, asr #31
   b9168:	bd08      	pop	{r3, pc}

000b916a <_ZN11USARTSerial5flushEv>:

void USARTSerial::flush()
{
  hal_usart_flush(_serial);
   b916a:	7c00      	ldrb	r0, [r0, #16]
   b916c:	f7fd bdc8 	b.w	b6d00 <hal_usart_flush>

000b9170 <_ZN11USARTSerial5writeEh>:
}

size_t USARTSerial::write(uint8_t c)
{
   b9170:	b537      	push	{r0, r1, r2, r4, r5, lr}
  // attempt a write if blocking, or for non-blocking if there is room.
  if (_blocking || hal_usart_available_data_for_write(_serial) > 0) {
   b9172:	7c45      	ldrb	r5, [r0, #17]
{
   b9174:	4604      	mov	r4, r0
  if (_blocking || hal_usart_available_data_for_write(_serial) > 0) {
   b9176:	b12d      	cbz	r5, b9184 <_ZN11USARTSerial5writeEh+0x14>
    // the HAL always blocks.
	  return hal_usart_write(_serial, c);
   b9178:	7c20      	ldrb	r0, [r4, #16]
  }
  return 0;
}
   b917a:	b003      	add	sp, #12
   b917c:	e8bd 4030 	ldmia.w	sp!, {r4, r5, lr}
	  return hal_usart_write(_serial, c);
   b9180:	f7fd bd9e 	b.w	b6cc0 <hal_usart_write>
  if (_blocking || hal_usart_available_data_for_write(_serial) > 0) {
   b9184:	7c00      	ldrb	r0, [r0, #16]
   b9186:	9101      	str	r1, [sp, #4]
   b9188:	f7fd fdc2 	bl	b6d10 <hal_usart_available_data_for_write>
   b918c:	2800      	cmp	r0, #0
   b918e:	9901      	ldr	r1, [sp, #4]
   b9190:	dcf2      	bgt.n	b9178 <_ZN11USARTSerial5writeEh+0x8>
}
   b9192:	4628      	mov	r0, r5
   b9194:	b003      	add	sp, #12
   b9196:	bd30      	pop	{r4, r5, pc}

000b9198 <_ZN11USARTSerialD0Ev>:
   b9198:	b510      	push	{r4, lr}
   b919a:	2114      	movs	r1, #20
   b919c:	4604      	mov	r4, r0
   b919e:	f7fa ff7c 	bl	b409a <_ZdlPvj>
   b91a2:	4620      	mov	r0, r4
   b91a4:	bd10      	pop	{r4, pc}
	...

000b91a8 <_ZN11USARTSerialC1E21hal_usart_interface_tRK25hal_usart_buffer_config_t>:
USARTSerial::USARTSerial(hal_usart_interface_t serial, const hal_usart_buffer_config_t& config)
   b91a8:	b510      	push	{r4, lr}
   b91aa:	f44f 737a 	mov.w	r3, #1000	; 0x3e8
   b91ae:	4604      	mov	r4, r0
   b91b0:	4608      	mov	r0, r1
   b91b2:	4611      	mov	r1, r2
   b91b4:	2200      	movs	r2, #0
   b91b6:	e9c4 2301 	strd	r2, r3, [r4, #4]
   b91ba:	4b04      	ldr	r3, [pc, #16]	; (b91cc <_ZN11USARTSerialC1E21hal_usart_interface_tRK25hal_usart_buffer_config_t+0x24>)
   b91bc:	6023      	str	r3, [r4, #0]
  _blocking = true;
   b91be:	2301      	movs	r3, #1
  _serial = serial;
   b91c0:	7420      	strb	r0, [r4, #16]
  _blocking = true;
   b91c2:	7463      	strb	r3, [r4, #17]
  hal_usart_init_ex(serial, &config, nullptr);
   b91c4:	f7fd fdb4 	bl	b6d30 <hal_usart_init_ex>
}
   b91c8:	4620      	mov	r0, r4
   b91ca:	bd10      	pop	{r4, pc}
   b91cc:	000badb4 	.word	0x000badb4

000b91d0 <_ZN11USARTSerial5beginEmm>:
  hal_usart_begin_config(_serial, baud, config, nullptr);
   b91d0:	7c00      	ldrb	r0, [r0, #16]
   b91d2:	2300      	movs	r3, #0
   b91d4:	f7fd bda4 	b.w	b6d20 <hal_usart_begin_config>

000b91d8 <_ZN11USARTSerial5beginEm>:
  begin(baud, SERIAL_8N1);
   b91d8:	2200      	movs	r2, #0
   b91da:	f7ff bff9 	b.w	b91d0 <_ZN11USARTSerial5beginEmm>

000b91de <_ZN11USARTSerial3endEv>:
  hal_usart_end(_serial);
   b91de:	7c00      	ldrb	r0, [r0, #16]
   b91e0:	f7fd bd66 	b.w	b6cb0 <hal_usart_end>

000b91e4 <_ZN9USBSerial14blockOnOverrunEb>:
  HAL_USB_USART_Flush_Data(_serial);
}

void USBSerial::blockOnOverrun(bool block)
{
  _blocking = block;
   b91e4:	7441      	strb	r1, [r0, #17]
}
   b91e6:	4770      	bx	lr

000b91e8 <__tcf_0>:
}

USBSerial& _fetch_usbserial()
{
  HAL_USB_USART_Config conf = acquireSerialBuffer();
	static USBSerial _usbserial(HAL_USB_USART_SERIAL, conf);
   b91e8:	4770      	bx	lr

000b91ea <_ZN9USBSerialD1Ev>:
#include "usb_hal.h"
#include "system_task.h"
#include "spark_wiring_startup.h"
#include "concurrent_hal.h"

class USBSerial : public Stream
   b91ea:	4770      	bx	lr

000b91ec <_ZN9USBSerial4readEv>:
{
   b91ec:	b508      	push	{r3, lr}
	return std::max(-1, (int)HAL_USB_USART_Receive_Data(_serial, false));
   b91ee:	2100      	movs	r1, #0
   b91f0:	7c00      	ldrb	r0, [r0, #16]
   b91f2:	f7fd fdcd 	bl	b6d90 <HAL_USB_USART_Receive_Data>
}
   b91f6:	ea40 70e0 	orr.w	r0, r0, r0, asr #31
   b91fa:	bd08      	pop	{r3, pc}

000b91fc <_ZN9USBSerial4peekEv>:
{
   b91fc:	b508      	push	{r3, lr}
	return std::max(-1, (int)HAL_USB_USART_Receive_Data(_serial, true));
   b91fe:	2101      	movs	r1, #1
   b9200:	7c00      	ldrb	r0, [r0, #16]
   b9202:	f7fd fdc5 	bl	b6d90 <HAL_USB_USART_Receive_Data>
}
   b9206:	ea40 70e0 	orr.w	r0, r0, r0, asr #31
   b920a:	bd08      	pop	{r3, pc}

000b920c <_ZN9USBSerial17availableForWriteEv>:
{
   b920c:	b508      	push	{r3, lr}
  return std::max(0, (int)HAL_USB_USART_Available_Data_For_Write(_serial));
   b920e:	7c00      	ldrb	r0, [r0, #16]
   b9210:	f7fd fdb6 	bl	b6d80 <HAL_USB_USART_Available_Data_For_Write>
}
   b9214:	ea20 70e0 	bic.w	r0, r0, r0, asr #31
   b9218:	bd08      	pop	{r3, pc}

000b921a <_ZN9USBSerial9availableEv>:
{
   b921a:	b508      	push	{r3, lr}
	return std::max(0, (int)HAL_USB_USART_Available_Data(_serial));
   b921c:	7c00      	ldrb	r0, [r0, #16]
   b921e:	f7fd fda7 	bl	b6d70 <HAL_USB_USART_Available_Data>
}
   b9222:	ea20 70e0 	bic.w	r0, r0, r0, asr #31
   b9226:	bd08      	pop	{r3, pc}

000b9228 <_ZN9USBSerial5writeEh>:
{
   b9228:	b513      	push	{r0, r1, r4, lr}
   b922a:	4604      	mov	r4, r0
  if (HAL_USB_USART_Available_Data_For_Write(_serial) > 0 || _blocking) {
   b922c:	7c00      	ldrb	r0, [r0, #16]
{
   b922e:	9101      	str	r1, [sp, #4]
  if (HAL_USB_USART_Available_Data_For_Write(_serial) > 0 || _blocking) {
   b9230:	f7fd fda6 	bl	b6d80 <HAL_USB_USART_Available_Data_For_Write>
   b9234:	2800      	cmp	r0, #0
   b9236:	9901      	ldr	r1, [sp, #4]
   b9238:	dc01      	bgt.n	b923e <_ZN9USBSerial5writeEh+0x16>
   b923a:	7c60      	ldrb	r0, [r4, #17]
   b923c:	b120      	cbz	r0, b9248 <_ZN9USBSerial5writeEh+0x20>
    return std::max(0, (int)HAL_USB_USART_Send_Data(_serial, byte));
   b923e:	7c20      	ldrb	r0, [r4, #16]
   b9240:	f7fd fdae 	bl	b6da0 <HAL_USB_USART_Send_Data>
   b9244:	ea20 70e0 	bic.w	r0, r0, r0, asr #31
}
   b9248:	b002      	add	sp, #8
   b924a:	bd10      	pop	{r4, pc}

000b924c <_ZN9USBSerial5flushEv>:
  HAL_USB_USART_Flush_Data(_serial);
   b924c:	7c00      	ldrb	r0, [r0, #16]
   b924e:	f7fd bdaf 	b.w	b6db0 <HAL_USB_USART_Flush_Data>

000b9252 <_ZN9USBSerialD0Ev>:
   b9252:	b510      	push	{r4, lr}
   b9254:	2114      	movs	r1, #20
   b9256:	4604      	mov	r4, r0
   b9258:	f7fa ff1f 	bl	b409a <_ZdlPvj>
   b925c:	4620      	mov	r0, r4
   b925e:	bd10      	pop	{r4, pc}

000b9260 <_ZN9USBSerialC1E20HAL_USB_USART_SerialRK20HAL_USB_USART_Config>:
USBSerial::USBSerial(HAL_USB_USART_Serial serial, const HAL_USB_USART_Config& conf)
   b9260:	b510      	push	{r4, lr}
   b9262:	f44f 737a 	mov.w	r3, #1000	; 0x3e8
   b9266:	4604      	mov	r4, r0
   b9268:	4608      	mov	r0, r1
   b926a:	2100      	movs	r1, #0
   b926c:	e9c4 1301 	strd	r1, r3, [r4, #4]
   b9270:	4b04      	ldr	r3, [pc, #16]	; (b9284 <_ZN9USBSerialC1E20HAL_USB_USART_SerialRK20HAL_USB_USART_Config+0x24>)
   b9272:	6023      	str	r3, [r4, #0]
  _blocking = true;
   b9274:	2301      	movs	r3, #1
  _serial = serial;
   b9276:	7420      	strb	r0, [r4, #16]
  _blocking = true;
   b9278:	7463      	strb	r3, [r4, #17]
  HAL_USB_USART_Init(_serial, &conf);
   b927a:	4611      	mov	r1, r2
   b927c:	f7fd fd60 	bl	b6d40 <HAL_USB_USART_Init>
}
   b9280:	4620      	mov	r0, r4
   b9282:	bd10      	pop	{r4, pc}
   b9284:	000bade4 	.word	0x000bade4

000b9288 <_ZN9USBSerial5beginEl>:
    HAL_USB_USART_Begin(_serial, speed, NULL);
   b9288:	7c00      	ldrb	r0, [r0, #16]
   b928a:	2200      	movs	r2, #0
   b928c:	f7fd bd60 	b.w	b6d50 <HAL_USB_USART_Begin>

000b9290 <_ZN9USBSerial3endEv>:
    HAL_USB_USART_End(_serial);
   b9290:	7c00      	ldrb	r0, [r0, #16]
   b9292:	f7fd bd65 	b.w	b6d60 <HAL_USB_USART_End>

000b9296 <_Z19acquireSerialBufferv>:
{
   b9296:	b510      	push	{r4, lr}
  HAL_USB_USART_Config conf = {};
   b9298:	2214      	movs	r2, #20
{
   b929a:	4604      	mov	r4, r0
  HAL_USB_USART_Config conf = {};
   b929c:	2100      	movs	r1, #0
   b929e:	f000 fb3f 	bl	b9920 <memset>
}
   b92a2:	4620      	mov	r0, r4
   b92a4:	bd10      	pop	{r4, pc}
	...

000b92a8 <_Z16_fetch_usbserialv>:
{
   b92a8:	b510      	push	{r4, lr}
	static USBSerial _usbserial(HAL_USB_USART_SERIAL, conf);
   b92aa:	4c0f      	ldr	r4, [pc, #60]	; (b92e8 <_Z16_fetch_usbserialv+0x40>)
{
   b92ac:	b088      	sub	sp, #32
  HAL_USB_USART_Config conf = acquireSerialBuffer();
   b92ae:	a803      	add	r0, sp, #12
   b92b0:	f7ff fff1 	bl	b9296 <_Z19acquireSerialBufferv>
	static USBSerial _usbserial(HAL_USB_USART_SERIAL, conf);
   b92b4:	7821      	ldrb	r1, [r4, #0]
   b92b6:	f3bf 8f5b 	dmb	ish
   b92ba:	f011 0101 	ands.w	r1, r1, #1
   b92be:	d10f      	bne.n	b92e0 <_Z16_fetch_usbserialv+0x38>
   b92c0:	4620      	mov	r0, r4
   b92c2:	9101      	str	r1, [sp, #4]
   b92c4:	f7fa fef8 	bl	b40b8 <__cxa_guard_acquire>
   b92c8:	9901      	ldr	r1, [sp, #4]
   b92ca:	b148      	cbz	r0, b92e0 <_Z16_fetch_usbserialv+0x38>
   b92cc:	aa03      	add	r2, sp, #12
   b92ce:	4807      	ldr	r0, [pc, #28]	; (b92ec <_Z16_fetch_usbserialv+0x44>)
   b92d0:	f7ff ffc6 	bl	b9260 <_ZN9USBSerialC1E20HAL_USB_USART_SerialRK20HAL_USB_USART_Config>
   b92d4:	4620      	mov	r0, r4
   b92d6:	f7fa fef4 	bl	b40c2 <__cxa_guard_release>
   b92da:	4805      	ldr	r0, [pc, #20]	; (b92f0 <_Z16_fetch_usbserialv+0x48>)
   b92dc:	f000 faea 	bl	b98b4 <atexit>
	return _usbserial;
}
   b92e0:	4802      	ldr	r0, [pc, #8]	; (b92ec <_Z16_fetch_usbserialv+0x44>)
   b92e2:	b008      	add	sp, #32
   b92e4:	bd10      	pop	{r4, pc}
   b92e6:	bf00      	nop
   b92e8:	2003e708 	.word	0x2003e708
   b92ec:	2003e70c 	.word	0x2003e70c
   b92f0:	000b91e9 	.word	0x000b91e9

000b92f4 <_ZZ21module_user_init_hookENUlP6_reentjmPvE_4_FUNES0_jmS1_>:

void module_user_init_hook()
{
#if HAL_PLATFORM_NEWLIB
    newlib_impure_ptr_callback([](struct _reent* r, size_t size, uint32_t version, void* ctx) -> void {
        _impure_ptr = r;
   b92f4:	4b01      	ldr	r3, [pc, #4]	; (b92fc <_ZZ21module_user_init_hookENUlP6_reentjmPvE_4_FUNES0_jmS1_+0x8>)
   b92f6:	6018      	str	r0, [r3, #0]
    }, nullptr);
   b92f8:	4770      	bx	lr
   b92fa:	bf00      	nop
   b92fc:	2003b6d4 	.word	0x2003b6d4

000b9300 <serialEventRun>:
{
   b9300:	b508      	push	{r3, lr}
    if (serialEvent && Serial.available()>0)
   b9302:	4b0b      	ldr	r3, [pc, #44]	; (b9330 <serialEventRun+0x30>)
   b9304:	b143      	cbz	r3, b9318 <serialEventRun+0x18>
   b9306:	f7ff ffcf 	bl	b92a8 <_Z16_fetch_usbserialv>
   b930a:	6803      	ldr	r3, [r0, #0]
   b930c:	691b      	ldr	r3, [r3, #16]
   b930e:	4798      	blx	r3
   b9310:	2800      	cmp	r0, #0
   b9312:	dd01      	ble.n	b9318 <serialEventRun+0x18>
        serialEvent();
   b9314:	f3af 8000 	nop.w
    if (serialEvent1 && Serial1.available()>0)
   b9318:	4b06      	ldr	r3, [pc, #24]	; (b9334 <serialEventRun+0x34>)
   b931a:	b143      	cbz	r3, b932e <serialEventRun+0x2e>
   b931c:	f000 f8e2 	bl	b94e4 <_Z22__fetch_global_Serial1v>
   b9320:	6803      	ldr	r3, [r0, #0]
   b9322:	691b      	ldr	r3, [r3, #16]
   b9324:	4798      	blx	r3
   b9326:	2800      	cmp	r0, #0
   b9328:	dd01      	ble.n	b932e <serialEventRun+0x2e>
        serialEvent1();
   b932a:	f3af 8000 	nop.w
}
   b932e:	bd08      	pop	{r3, pc}
	...

000b9338 <_post_loop>:
{
   b9338:	b508      	push	{r3, lr}
	serialEventRun();
   b933a:	f7ff ffe1 	bl	b9300 <serialEventRun>
		return !thread || !thread->isRunning();
	}

	static inline system_tick_t current_time()
	{
		return HAL_Timer_Get_Milli_Seconds();
   b933e:	f7fd fc27 	bl	b6b90 <HAL_Timer_Get_Milli_Seconds>
	/**
	 * Lifesign that the application is still working normally.
	 */
	static void checkin()
	{
		last_checkin = current_time();
   b9342:	4b01      	ldr	r3, [pc, #4]	; (b9348 <_post_loop+0x10>)
   b9344:	6018      	str	r0, [r3, #0]
}
   b9346:	bd08      	pop	{r3, pc}
   b9348:	2003e728 	.word	0x2003e728

000b934c <_Z33system_initialize_user_backup_ramv>:
    memcpy(&link_global_retained_start, &link_global_retained_initial_values, len);
   b934c:	4805      	ldr	r0, [pc, #20]	; (b9364 <_Z33system_initialize_user_backup_ramv+0x18>)
   b934e:	4a06      	ldr	r2, [pc, #24]	; (b9368 <_Z33system_initialize_user_backup_ramv+0x1c>)
   b9350:	4906      	ldr	r1, [pc, #24]	; (b936c <_Z33system_initialize_user_backup_ramv+0x20>)
{
   b9352:	b508      	push	{r3, lr}
    memcpy(&link_global_retained_start, &link_global_retained_initial_values, len);
   b9354:	1a12      	subs	r2, r2, r0
   b9356:	f000 fabb 	bl	b98d0 <memcpy>
    __backup_sram_signature = signature;
   b935a:	4b05      	ldr	r3, [pc, #20]	; (b9370 <_Z33system_initialize_user_backup_ramv+0x24>)
   b935c:	4a05      	ldr	r2, [pc, #20]	; (b9374 <_Z33system_initialize_user_backup_ramv+0x28>)
   b935e:	601a      	str	r2, [r3, #0]
}
   b9360:	bd08      	pop	{r3, pc}
   b9362:	bf00      	nop
   b9364:	2003f400 	.word	0x2003f400
   b9368:	2003f404 	.word	0x2003f404
   b936c:	000bafd4 	.word	0x000bafd4
   b9370:	2003f400 	.word	0x2003f400
   b9374:	9a271c1e 	.word	0x9a271c1e

000b9378 <_Z27ctrl_request_custom_handlerP12ctrl_request>:
void __attribute((weak)) ctrl_request_custom_handler(ctrl_request* req) {
   b9378:	b507      	push	{r0, r1, r2, lr}
    system_ctrl_set_result(req, SYSTEM_ERROR_NOT_SUPPORTED, nullptr, nullptr, nullptr);
   b937a:	2300      	movs	r3, #0
   b937c:	9300      	str	r3, [sp, #0]
   b937e:	461a      	mov	r2, r3
   b9380:	f06f 0177 	mvn.w	r1, #119	; 0x77
   b9384:	f7fd fd86 	bl	b6e94 <system_ctrl_set_result>
}
   b9388:	b003      	add	sp, #12
   b938a:	f85d fb04 	ldr.w	pc, [sp], #4
	...

000b9390 <_ZL20ctrl_request_handlerP12ctrl_request>:
static void ctrl_request_handler(ctrl_request* req) {
   b9390:	b507      	push	{r0, r1, r2, lr}
    switch (req->type) {
   b9392:	8843      	ldrh	r3, [r0, #2]
   b9394:	2b0a      	cmp	r3, #10
   b9396:	d008      	beq.n	b93aa <_ZL20ctrl_request_handlerP12ctrl_request+0x1a>
   b9398:	2b50      	cmp	r3, #80	; 0x50
   b939a:	d10b      	bne.n	b93b4 <_ZL20ctrl_request_handlerP12ctrl_request+0x24>
        if (log_process_ctrl_request_callback) {
   b939c:	4b09      	ldr	r3, [pc, #36]	; (b93c4 <_ZL20ctrl_request_handlerP12ctrl_request+0x34>)
   b939e:	681b      	ldr	r3, [r3, #0]
   b93a0:	b14b      	cbz	r3, b93b6 <_ZL20ctrl_request_handlerP12ctrl_request+0x26>
}
   b93a2:	b003      	add	sp, #12
   b93a4:	f85d eb04 	ldr.w	lr, [sp], #4
            log_process_ctrl_request_callback(req);
   b93a8:	4718      	bx	r3
        ctrl_request_custom_handler(req);
   b93aa:	f7ff ffe5 	bl	b9378 <_Z27ctrl_request_custom_handlerP12ctrl_request>
}
   b93ae:	b003      	add	sp, #12
   b93b0:	f85d fb04 	ldr.w	pc, [sp], #4
        system_ctrl_set_result(req, SYSTEM_ERROR_NOT_SUPPORTED, nullptr, nullptr, nullptr);
   b93b4:	2300      	movs	r3, #0
   b93b6:	9300      	str	r3, [sp, #0]
   b93b8:	461a      	mov	r2, r3
   b93ba:	f06f 0177 	mvn.w	r1, #119	; 0x77
   b93be:	f7fd fd69 	bl	b6e94 <system_ctrl_set_result>
}
   b93c2:	e7f4      	b.n	b93ae <_ZL20ctrl_request_handlerP12ctrl_request+0x1e>
   b93c4:	2003e724 	.word	0x2003e724

000b93c8 <module_user_init_hook>:
{
   b93c8:	b510      	push	{r4, lr}
    newlib_impure_ptr_callback([](struct _reent* r, size_t size, uint32_t version, void* ctx) -> void {
   b93ca:	4812      	ldr	r0, [pc, #72]	; (b9414 <module_user_init_hook+0x4c>)
   b93cc:	2100      	movs	r1, #0
   b93ce:	f7fd fe4b 	bl	b7068 <newlib_impure_ptr_callback>
#endif // HAL_PLATFORM_NEWLIB

#if HAL_PLATFORM_BACKUP_RAM
    backup_ram_was_valid_ = __backup_sram_signature == signature;
   b93d2:	4b11      	ldr	r3, [pc, #68]	; (b9418 <module_user_init_hook+0x50>)
   b93d4:	681a      	ldr	r2, [r3, #0]
   b93d6:	4b11      	ldr	r3, [pc, #68]	; (b941c <module_user_init_hook+0x54>)
   b93d8:	429a      	cmp	r2, r3
   b93da:	4b11      	ldr	r3, [pc, #68]	; (b9420 <module_user_init_hook+0x58>)
   b93dc:	bf0c      	ite	eq
   b93de:	2201      	moveq	r2, #1
   b93e0:	2200      	movne	r2, #0
   b93e2:	701a      	strb	r2, [r3, #0]
    if (!backup_ram_was_valid_) {
   b93e4:	d001      	beq.n	b93ea <module_user_init_hook+0x22>
        system_initialize_user_backup_ram();
   b93e6:	f7ff ffb1 	bl	b934c <_Z33system_initialize_user_backup_ramv>
    }
#endif

#if HAL_PLATFORM_RNG
    // Initialize the default stdlib PRNG using hardware RNG as a seed
    const uint32_t seed = HAL_RNG_GetRandomNumber();
   b93ea:	f7fd fbc1 	bl	b6b70 <HAL_RNG_GetRandomNumber>
   b93ee:	4604      	mov	r4, r0
    srand(seed);
   b93f0:	f000 fa9e 	bl	b9930 <srand>

    // If the user defines random_seed_from_cloud, call it with a seed value
    // generated by a hardware RNG as well.
    if (random_seed_from_cloud) {
   b93f4:	4b0b      	ldr	r3, [pc, #44]	; (b9424 <module_user_init_hook+0x5c>)
   b93f6:	b113      	cbz	r3, b93fe <module_user_init_hook+0x36>
        random_seed_from_cloud(seed);
   b93f8:	4620      	mov	r0, r4
   b93fa:	f3af 8000 	nop.w
    }
#endif
    // Register the random_seed_from_cloud handler
    spark_set_random_seed_from_cloud_handler(&random_seed_from_cloud, nullptr);
   b93fe:	2100      	movs	r1, #0
   b9400:	4808      	ldr	r0, [pc, #32]	; (b9424 <module_user_init_hook+0x5c>)
   b9402:	f7fd fd71 	bl	b6ee8 <spark_set_random_seed_from_cloud_handler>

    // Register application handler for the control requests
    system_ctrl_set_app_request_handler(ctrl_request_handler, nullptr);
}
   b9406:	e8bd 4010 	ldmia.w	sp!, {r4, lr}
    system_ctrl_set_app_request_handler(ctrl_request_handler, nullptr);
   b940a:	4807      	ldr	r0, [pc, #28]	; (b9428 <module_user_init_hook+0x60>)
   b940c:	2100      	movs	r1, #0
   b940e:	f7fd bd37 	b.w	b6e80 <system_ctrl_set_app_request_handler>
   b9412:	bf00      	nop
   b9414:	000b92f5 	.word	0x000b92f5
   b9418:	2003f400 	.word	0x2003f400
   b941c:	9a271c1e 	.word	0x9a271c1e
   b9420:	2003e720 	.word	0x2003e720
   b9424:	00000000 	.word	0x00000000
   b9428:	000b9391 	.word	0x000b9391

000b942c <__tcf_0>:
}
#endif

TwoWire& __fetch_global_Wire()
{
	static TwoWire wire(HAL_I2C_INTERFACE1, acquireWireBuffer());
   b942c:	4770      	bx	lr
	...

000b9430 <_Z17acquireWireBufferv>:
{
   b9430:	b538      	push	{r3, r4, r5, lr}
	hal_i2c_config_t config = {
   b9432:	4b0a      	ldr	r3, [pc, #40]	; (b945c <_Z17acquireWireBufferv+0x2c>)
   b9434:	6003      	str	r3, [r0, #0]
   b9436:	2301      	movs	r3, #1
{
   b9438:	4604      	mov	r4, r0
	hal_i2c_config_t config = {
   b943a:	6143      	str	r3, [r0, #20]
		.rx_buffer = new (std::nothrow) uint8_t[i2c_buffer_size],
   b943c:	4908      	ldr	r1, [pc, #32]	; (b9460 <_Z17acquireWireBufferv+0x30>)
   b943e:	2020      	movs	r0, #32
   b9440:	f000 f876 	bl	b9530 <_ZnajRKSt9nothrow_t>
	};
   b9444:	2520      	movs	r5, #32
   b9446:	6060      	str	r0, [r4, #4]
		.tx_buffer = new (std::nothrow) uint8_t[i2c_buffer_size],
   b9448:	4905      	ldr	r1, [pc, #20]	; (b9460 <_Z17acquireWireBufferv+0x30>)
	};
   b944a:	60a5      	str	r5, [r4, #8]
		.tx_buffer = new (std::nothrow) uint8_t[i2c_buffer_size],
   b944c:	4628      	mov	r0, r5
   b944e:	f000 f86f 	bl	b9530 <_ZnajRKSt9nothrow_t>
	};
   b9452:	e9c4 0503 	strd	r0, r5, [r4, #12]
}
   b9456:	4620      	mov	r0, r4
   b9458:	bd38      	pop	{r3, r4, r5, pc}
   b945a:	bf00      	nop
   b945c:	00010018 	.word	0x00010018
   b9460:	000bae0c 	.word	0x000bae0c

000b9464 <_Z19__fetch_global_Wirev>:
{
   b9464:	b530      	push	{r4, r5, lr}
	static TwoWire wire(HAL_I2C_INTERFACE1, acquireWireBuffer());
   b9466:	4d0e      	ldr	r5, [pc, #56]	; (b94a0 <_Z19__fetch_global_Wirev+0x3c>)
   b9468:	7829      	ldrb	r1, [r5, #0]
   b946a:	f3bf 8f5b 	dmb	ish
   b946e:	f011 0401 	ands.w	r4, r1, #1
{
   b9472:	b087      	sub	sp, #28
	static TwoWire wire(HAL_I2C_INTERFACE1, acquireWireBuffer());
   b9474:	d111      	bne.n	b949a <_Z19__fetch_global_Wirev+0x36>
   b9476:	4628      	mov	r0, r5
   b9478:	f7fa fe1e 	bl	b40b8 <__cxa_guard_acquire>
   b947c:	b168      	cbz	r0, b949a <_Z19__fetch_global_Wirev+0x36>
   b947e:	4668      	mov	r0, sp
   b9480:	f7ff ffd6 	bl	b9430 <_Z17acquireWireBufferv>
   b9484:	466a      	mov	r2, sp
   b9486:	4621      	mov	r1, r4
   b9488:	4806      	ldr	r0, [pc, #24]	; (b94a4 <_Z19__fetch_global_Wirev+0x40>)
   b948a:	f7fe f9a3 	bl	b77d4 <_ZN7TwoWireC1E19hal_i2c_interface_tRK16hal_i2c_config_t>
   b948e:	4628      	mov	r0, r5
   b9490:	f7fa fe17 	bl	b40c2 <__cxa_guard_release>
   b9494:	4804      	ldr	r0, [pc, #16]	; (b94a8 <_Z19__fetch_global_Wirev+0x44>)
   b9496:	f000 fa0d 	bl	b98b4 <atexit>
	return wire;
}
   b949a:	4802      	ldr	r0, [pc, #8]	; (b94a4 <_Z19__fetch_global_Wirev+0x40>)
   b949c:	b007      	add	sp, #28
   b949e:	bd30      	pop	{r4, r5, pc}
   b94a0:	2003e72c 	.word	0x2003e72c
   b94a4:	2003e730 	.word	0x2003e730
   b94a8:	000b942d 	.word	0x000b942d

000b94ac <__tcf_0>:
}
#endif

USARTSerial& __fetch_global_Serial1()
{
    static USARTSerial serial1(HAL_USART_SERIAL1, acquireSerial1Buffer());
   b94ac:	4770      	bx	lr
	...

000b94b0 <_Z20acquireSerial1Bufferv>:
{
   b94b0:	b538      	push	{r3, r4, r5, lr}
   b94b2:	4604      	mov	r4, r0
    hal_usart_buffer_config_t config = {
   b94b4:	2514      	movs	r5, #20
   b94b6:	462a      	mov	r2, r5
   b94b8:	2100      	movs	r1, #0
   b94ba:	f000 fa31 	bl	b9920 <memset>
   b94be:	8025      	strh	r5, [r4, #0]
   b94c0:	2540      	movs	r5, #64	; 0x40
        .rx_buffer = new (std::nothrow) uint8_t[bufferSize],
   b94c2:	4907      	ldr	r1, [pc, #28]	; (b94e0 <_Z20acquireSerial1Bufferv+0x30>)
    hal_usart_buffer_config_t config = {
   b94c4:	8125      	strh	r5, [r4, #8]
        .rx_buffer = new (std::nothrow) uint8_t[bufferSize],
   b94c6:	4628      	mov	r0, r5
    hal_usart_buffer_config_t config = {
   b94c8:	8225      	strh	r5, [r4, #16]
        .rx_buffer = new (std::nothrow) uint8_t[bufferSize],
   b94ca:	f000 f831 	bl	b9530 <_ZnajRKSt9nothrow_t>
        .tx_buffer = new (std::nothrow) uint8_t[bufferSize],
   b94ce:	4904      	ldr	r1, [pc, #16]	; (b94e0 <_Z20acquireSerial1Bufferv+0x30>)
    };
   b94d0:	6060      	str	r0, [r4, #4]
        .tx_buffer = new (std::nothrow) uint8_t[bufferSize],
   b94d2:	4628      	mov	r0, r5
   b94d4:	f000 f82c 	bl	b9530 <_ZnajRKSt9nothrow_t>
    };
   b94d8:	60e0      	str	r0, [r4, #12]
}
   b94da:	4620      	mov	r0, r4
   b94dc:	bd38      	pop	{r3, r4, r5, pc}
   b94de:	bf00      	nop
   b94e0:	000bae0c 	.word	0x000bae0c

000b94e4 <_Z22__fetch_global_Serial1v>:
{
   b94e4:	b530      	push	{r4, r5, lr}
    static USARTSerial serial1(HAL_USART_SERIAL1, acquireSerial1Buffer());
   b94e6:	4d0e      	ldr	r5, [pc, #56]	; (b9520 <_Z22__fetch_global_Serial1v+0x3c>)
   b94e8:	7829      	ldrb	r1, [r5, #0]
   b94ea:	f3bf 8f5b 	dmb	ish
   b94ee:	f011 0401 	ands.w	r4, r1, #1
{
   b94f2:	b087      	sub	sp, #28
    static USARTSerial serial1(HAL_USART_SERIAL1, acquireSerial1Buffer());
   b94f4:	d111      	bne.n	b951a <_Z22__fetch_global_Serial1v+0x36>
   b94f6:	4628      	mov	r0, r5
   b94f8:	f7fa fdde 	bl	b40b8 <__cxa_guard_acquire>
   b94fc:	b168      	cbz	r0, b951a <_Z22__fetch_global_Serial1v+0x36>
   b94fe:	a801      	add	r0, sp, #4
   b9500:	f7ff ffd6 	bl	b94b0 <_Z20acquireSerial1Bufferv>
   b9504:	aa01      	add	r2, sp, #4
   b9506:	4621      	mov	r1, r4
   b9508:	4806      	ldr	r0, [pc, #24]	; (b9524 <_Z22__fetch_global_Serial1v+0x40>)
   b950a:	f7ff fe4d 	bl	b91a8 <_ZN11USARTSerialC1E21hal_usart_interface_tRK25hal_usart_buffer_config_t>
   b950e:	4628      	mov	r0, r5
   b9510:	f7fa fdd7 	bl	b40c2 <__cxa_guard_release>
   b9514:	4804      	ldr	r0, [pc, #16]	; (b9528 <_Z22__fetch_global_Serial1v+0x44>)
   b9516:	f000 f9cd 	bl	b98b4 <atexit>
    return serial1;
}
   b951a:	4802      	ldr	r0, [pc, #8]	; (b9524 <_Z22__fetch_global_Serial1v+0x40>)
   b951c:	b007      	add	sp, #28
   b951e:	bd30      	pop	{r4, r5, pc}
   b9520:	2003e744 	.word	0x2003e744
   b9524:	2003e748 	.word	0x2003e748
   b9528:	000b94ad 	.word	0x000b94ad

000b952c <_ZnwjRKSt9nothrow_t>:
   b952c:	f7fa bdb1 	b.w	b4092 <_Znwj>

000b9530 <_ZnajRKSt9nothrow_t>:
   b9530:	f7fa bdb1 	b.w	b4096 <_Znaj>

000b9534 <_ZSt25__throw_bad_function_callv>:
   b9534:	b508      	push	{r3, lr}
   b9536:	f7fd fd77 	bl	b7028 <abort>
	...

000b953c <__aeabi_drsub>:
   b953c:	f081 4100 	eor.w	r1, r1, #2147483648	; 0x80000000
   b9540:	e002      	b.n	b9548 <__adddf3>
   b9542:	bf00      	nop

000b9544 <__aeabi_dsub>:
   b9544:	f083 4300 	eor.w	r3, r3, #2147483648	; 0x80000000

000b9548 <__adddf3>:
   b9548:	b530      	push	{r4, r5, lr}
   b954a:	ea4f 0441 	mov.w	r4, r1, lsl #1
   b954e:	ea4f 0543 	mov.w	r5, r3, lsl #1
   b9552:	ea94 0f05 	teq	r4, r5
   b9556:	bf08      	it	eq
   b9558:	ea90 0f02 	teqeq	r0, r2
   b955c:	bf1f      	itttt	ne
   b955e:	ea54 0c00 	orrsne.w	ip, r4, r0
   b9562:	ea55 0c02 	orrsne.w	ip, r5, r2
   b9566:	ea7f 5c64 	mvnsne.w	ip, r4, asr #21
   b956a:	ea7f 5c65 	mvnsne.w	ip, r5, asr #21
   b956e:	f000 80e2 	beq.w	b9736 <__adddf3+0x1ee>
   b9572:	ea4f 5454 	mov.w	r4, r4, lsr #21
   b9576:	ebd4 5555 	rsbs	r5, r4, r5, lsr #21
   b957a:	bfb8      	it	lt
   b957c:	426d      	neglt	r5, r5
   b957e:	dd0c      	ble.n	b959a <__adddf3+0x52>
   b9580:	442c      	add	r4, r5
   b9582:	ea80 0202 	eor.w	r2, r0, r2
   b9586:	ea81 0303 	eor.w	r3, r1, r3
   b958a:	ea82 0000 	eor.w	r0, r2, r0
   b958e:	ea83 0101 	eor.w	r1, r3, r1
   b9592:	ea80 0202 	eor.w	r2, r0, r2
   b9596:	ea81 0303 	eor.w	r3, r1, r3
   b959a:	2d36      	cmp	r5, #54	; 0x36
   b959c:	bf88      	it	hi
   b959e:	bd30      	pophi	{r4, r5, pc}
   b95a0:	f011 4f00 	tst.w	r1, #2147483648	; 0x80000000
   b95a4:	ea4f 3101 	mov.w	r1, r1, lsl #12
   b95a8:	f44f 1c80 	mov.w	ip, #1048576	; 0x100000
   b95ac:	ea4c 3111 	orr.w	r1, ip, r1, lsr #12
   b95b0:	d002      	beq.n	b95b8 <__adddf3+0x70>
   b95b2:	4240      	negs	r0, r0
   b95b4:	eb61 0141 	sbc.w	r1, r1, r1, lsl #1
   b95b8:	f013 4f00 	tst.w	r3, #2147483648	; 0x80000000
   b95bc:	ea4f 3303 	mov.w	r3, r3, lsl #12
   b95c0:	ea4c 3313 	orr.w	r3, ip, r3, lsr #12
   b95c4:	d002      	beq.n	b95cc <__adddf3+0x84>
   b95c6:	4252      	negs	r2, r2
   b95c8:	eb63 0343 	sbc.w	r3, r3, r3, lsl #1
   b95cc:	ea94 0f05 	teq	r4, r5
   b95d0:	f000 80a7 	beq.w	b9722 <__adddf3+0x1da>
   b95d4:	f1a4 0401 	sub.w	r4, r4, #1
   b95d8:	f1d5 0e20 	rsbs	lr, r5, #32
   b95dc:	db0d      	blt.n	b95fa <__adddf3+0xb2>
   b95de:	fa02 fc0e 	lsl.w	ip, r2, lr
   b95e2:	fa22 f205 	lsr.w	r2, r2, r5
   b95e6:	1880      	adds	r0, r0, r2
   b95e8:	f141 0100 	adc.w	r1, r1, #0
   b95ec:	fa03 f20e 	lsl.w	r2, r3, lr
   b95f0:	1880      	adds	r0, r0, r2
   b95f2:	fa43 f305 	asr.w	r3, r3, r5
   b95f6:	4159      	adcs	r1, r3
   b95f8:	e00e      	b.n	b9618 <__adddf3+0xd0>
   b95fa:	f1a5 0520 	sub.w	r5, r5, #32
   b95fe:	f10e 0e20 	add.w	lr, lr, #32
   b9602:	2a01      	cmp	r2, #1
   b9604:	fa03 fc0e 	lsl.w	ip, r3, lr
   b9608:	bf28      	it	cs
   b960a:	f04c 0c02 	orrcs.w	ip, ip, #2
   b960e:	fa43 f305 	asr.w	r3, r3, r5
   b9612:	18c0      	adds	r0, r0, r3
   b9614:	eb51 71e3 	adcs.w	r1, r1, r3, asr #31
   b9618:	f001 4500 	and.w	r5, r1, #2147483648	; 0x80000000
   b961c:	d507      	bpl.n	b962e <__adddf3+0xe6>
   b961e:	f04f 0e00 	mov.w	lr, #0
   b9622:	f1dc 0c00 	rsbs	ip, ip, #0
   b9626:	eb7e 0000 	sbcs.w	r0, lr, r0
   b962a:	eb6e 0101 	sbc.w	r1, lr, r1
   b962e:	f5b1 1f80 	cmp.w	r1, #1048576	; 0x100000
   b9632:	d31b      	bcc.n	b966c <__adddf3+0x124>
   b9634:	f5b1 1f00 	cmp.w	r1, #2097152	; 0x200000
   b9638:	d30c      	bcc.n	b9654 <__adddf3+0x10c>
   b963a:	0849      	lsrs	r1, r1, #1
   b963c:	ea5f 0030 	movs.w	r0, r0, rrx
   b9640:	ea4f 0c3c 	mov.w	ip, ip, rrx
   b9644:	f104 0401 	add.w	r4, r4, #1
   b9648:	ea4f 5244 	mov.w	r2, r4, lsl #21
   b964c:	f512 0f80 	cmn.w	r2, #4194304	; 0x400000
   b9650:	f080 809a 	bcs.w	b9788 <__adddf3+0x240>
   b9654:	f1bc 4f00 	cmp.w	ip, #2147483648	; 0x80000000
   b9658:	bf08      	it	eq
   b965a:	ea5f 0c50 	movseq.w	ip, r0, lsr #1
   b965e:	f150 0000 	adcs.w	r0, r0, #0
   b9662:	eb41 5104 	adc.w	r1, r1, r4, lsl #20
   b9666:	ea41 0105 	orr.w	r1, r1, r5
   b966a:	bd30      	pop	{r4, r5, pc}
   b966c:	ea5f 0c4c 	movs.w	ip, ip, lsl #1
   b9670:	4140      	adcs	r0, r0
   b9672:	eb41 0101 	adc.w	r1, r1, r1
   b9676:	3c01      	subs	r4, #1
   b9678:	bf28      	it	cs
   b967a:	f5b1 1f80 	cmpcs.w	r1, #1048576	; 0x100000
   b967e:	d2e9      	bcs.n	b9654 <__adddf3+0x10c>
   b9680:	f091 0f00 	teq	r1, #0
   b9684:	bf04      	itt	eq
   b9686:	4601      	moveq	r1, r0
   b9688:	2000      	moveq	r0, #0
   b968a:	fab1 f381 	clz	r3, r1
   b968e:	bf08      	it	eq
   b9690:	3320      	addeq	r3, #32
   b9692:	f1a3 030b 	sub.w	r3, r3, #11
   b9696:	f1b3 0220 	subs.w	r2, r3, #32
   b969a:	da0c      	bge.n	b96b6 <__adddf3+0x16e>
   b969c:	320c      	adds	r2, #12
   b969e:	dd08      	ble.n	b96b2 <__adddf3+0x16a>
   b96a0:	f102 0c14 	add.w	ip, r2, #20
   b96a4:	f1c2 020c 	rsb	r2, r2, #12
   b96a8:	fa01 f00c 	lsl.w	r0, r1, ip
   b96ac:	fa21 f102 	lsr.w	r1, r1, r2
   b96b0:	e00c      	b.n	b96cc <__adddf3+0x184>
   b96b2:	f102 0214 	add.w	r2, r2, #20
   b96b6:	bfd8      	it	le
   b96b8:	f1c2 0c20 	rsble	ip, r2, #32
   b96bc:	fa01 f102 	lsl.w	r1, r1, r2
   b96c0:	fa20 fc0c 	lsr.w	ip, r0, ip
   b96c4:	bfdc      	itt	le
   b96c6:	ea41 010c 	orrle.w	r1, r1, ip
   b96ca:	4090      	lslle	r0, r2
   b96cc:	1ae4      	subs	r4, r4, r3
   b96ce:	bfa2      	ittt	ge
   b96d0:	eb01 5104 	addge.w	r1, r1, r4, lsl #20
   b96d4:	4329      	orrge	r1, r5
   b96d6:	bd30      	popge	{r4, r5, pc}
   b96d8:	ea6f 0404 	mvn.w	r4, r4
   b96dc:	3c1f      	subs	r4, #31
   b96de:	da1c      	bge.n	b971a <__adddf3+0x1d2>
   b96e0:	340c      	adds	r4, #12
   b96e2:	dc0e      	bgt.n	b9702 <__adddf3+0x1ba>
   b96e4:	f104 0414 	add.w	r4, r4, #20
   b96e8:	f1c4 0220 	rsb	r2, r4, #32
   b96ec:	fa20 f004 	lsr.w	r0, r0, r4
   b96f0:	fa01 f302 	lsl.w	r3, r1, r2
   b96f4:	ea40 0003 	orr.w	r0, r0, r3
   b96f8:	fa21 f304 	lsr.w	r3, r1, r4
   b96fc:	ea45 0103 	orr.w	r1, r5, r3
   b9700:	bd30      	pop	{r4, r5, pc}
   b9702:	f1c4 040c 	rsb	r4, r4, #12
   b9706:	f1c4 0220 	rsb	r2, r4, #32
   b970a:	fa20 f002 	lsr.w	r0, r0, r2
   b970e:	fa01 f304 	lsl.w	r3, r1, r4
   b9712:	ea40 0003 	orr.w	r0, r0, r3
   b9716:	4629      	mov	r1, r5
   b9718:	bd30      	pop	{r4, r5, pc}
   b971a:	fa21 f004 	lsr.w	r0, r1, r4
   b971e:	4629      	mov	r1, r5
   b9720:	bd30      	pop	{r4, r5, pc}
   b9722:	f094 0f00 	teq	r4, #0
   b9726:	f483 1380 	eor.w	r3, r3, #1048576	; 0x100000
   b972a:	bf06      	itte	eq
   b972c:	f481 1180 	eoreq.w	r1, r1, #1048576	; 0x100000
   b9730:	3401      	addeq	r4, #1
   b9732:	3d01      	subne	r5, #1
   b9734:	e74e      	b.n	b95d4 <__adddf3+0x8c>
   b9736:	ea7f 5c64 	mvns.w	ip, r4, asr #21
   b973a:	bf18      	it	ne
   b973c:	ea7f 5c65 	mvnsne.w	ip, r5, asr #21
   b9740:	d029      	beq.n	b9796 <__adddf3+0x24e>
   b9742:	ea94 0f05 	teq	r4, r5
   b9746:	bf08      	it	eq
   b9748:	ea90 0f02 	teqeq	r0, r2
   b974c:	d005      	beq.n	b975a <__adddf3+0x212>
   b974e:	ea54 0c00 	orrs.w	ip, r4, r0
   b9752:	bf04      	itt	eq
   b9754:	4619      	moveq	r1, r3
   b9756:	4610      	moveq	r0, r2
   b9758:	bd30      	pop	{r4, r5, pc}
   b975a:	ea91 0f03 	teq	r1, r3
   b975e:	bf1e      	ittt	ne
   b9760:	2100      	movne	r1, #0
   b9762:	2000      	movne	r0, #0
   b9764:	bd30      	popne	{r4, r5, pc}
   b9766:	ea5f 5c54 	movs.w	ip, r4, lsr #21
   b976a:	d105      	bne.n	b9778 <__adddf3+0x230>
   b976c:	0040      	lsls	r0, r0, #1
   b976e:	4149      	adcs	r1, r1
   b9770:	bf28      	it	cs
   b9772:	f041 4100 	orrcs.w	r1, r1, #2147483648	; 0x80000000
   b9776:	bd30      	pop	{r4, r5, pc}
   b9778:	f514 0480 	adds.w	r4, r4, #4194304	; 0x400000
   b977c:	bf3c      	itt	cc
   b977e:	f501 1180 	addcc.w	r1, r1, #1048576	; 0x100000
   b9782:	bd30      	popcc	{r4, r5, pc}
   b9784:	f001 4500 	and.w	r5, r1, #2147483648	; 0x80000000
   b9788:	f045 41fe 	orr.w	r1, r5, #2130706432	; 0x7f000000
   b978c:	f441 0170 	orr.w	r1, r1, #15728640	; 0xf00000
   b9790:	f04f 0000 	mov.w	r0, #0
   b9794:	bd30      	pop	{r4, r5, pc}
   b9796:	ea7f 5c64 	mvns.w	ip, r4, asr #21
   b979a:	bf1a      	itte	ne
   b979c:	4619      	movne	r1, r3
   b979e:	4610      	movne	r0, r2
   b97a0:	ea7f 5c65 	mvnseq.w	ip, r5, asr #21
   b97a4:	bf1c      	itt	ne
   b97a6:	460b      	movne	r3, r1
   b97a8:	4602      	movne	r2, r0
   b97aa:	ea50 3401 	orrs.w	r4, r0, r1, lsl #12
   b97ae:	bf06      	itte	eq
   b97b0:	ea52 3503 	orrseq.w	r5, r2, r3, lsl #12
   b97b4:	ea91 0f03 	teqeq	r1, r3
   b97b8:	f441 2100 	orrne.w	r1, r1, #524288	; 0x80000
   b97bc:	bd30      	pop	{r4, r5, pc}
   b97be:	bf00      	nop

000b97c0 <__aeabi_ui2d>:
   b97c0:	f090 0f00 	teq	r0, #0
   b97c4:	bf04      	itt	eq
   b97c6:	2100      	moveq	r1, #0
   b97c8:	4770      	bxeq	lr
   b97ca:	b530      	push	{r4, r5, lr}
   b97cc:	f44f 6480 	mov.w	r4, #1024	; 0x400
   b97d0:	f104 0432 	add.w	r4, r4, #50	; 0x32
   b97d4:	f04f 0500 	mov.w	r5, #0
   b97d8:	f04f 0100 	mov.w	r1, #0
   b97dc:	e750      	b.n	b9680 <__adddf3+0x138>
   b97de:	bf00      	nop

000b97e0 <__aeabi_i2d>:
   b97e0:	f090 0f00 	teq	r0, #0
   b97e4:	bf04      	itt	eq
   b97e6:	2100      	moveq	r1, #0
   b97e8:	4770      	bxeq	lr
   b97ea:	b530      	push	{r4, r5, lr}
   b97ec:	f44f 6480 	mov.w	r4, #1024	; 0x400
   b97f0:	f104 0432 	add.w	r4, r4, #50	; 0x32
   b97f4:	f010 4500 	ands.w	r5, r0, #2147483648	; 0x80000000
   b97f8:	bf48      	it	mi
   b97fa:	4240      	negmi	r0, r0
   b97fc:	f04f 0100 	mov.w	r1, #0
   b9800:	e73e      	b.n	b9680 <__adddf3+0x138>
   b9802:	bf00      	nop

000b9804 <__aeabi_f2d>:
   b9804:	0042      	lsls	r2, r0, #1
   b9806:	ea4f 01e2 	mov.w	r1, r2, asr #3
   b980a:	ea4f 0131 	mov.w	r1, r1, rrx
   b980e:	ea4f 7002 	mov.w	r0, r2, lsl #28
   b9812:	bf1f      	itttt	ne
   b9814:	f012 437f 	andsne.w	r3, r2, #4278190080	; 0xff000000
   b9818:	f093 4f7f 	teqne	r3, #4278190080	; 0xff000000
   b981c:	f081 5160 	eorne.w	r1, r1, #939524096	; 0x38000000
   b9820:	4770      	bxne	lr
   b9822:	f032 427f 	bics.w	r2, r2, #4278190080	; 0xff000000
   b9826:	bf08      	it	eq
   b9828:	4770      	bxeq	lr
   b982a:	f093 4f7f 	teq	r3, #4278190080	; 0xff000000
   b982e:	bf04      	itt	eq
   b9830:	f441 2100 	orreq.w	r1, r1, #524288	; 0x80000
   b9834:	4770      	bxeq	lr
   b9836:	b530      	push	{r4, r5, lr}
   b9838:	f44f 7460 	mov.w	r4, #896	; 0x380
   b983c:	f001 4500 	and.w	r5, r1, #2147483648	; 0x80000000
   b9840:	f021 4100 	bic.w	r1, r1, #2147483648	; 0x80000000
   b9844:	e71c      	b.n	b9680 <__adddf3+0x138>
   b9846:	bf00      	nop

000b9848 <__aeabi_ul2d>:
   b9848:	ea50 0201 	orrs.w	r2, r0, r1
   b984c:	bf08      	it	eq
   b984e:	4770      	bxeq	lr
   b9850:	b530      	push	{r4, r5, lr}
   b9852:	f04f 0500 	mov.w	r5, #0
   b9856:	e00a      	b.n	b986e <__aeabi_l2d+0x16>

000b9858 <__aeabi_l2d>:
   b9858:	ea50 0201 	orrs.w	r2, r0, r1
   b985c:	bf08      	it	eq
   b985e:	4770      	bxeq	lr
   b9860:	b530      	push	{r4, r5, lr}
   b9862:	f011 4500 	ands.w	r5, r1, #2147483648	; 0x80000000
   b9866:	d502      	bpl.n	b986e <__aeabi_l2d+0x16>
   b9868:	4240      	negs	r0, r0
   b986a:	eb61 0141 	sbc.w	r1, r1, r1, lsl #1
   b986e:	f44f 6480 	mov.w	r4, #1024	; 0x400
   b9872:	f104 0432 	add.w	r4, r4, #50	; 0x32
   b9876:	ea5f 5c91 	movs.w	ip, r1, lsr #22
   b987a:	f43f aed8 	beq.w	b962e <__adddf3+0xe6>
   b987e:	f04f 0203 	mov.w	r2, #3
   b9882:	ea5f 0cdc 	movs.w	ip, ip, lsr #3
   b9886:	bf18      	it	ne
   b9888:	3203      	addne	r2, #3
   b988a:	ea5f 0cdc 	movs.w	ip, ip, lsr #3
   b988e:	bf18      	it	ne
   b9890:	3203      	addne	r2, #3
   b9892:	eb02 02dc 	add.w	r2, r2, ip, lsr #3
   b9896:	f1c2 0320 	rsb	r3, r2, #32
   b989a:	fa00 fc03 	lsl.w	ip, r0, r3
   b989e:	fa20 f002 	lsr.w	r0, r0, r2
   b98a2:	fa01 fe03 	lsl.w	lr, r1, r3
   b98a6:	ea40 000e 	orr.w	r0, r0, lr
   b98aa:	fa21 f102 	lsr.w	r1, r1, r2
   b98ae:	4414      	add	r4, r2
   b98b0:	e6bd      	b.n	b962e <__adddf3+0xe6>
   b98b2:	bf00      	nop

000b98b4 <atexit>:
   b98b4:	2300      	movs	r3, #0
   b98b6:	4601      	mov	r1, r0
   b98b8:	461a      	mov	r2, r3
   b98ba:	4618      	mov	r0, r3
   b98bc:	f000 b9a8 	b.w	b9c10 <__register_exitproc>

000b98c0 <isprint>:
   b98c0:	4b02      	ldr	r3, [pc, #8]	; (b98cc <isprint+0xc>)
   b98c2:	4418      	add	r0, r3
   b98c4:	7840      	ldrb	r0, [r0, #1]
   b98c6:	f000 0097 	and.w	r0, r0, #151	; 0x97
   b98ca:	4770      	bx	lr
   b98cc:	000bae7d 	.word	0x000bae7d

000b98d0 <memcpy>:
   b98d0:	440a      	add	r2, r1
   b98d2:	4291      	cmp	r1, r2
   b98d4:	f100 33ff 	add.w	r3, r0, #4294967295	; 0xffffffff
   b98d8:	d100      	bne.n	b98dc <memcpy+0xc>
   b98da:	4770      	bx	lr
   b98dc:	b510      	push	{r4, lr}
   b98de:	f811 4b01 	ldrb.w	r4, [r1], #1
   b98e2:	f803 4f01 	strb.w	r4, [r3, #1]!
   b98e6:	4291      	cmp	r1, r2
   b98e8:	d1f9      	bne.n	b98de <memcpy+0xe>
   b98ea:	bd10      	pop	{r4, pc}

000b98ec <memmove>:
   b98ec:	4288      	cmp	r0, r1
   b98ee:	b510      	push	{r4, lr}
   b98f0:	eb01 0402 	add.w	r4, r1, r2
   b98f4:	d902      	bls.n	b98fc <memmove+0x10>
   b98f6:	4284      	cmp	r4, r0
   b98f8:	4623      	mov	r3, r4
   b98fa:	d807      	bhi.n	b990c <memmove+0x20>
   b98fc:	1e43      	subs	r3, r0, #1
   b98fe:	42a1      	cmp	r1, r4
   b9900:	d008      	beq.n	b9914 <memmove+0x28>
   b9902:	f811 2b01 	ldrb.w	r2, [r1], #1
   b9906:	f803 2f01 	strb.w	r2, [r3, #1]!
   b990a:	e7f8      	b.n	b98fe <memmove+0x12>
   b990c:	4402      	add	r2, r0
   b990e:	4601      	mov	r1, r0
   b9910:	428a      	cmp	r2, r1
   b9912:	d100      	bne.n	b9916 <memmove+0x2a>
   b9914:	bd10      	pop	{r4, pc}
   b9916:	f813 4d01 	ldrb.w	r4, [r3, #-1]!
   b991a:	f802 4d01 	strb.w	r4, [r2, #-1]!
   b991e:	e7f7      	b.n	b9910 <memmove+0x24>

000b9920 <memset>:
   b9920:	4402      	add	r2, r0
   b9922:	4603      	mov	r3, r0
   b9924:	4293      	cmp	r3, r2
   b9926:	d100      	bne.n	b992a <memset+0xa>
   b9928:	4770      	bx	lr
   b992a:	f803 1b01 	strb.w	r1, [r3], #1
   b992e:	e7f9      	b.n	b9924 <memset+0x4>

000b9930 <srand>:
   b9930:	b538      	push	{r3, r4, r5, lr}
   b9932:	4b10      	ldr	r3, [pc, #64]	; (b9974 <srand+0x44>)
   b9934:	681d      	ldr	r5, [r3, #0]
   b9936:	6bab      	ldr	r3, [r5, #56]	; 0x38
   b9938:	4604      	mov	r4, r0
   b993a:	b9b3      	cbnz	r3, b996a <srand+0x3a>
   b993c:	2018      	movs	r0, #24
   b993e:	f7fd fb3b 	bl	b6fb8 <malloc>
   b9942:	4602      	mov	r2, r0
   b9944:	63a8      	str	r0, [r5, #56]	; 0x38
   b9946:	b920      	cbnz	r0, b9952 <srand+0x22>
   b9948:	4b0b      	ldr	r3, [pc, #44]	; (b9978 <srand+0x48>)
   b994a:	480c      	ldr	r0, [pc, #48]	; (b997c <srand+0x4c>)
   b994c:	2142      	movs	r1, #66	; 0x42
   b994e:	f7fd fb83 	bl	b7058 <__assert_func>
   b9952:	490b      	ldr	r1, [pc, #44]	; (b9980 <srand+0x50>)
   b9954:	4b0b      	ldr	r3, [pc, #44]	; (b9984 <srand+0x54>)
   b9956:	e9c0 1300 	strd	r1, r3, [r0]
   b995a:	4b0b      	ldr	r3, [pc, #44]	; (b9988 <srand+0x58>)
   b995c:	6083      	str	r3, [r0, #8]
   b995e:	230b      	movs	r3, #11
   b9960:	8183      	strh	r3, [r0, #12]
   b9962:	2100      	movs	r1, #0
   b9964:	2001      	movs	r0, #1
   b9966:	e9c2 0104 	strd	r0, r1, [r2, #16]
   b996a:	6bab      	ldr	r3, [r5, #56]	; 0x38
   b996c:	2200      	movs	r2, #0
   b996e:	611c      	str	r4, [r3, #16]
   b9970:	615a      	str	r2, [r3, #20]
   b9972:	bd38      	pop	{r3, r4, r5, pc}
   b9974:	2003b6d4 	.word	0x2003b6d4
   b9978:	000bae0d 	.word	0x000bae0d
   b997c:	000bae24 	.word	0x000bae24
   b9980:	abcd330e 	.word	0xabcd330e
   b9984:	e66d1234 	.word	0xe66d1234
   b9988:	0005deec 	.word	0x0005deec

000b998c <rand>:
   b998c:	4b16      	ldr	r3, [pc, #88]	; (b99e8 <rand+0x5c>)
   b998e:	b510      	push	{r4, lr}
   b9990:	681c      	ldr	r4, [r3, #0]
   b9992:	6ba3      	ldr	r3, [r4, #56]	; 0x38
   b9994:	b9b3      	cbnz	r3, b99c4 <rand+0x38>
   b9996:	2018      	movs	r0, #24
   b9998:	f7fd fb0e 	bl	b6fb8 <malloc>
   b999c:	63a0      	str	r0, [r4, #56]	; 0x38
   b999e:	b928      	cbnz	r0, b99ac <rand+0x20>
   b99a0:	4602      	mov	r2, r0
   b99a2:	4b12      	ldr	r3, [pc, #72]	; (b99ec <rand+0x60>)
   b99a4:	4812      	ldr	r0, [pc, #72]	; (b99f0 <rand+0x64>)
   b99a6:	214e      	movs	r1, #78	; 0x4e
   b99a8:	f7fd fb56 	bl	b7058 <__assert_func>
   b99ac:	4a11      	ldr	r2, [pc, #68]	; (b99f4 <rand+0x68>)
   b99ae:	4b12      	ldr	r3, [pc, #72]	; (b99f8 <rand+0x6c>)
   b99b0:	e9c0 2300 	strd	r2, r3, [r0]
   b99b4:	4b11      	ldr	r3, [pc, #68]	; (b99fc <rand+0x70>)
   b99b6:	6083      	str	r3, [r0, #8]
   b99b8:	230b      	movs	r3, #11
   b99ba:	8183      	strh	r3, [r0, #12]
   b99bc:	2201      	movs	r2, #1
   b99be:	2300      	movs	r3, #0
   b99c0:	e9c0 2304 	strd	r2, r3, [r0, #16]
   b99c4:	6ba4      	ldr	r4, [r4, #56]	; 0x38
   b99c6:	4a0e      	ldr	r2, [pc, #56]	; (b9a00 <rand+0x74>)
   b99c8:	6920      	ldr	r0, [r4, #16]
   b99ca:	6963      	ldr	r3, [r4, #20]
   b99cc:	490d      	ldr	r1, [pc, #52]	; (b9a04 <rand+0x78>)
   b99ce:	4342      	muls	r2, r0
   b99d0:	fb01 2203 	mla	r2, r1, r3, r2
   b99d4:	fba0 0101 	umull	r0, r1, r0, r1
   b99d8:	1c43      	adds	r3, r0, #1
   b99da:	eb42 0001 	adc.w	r0, r2, r1
   b99de:	e9c4 3004 	strd	r3, r0, [r4, #16]
   b99e2:	f020 4000 	bic.w	r0, r0, #2147483648	; 0x80000000
   b99e6:	bd10      	pop	{r4, pc}
   b99e8:	2003b6d4 	.word	0x2003b6d4
   b99ec:	000bae0d 	.word	0x000bae0d
   b99f0:	000bae24 	.word	0x000bae24
   b99f4:	abcd330e 	.word	0xabcd330e
   b99f8:	e66d1234 	.word	0xe66d1234
   b99fc:	0005deec 	.word	0x0005deec
   b9a00:	5851f42d 	.word	0x5851f42d
   b9a04:	4c957f2d 	.word	0x4c957f2d

000b9a08 <strchr>:
   b9a08:	b2c9      	uxtb	r1, r1
   b9a0a:	4603      	mov	r3, r0
   b9a0c:	f810 2b01 	ldrb.w	r2, [r0], #1
   b9a10:	b11a      	cbz	r2, b9a1a <strchr+0x12>
   b9a12:	428a      	cmp	r2, r1
   b9a14:	d1f9      	bne.n	b9a0a <strchr+0x2>
   b9a16:	4618      	mov	r0, r3
   b9a18:	4770      	bx	lr
   b9a1a:	2900      	cmp	r1, #0
   b9a1c:	bf18      	it	ne
   b9a1e:	2300      	movne	r3, #0
   b9a20:	e7f9      	b.n	b9a16 <strchr+0xe>

000b9a22 <strchrnul>:
   b9a22:	b510      	push	{r4, lr}
   b9a24:	4604      	mov	r4, r0
   b9a26:	f7ff ffef 	bl	b9a08 <strchr>
   b9a2a:	b918      	cbnz	r0, b9a34 <strchrnul+0x12>
   b9a2c:	4620      	mov	r0, r4
   b9a2e:	f000 f832 	bl	b9a96 <strlen>
   b9a32:	4420      	add	r0, r4
   b9a34:	bd10      	pop	{r4, pc}

000b9a36 <strcmp>:
   b9a36:	f810 2b01 	ldrb.w	r2, [r0], #1
   b9a3a:	f811 3b01 	ldrb.w	r3, [r1], #1
   b9a3e:	2a01      	cmp	r2, #1
   b9a40:	bf28      	it	cs
   b9a42:	429a      	cmpcs	r2, r3
   b9a44:	d0f7      	beq.n	b9a36 <strcmp>
   b9a46:	1ad0      	subs	r0, r2, r3
   b9a48:	4770      	bx	lr

000b9a4a <strcpy>:
   b9a4a:	4603      	mov	r3, r0
   b9a4c:	f811 2b01 	ldrb.w	r2, [r1], #1
   b9a50:	f803 2b01 	strb.w	r2, [r3], #1
   b9a54:	2a00      	cmp	r2, #0
   b9a56:	d1f9      	bne.n	b9a4c <strcpy+0x2>
   b9a58:	4770      	bx	lr
	...

000b9a5c <strdup>:
   b9a5c:	4b02      	ldr	r3, [pc, #8]	; (b9a68 <strdup+0xc>)
   b9a5e:	4601      	mov	r1, r0
   b9a60:	6818      	ldr	r0, [r3, #0]
   b9a62:	f000 b803 	b.w	b9a6c <_strdup_r>
   b9a66:	bf00      	nop
   b9a68:	2003b6d4 	.word	0x2003b6d4

000b9a6c <_strdup_r>:
   b9a6c:	b537      	push	{r0, r1, r2, r4, r5, lr}
   b9a6e:	4604      	mov	r4, r0
   b9a70:	4608      	mov	r0, r1
   b9a72:	460d      	mov	r5, r1
   b9a74:	f000 f80f 	bl	b9a96 <strlen>
   b9a78:	1c42      	adds	r2, r0, #1
   b9a7a:	4611      	mov	r1, r2
   b9a7c:	4620      	mov	r0, r4
   b9a7e:	9201      	str	r2, [sp, #4]
   b9a80:	f7fd fada 	bl	b7038 <_malloc_r>
   b9a84:	4604      	mov	r4, r0
   b9a86:	b118      	cbz	r0, b9a90 <_strdup_r+0x24>
   b9a88:	9a01      	ldr	r2, [sp, #4]
   b9a8a:	4629      	mov	r1, r5
   b9a8c:	f7ff ff20 	bl	b98d0 <memcpy>
   b9a90:	4620      	mov	r0, r4
   b9a92:	b003      	add	sp, #12
   b9a94:	bd30      	pop	{r4, r5, pc}

000b9a96 <strlen>:
   b9a96:	4603      	mov	r3, r0
   b9a98:	f813 2b01 	ldrb.w	r2, [r3], #1
   b9a9c:	2a00      	cmp	r2, #0
   b9a9e:	d1fb      	bne.n	b9a98 <strlen+0x2>
   b9aa0:	1a18      	subs	r0, r3, r0
   b9aa2:	3801      	subs	r0, #1
   b9aa4:	4770      	bx	lr

000b9aa6 <strncmp>:
   b9aa6:	b510      	push	{r4, lr}
   b9aa8:	b17a      	cbz	r2, b9aca <strncmp+0x24>
   b9aaa:	4603      	mov	r3, r0
   b9aac:	3901      	subs	r1, #1
   b9aae:	1884      	adds	r4, r0, r2
   b9ab0:	f813 0b01 	ldrb.w	r0, [r3], #1
   b9ab4:	f811 2f01 	ldrb.w	r2, [r1, #1]!
   b9ab8:	4290      	cmp	r0, r2
   b9aba:	d101      	bne.n	b9ac0 <strncmp+0x1a>
   b9abc:	42a3      	cmp	r3, r4
   b9abe:	d101      	bne.n	b9ac4 <strncmp+0x1e>
   b9ac0:	1a80      	subs	r0, r0, r2
   b9ac2:	bd10      	pop	{r4, pc}
   b9ac4:	2800      	cmp	r0, #0
   b9ac6:	d1f3      	bne.n	b9ab0 <strncmp+0xa>
   b9ac8:	e7fa      	b.n	b9ac0 <strncmp+0x1a>
   b9aca:	4610      	mov	r0, r2
   b9acc:	e7f9      	b.n	b9ac2 <strncmp+0x1c>

000b9ace <strrchr>:
   b9ace:	b538      	push	{r3, r4, r5, lr}
   b9ad0:	4603      	mov	r3, r0
   b9ad2:	460c      	mov	r4, r1
   b9ad4:	b969      	cbnz	r1, b9af2 <strrchr+0x24>
   b9ad6:	e8bd 4038 	ldmia.w	sp!, {r3, r4, r5, lr}
   b9ada:	f7ff bf95 	b.w	b9a08 <strchr>
   b9ade:	1c43      	adds	r3, r0, #1
   b9ae0:	4605      	mov	r5, r0
   b9ae2:	4621      	mov	r1, r4
   b9ae4:	4618      	mov	r0, r3
   b9ae6:	f7ff ff8f 	bl	b9a08 <strchr>
   b9aea:	2800      	cmp	r0, #0
   b9aec:	d1f7      	bne.n	b9ade <strrchr+0x10>
   b9aee:	4628      	mov	r0, r5
   b9af0:	bd38      	pop	{r3, r4, r5, pc}
   b9af2:	2500      	movs	r5, #0
   b9af4:	e7f5      	b.n	b9ae2 <strrchr+0x14>
	...

000b9af8 <_strtol_l.constprop.0>:
   b9af8:	2b01      	cmp	r3, #1
   b9afa:	e92d 47f0 	stmdb	sp!, {r4, r5, r6, r7, r8, r9, sl, lr}
   b9afe:	d001      	beq.n	b9b04 <_strtol_l.constprop.0+0xc>
   b9b00:	2b24      	cmp	r3, #36	; 0x24
   b9b02:	d906      	bls.n	b9b12 <_strtol_l.constprop.0+0x1a>
   b9b04:	f7fd faa0 	bl	b7048 <__errno>
   b9b08:	2316      	movs	r3, #22
   b9b0a:	6003      	str	r3, [r0, #0]
   b9b0c:	2000      	movs	r0, #0
   b9b0e:	e8bd 87f0 	ldmia.w	sp!, {r4, r5, r6, r7, r8, r9, sl, pc}
   b9b12:	f8df c0e4 	ldr.w	ip, [pc, #228]	; b9bf8 <_strtol_l.constprop.0+0x100>
   b9b16:	460d      	mov	r5, r1
   b9b18:	462e      	mov	r6, r5
   b9b1a:	f815 4b01 	ldrb.w	r4, [r5], #1
   b9b1e:	f814 700c 	ldrb.w	r7, [r4, ip]
   b9b22:	f017 0708 	ands.w	r7, r7, #8
   b9b26:	d1f7      	bne.n	b9b18 <_strtol_l.constprop.0+0x20>
   b9b28:	2c2d      	cmp	r4, #45	; 0x2d
   b9b2a:	d132      	bne.n	b9b92 <_strtol_l.constprop.0+0x9a>
   b9b2c:	782c      	ldrb	r4, [r5, #0]
   b9b2e:	2701      	movs	r7, #1
   b9b30:	1cb5      	adds	r5, r6, #2
   b9b32:	2b00      	cmp	r3, #0
   b9b34:	d05b      	beq.n	b9bee <_strtol_l.constprop.0+0xf6>
   b9b36:	2b10      	cmp	r3, #16
   b9b38:	d109      	bne.n	b9b4e <_strtol_l.constprop.0+0x56>
   b9b3a:	2c30      	cmp	r4, #48	; 0x30
   b9b3c:	d107      	bne.n	b9b4e <_strtol_l.constprop.0+0x56>
   b9b3e:	782c      	ldrb	r4, [r5, #0]
   b9b40:	f004 04df 	and.w	r4, r4, #223	; 0xdf
   b9b44:	2c58      	cmp	r4, #88	; 0x58
   b9b46:	d14d      	bne.n	b9be4 <_strtol_l.constprop.0+0xec>
   b9b48:	786c      	ldrb	r4, [r5, #1]
   b9b4a:	2310      	movs	r3, #16
   b9b4c:	3502      	adds	r5, #2
   b9b4e:	f107 4800 	add.w	r8, r7, #2147483648	; 0x80000000
   b9b52:	f108 38ff 	add.w	r8, r8, #4294967295	; 0xffffffff
   b9b56:	f04f 0c00 	mov.w	ip, #0
   b9b5a:	fbb8 f9f3 	udiv	r9, r8, r3
   b9b5e:	4666      	mov	r6, ip
   b9b60:	fb03 8a19 	mls	sl, r3, r9, r8
   b9b64:	f1a4 0e30 	sub.w	lr, r4, #48	; 0x30
   b9b68:	f1be 0f09 	cmp.w	lr, #9
   b9b6c:	d816      	bhi.n	b9b9c <_strtol_l.constprop.0+0xa4>
   b9b6e:	4674      	mov	r4, lr
   b9b70:	42a3      	cmp	r3, r4
   b9b72:	dd24      	ble.n	b9bbe <_strtol_l.constprop.0+0xc6>
   b9b74:	f1bc 0f00 	cmp.w	ip, #0
   b9b78:	db1e      	blt.n	b9bb8 <_strtol_l.constprop.0+0xc0>
   b9b7a:	45b1      	cmp	r9, r6
   b9b7c:	d31c      	bcc.n	b9bb8 <_strtol_l.constprop.0+0xc0>
   b9b7e:	d101      	bne.n	b9b84 <_strtol_l.constprop.0+0x8c>
   b9b80:	45a2      	cmp	sl, r4
   b9b82:	db19      	blt.n	b9bb8 <_strtol_l.constprop.0+0xc0>
   b9b84:	fb06 4603 	mla	r6, r6, r3, r4
   b9b88:	f04f 0c01 	mov.w	ip, #1
   b9b8c:	f815 4b01 	ldrb.w	r4, [r5], #1
   b9b90:	e7e8      	b.n	b9b64 <_strtol_l.constprop.0+0x6c>
   b9b92:	2c2b      	cmp	r4, #43	; 0x2b
   b9b94:	bf04      	itt	eq
   b9b96:	782c      	ldrbeq	r4, [r5, #0]
   b9b98:	1cb5      	addeq	r5, r6, #2
   b9b9a:	e7ca      	b.n	b9b32 <_strtol_l.constprop.0+0x3a>
   b9b9c:	f1a4 0e41 	sub.w	lr, r4, #65	; 0x41
   b9ba0:	f1be 0f19 	cmp.w	lr, #25
   b9ba4:	d801      	bhi.n	b9baa <_strtol_l.constprop.0+0xb2>
   b9ba6:	3c37      	subs	r4, #55	; 0x37
   b9ba8:	e7e2      	b.n	b9b70 <_strtol_l.constprop.0+0x78>
   b9baa:	f1a4 0e61 	sub.w	lr, r4, #97	; 0x61
   b9bae:	f1be 0f19 	cmp.w	lr, #25
   b9bb2:	d804      	bhi.n	b9bbe <_strtol_l.constprop.0+0xc6>
   b9bb4:	3c57      	subs	r4, #87	; 0x57
   b9bb6:	e7db      	b.n	b9b70 <_strtol_l.constprop.0+0x78>
   b9bb8:	f04f 3cff 	mov.w	ip, #4294967295	; 0xffffffff
   b9bbc:	e7e6      	b.n	b9b8c <_strtol_l.constprop.0+0x94>
   b9bbe:	f1bc 0f00 	cmp.w	ip, #0
   b9bc2:	da05      	bge.n	b9bd0 <_strtol_l.constprop.0+0xd8>
   b9bc4:	2322      	movs	r3, #34	; 0x22
   b9bc6:	6003      	str	r3, [r0, #0]
   b9bc8:	4646      	mov	r6, r8
   b9bca:	b942      	cbnz	r2, b9bde <_strtol_l.constprop.0+0xe6>
   b9bcc:	4630      	mov	r0, r6
   b9bce:	e79e      	b.n	b9b0e <_strtol_l.constprop.0+0x16>
   b9bd0:	b107      	cbz	r7, b9bd4 <_strtol_l.constprop.0+0xdc>
   b9bd2:	4276      	negs	r6, r6
   b9bd4:	2a00      	cmp	r2, #0
   b9bd6:	d0f9      	beq.n	b9bcc <_strtol_l.constprop.0+0xd4>
   b9bd8:	f1bc 0f00 	cmp.w	ip, #0
   b9bdc:	d000      	beq.n	b9be0 <_strtol_l.constprop.0+0xe8>
   b9bde:	1e69      	subs	r1, r5, #1
   b9be0:	6011      	str	r1, [r2, #0]
   b9be2:	e7f3      	b.n	b9bcc <_strtol_l.constprop.0+0xd4>
   b9be4:	2430      	movs	r4, #48	; 0x30
   b9be6:	2b00      	cmp	r3, #0
   b9be8:	d1b1      	bne.n	b9b4e <_strtol_l.constprop.0+0x56>
   b9bea:	2308      	movs	r3, #8
   b9bec:	e7af      	b.n	b9b4e <_strtol_l.constprop.0+0x56>
   b9bee:	2c30      	cmp	r4, #48	; 0x30
   b9bf0:	d0a5      	beq.n	b9b3e <_strtol_l.constprop.0+0x46>
   b9bf2:	230a      	movs	r3, #10
   b9bf4:	e7ab      	b.n	b9b4e <_strtol_l.constprop.0+0x56>
   b9bf6:	bf00      	nop
   b9bf8:	000bae7e 	.word	0x000bae7e

000b9bfc <strtol>:
   b9bfc:	4613      	mov	r3, r2
   b9bfe:	460a      	mov	r2, r1
   b9c00:	4601      	mov	r1, r0
   b9c02:	4802      	ldr	r0, [pc, #8]	; (b9c0c <strtol+0x10>)
   b9c04:	6800      	ldr	r0, [r0, #0]
   b9c06:	f7ff bf77 	b.w	b9af8 <_strtol_l.constprop.0>
   b9c0a:	bf00      	nop
   b9c0c:	2003b6d4 	.word	0x2003b6d4

000b9c10 <__register_exitproc>:
   b9c10:	e92d 43f8 	stmdb	sp!, {r3, r4, r5, r6, r7, r8, r9, lr}
   b9c14:	f8df 80b8 	ldr.w	r8, [pc, #184]	; b9cd0 <__register_exitproc+0xc0>
   b9c18:	4606      	mov	r6, r0
   b9c1a:	f8d8 0000 	ldr.w	r0, [r8]
   b9c1e:	461f      	mov	r7, r3
   b9c20:	460d      	mov	r5, r1
   b9c22:	4691      	mov	r9, r2
   b9c24:	f000 f856 	bl	b9cd4 <__retarget_lock_acquire_recursive>
   b9c28:	4b25      	ldr	r3, [pc, #148]	; (b9cc0 <__register_exitproc+0xb0>)
   b9c2a:	681c      	ldr	r4, [r3, #0]
   b9c2c:	b934      	cbnz	r4, b9c3c <__register_exitproc+0x2c>
   b9c2e:	4c25      	ldr	r4, [pc, #148]	; (b9cc4 <__register_exitproc+0xb4>)
   b9c30:	601c      	str	r4, [r3, #0]
   b9c32:	4b25      	ldr	r3, [pc, #148]	; (b9cc8 <__register_exitproc+0xb8>)
   b9c34:	b113      	cbz	r3, b9c3c <__register_exitproc+0x2c>
   b9c36:	681b      	ldr	r3, [r3, #0]
   b9c38:	f8c4 3088 	str.w	r3, [r4, #136]	; 0x88
   b9c3c:	6863      	ldr	r3, [r4, #4]
   b9c3e:	2b1f      	cmp	r3, #31
   b9c40:	dd07      	ble.n	b9c52 <__register_exitproc+0x42>
   b9c42:	f8d8 0000 	ldr.w	r0, [r8]
   b9c46:	f000 f847 	bl	b9cd8 <__retarget_lock_release_recursive>
   b9c4a:	f04f 30ff 	mov.w	r0, #4294967295	; 0xffffffff
   b9c4e:	e8bd 83f8 	ldmia.w	sp!, {r3, r4, r5, r6, r7, r8, r9, pc}
   b9c52:	b34e      	cbz	r6, b9ca8 <__register_exitproc+0x98>
   b9c54:	f8d4 0088 	ldr.w	r0, [r4, #136]	; 0x88
   b9c58:	b988      	cbnz	r0, b9c7e <__register_exitproc+0x6e>
   b9c5a:	4b1c      	ldr	r3, [pc, #112]	; (b9ccc <__register_exitproc+0xbc>)
   b9c5c:	b923      	cbnz	r3, b9c68 <__register_exitproc+0x58>
   b9c5e:	f8d8 0000 	ldr.w	r0, [r8]
   b9c62:	f000 f838 	bl	b9cd6 <__retarget_lock_release>
   b9c66:	e7f0      	b.n	b9c4a <__register_exitproc+0x3a>
   b9c68:	f44f 7084 	mov.w	r0, #264	; 0x108
   b9c6c:	f7fd f9a4 	bl	b6fb8 <malloc>
   b9c70:	2800      	cmp	r0, #0
   b9c72:	d0f4      	beq.n	b9c5e <__register_exitproc+0x4e>
   b9c74:	2300      	movs	r3, #0
   b9c76:	e9c0 3340 	strd	r3, r3, [r0, #256]	; 0x100
   b9c7a:	f8c4 0088 	str.w	r0, [r4, #136]	; 0x88
   b9c7e:	6863      	ldr	r3, [r4, #4]
   b9c80:	f840 9023 	str.w	r9, [r0, r3, lsl #2]
   b9c84:	2201      	movs	r2, #1
   b9c86:	409a      	lsls	r2, r3
   b9c88:	eb00 0183 	add.w	r1, r0, r3, lsl #2
   b9c8c:	f8d0 3100 	ldr.w	r3, [r0, #256]	; 0x100
   b9c90:	4313      	orrs	r3, r2
   b9c92:	f8c0 3100 	str.w	r3, [r0, #256]	; 0x100
   b9c96:	2e02      	cmp	r6, #2
   b9c98:	f8c1 7080 	str.w	r7, [r1, #128]	; 0x80
   b9c9c:	bf02      	ittt	eq
   b9c9e:	f8d0 3104 	ldreq.w	r3, [r0, #260]	; 0x104
   b9ca2:	4313      	orreq	r3, r2
   b9ca4:	f8c0 3104 	streq.w	r3, [r0, #260]	; 0x104
   b9ca8:	6863      	ldr	r3, [r4, #4]
   b9caa:	f8d8 0000 	ldr.w	r0, [r8]
   b9cae:	1c5a      	adds	r2, r3, #1
   b9cb0:	3302      	adds	r3, #2
   b9cb2:	6062      	str	r2, [r4, #4]
   b9cb4:	f844 5023 	str.w	r5, [r4, r3, lsl #2]
   b9cb8:	f000 f80e 	bl	b9cd8 <__retarget_lock_release_recursive>
   b9cbc:	2000      	movs	r0, #0
   b9cbe:	e7c6      	b.n	b9c4e <__register_exitproc+0x3e>
   b9cc0:	2003e7e8 	.word	0x2003e7e8
   b9cc4:	2003e75c 	.word	0x2003e75c
   b9cc8:	00000000 	.word	0x00000000
   b9ccc:	000b6fb9 	.word	0x000b6fb9
   b9cd0:	2003b738 	.word	0x2003b738

000b9cd4 <__retarget_lock_acquire_recursive>:
   b9cd4:	4770      	bx	lr

000b9cd6 <__retarget_lock_release>:
   b9cd6:	4770      	bx	lr

000b9cd8 <__retarget_lock_release_recursive>:
   b9cd8:	4770      	bx	lr

000b9cda <link_code_end>:
	...

000b9cdc <dynalib_user>:
   b9cdc:	401d 000b 4059 000b 4081 000b 4085 000b     .@..Y@...@...@..
   b9cec:	0000 0000 6143 6c6c 6f20 206e 7570 6572     ....Call on pure
   b9cfc:	7620 7269 7574 6c61 4f00 4a42 4345 0054      virtual.OBJECT.
   b9d0c:	7974 6570 253d 2073 7473 7261 3d74 6425     type=%s start=%d
   b9d1c:	6520 646e 253d 2064 6f74 656b 736e 253d      end=%d tokens=%
   b9d2c:	2064 202d 7325 6e00 646f 7365 7400 7079     d - %s.nodes.typ
   b9d3c:	0065 7270 6e69 6974 676e 7420 6b6f 6e65     e.printing token
   b9d4c:	0073 754f 6574 2072 626f 656a 7463 7320     s.Outer object s
   b9d5c:	6174 7472 253d 2064 6e65 3d64 6425 7420     tart=%d end=%d t
   b9d6c:	6b6f 6e65 3d73 6425 2d20 2520 0073 6574     okens=%d - %s.te
   b9d7c:	7473 7400 7365 2074 7325 5400 7365 0074     st.test %s.Test.
   b9d8c:	6f54 6174 206c 6f74 656b 736e 253d 2064     Total tokens=%d 
   b9d9c:	2528 2e34 6632 2525 6620 6c75 296c 7320     (%4.2f%% full) s
   b9dac:	6f74 6172 6567 253d 2064 2528 2e34 6632     torage=%d (%4.2f
   b9dbc:	2525 6620 6c75 296c 5500 6b6e 6f6e 6e77     %% full).Unknown
   b9dcc:	7320 6e65 6f73 2072 7974 6570 6920 206e      sensor type in 
   b9ddc:	6170 7372 4a65 696f 506e 7961 6f6c 6461     parseJoinPayload
   b9dec:	6156 756c 7365 2520 0064 6e55 6e6b 776f     Values %d.Unknow
   b9dfc:	206e 6573 736e 726f 7420 7079 2065 6e69     n sensor type in
   b9e0c:	7020 7261 6573 6f4a 6e69 6150 6c79 616f      parseJoinPayloa
   b9e1c:	5664 6c61 6575 0073 6c41 7265 0074 4975     dValues.Alert.uI
   b9e2c:	0044 6f6e 6564 7000 0031 3270 7000 6e65     D.node.p1.p2.pen
   b9e3c:	0064 6f63 746e 4e00 646f 2065 6425 202c     d.cont.Node %d, 
   b9e4c:	6e75 7169 6575 4449 2520 756c 202c 7974     uniqueID %lu, ty
   b9e5c:	6570 2520 2c64 6f20 6363 7075 6e61 7963     pe %d, occupancy
   b9e6c:	654e 2074 6425 202c 636f 7563 6170 636e     Net %d, occupanc
   b9e7c:	4779 6f72 7373 2520 2c64 7020 7961 6f6c     yGross %d, paylo
   b9e8c:	6461 2820 6425 252f 2f64 6425 252f 2964     ad (%d/%d/%d/%d)
   b9e9c:	7720 7469 2068 6570 646e 6e69 2067 6c61      with pending al
   b9eac:	7265 2074 6425 6120 646e 6120 656c 7472     ert %d and alert
   b9ebc:	6320 6e6f 6574 7478 2520 0064 6f4e 6564      context %d.Node
   b9ecc:	2520 2c64 7520 696e 7571 4965 2044 6c25      %d, uniqueID %l
   b9edc:	2c75 7420 7079 2065 6425 202c 6170 6c79     u, type %d, payl
   b9eec:	616f 2064 2528 2f64 6425 252f 2f64 6425     oad (%d/%d/%d/%d
   b9efc:	2029 6977 6874 7020 6e65 6964 676e 6120     ) with pending a
   b9f0c:	656c 7472 2520 2064 6e61 2064 6c61 7265     lert %d and aler
   b9f1c:	2074 6f63 746e 7865 2074 6425 5500 6b6e     t context %d.Unk
   b9f2c:	6f6e 6e77 7320 6e65 6f73 2072 7974 6570     nown sensor type
   b9f3c:	6920 206e 7270 6e69 4e74 646f 4465 7461      in printNodeDat
   b9f4c:	2061 6425 5500 6b6e 6f6e 6e77 7320 6e65     a %d.Unknown sen
   b9f5c:	6f73 2072 7974 6570 6920 206e 7270 6e69     sor type in prin
   b9f6c:	4e74 646f 4465 7461 0061 6f6e 6564 6144     tNodeData.nodeDa
   b9f7c:	6174 4600 756f 646e 7420 6568 7520 696e     ta.Found the uni
   b9f8c:	7571 4965 2c44 6e20 646f 2065 666f 2520     queID, node of %
   b9f9c:	0064 6944 2064 6f6e 2074 6966 646e 7420     d.Did not find t
   b9fac:	6568 7520 696e 7571 4965 2c44 6e20 7765     he uniqueID, new
   b9fbc:	6e20 646f 2065 666f 2520 0064 6c25 0075      node of %d.%lu.
   b9fcc:	6843 6e61 6967 676e 7320 6e65 6f73 2072     Changing sensor 
   b9fdc:	7974 6570 6620 6f72 206d 6425 7420 206f     type from %d to 
   b9fec:	6425 5200 6e61 6f20 7475 6f20 2066 6e65     %d.Ran out of en
   b9ffc:	7274 6569 0073 7453 7261 6974 676e 7420     tries.Starting t
   ba00c:	7365 7374 4600 7269 7473 5420 7365 2c74     ests.First Test,
   ba01c:	7720 2065 6977 6c6c 6320 656c 7261 7420      we will clear t
   ba02c:	6568 4e20 646f 2065 6144 6174 6162 6573     he Node Database
   ba03c:	6120 646e 6c20 616f 2064 6874 2065 6173      and load the sa
   ba04c:	706d 656c 6420 7461 2061 6573 0074 6f4e     mple data set.No
   ba05c:	2077 6874 7461 7420 6568 6e20 646f 4465     w that the nodeD
   ba06c:	7461 6261 7361 2065 7369 6520 706d 7974     atabase is empty
   ba07c:	202c 6577 7720 6c69 206c 6f6c 6461 7420     , we will load t
   ba08c:	6568 7320 6d61 6c70 2065 6164 6174 7320     he sample data s
   ba09c:	7465 7b00 6e22 646f 7365 3a22 7b5b 6e22     et.{"nodes":[{"n
   ba0ac:	646f 2265 313a 222c 4975 2244 323a 3136     ode":1,"uID":261
   ba0bc:	3433 3037 3535 2c39 7422 7079 2265 313a     3470559,"type":1
   ba0cc:	222c 2270 303a 222c 3170 3a22 2c30 7022     ,"p":0,"p1":0,"p
   ba0dc:	2232 303a 222c 6570 646e 3a22 2c30 6322     2":0,"pend":0,"c
   ba0ec:	6e6f 2274 313a 2c7d 227b 6f6e 6564 3a22     ont":1},{"node":
   ba0fc:	2c32 7522 4449 3a22 3132 3132 3633 3330     2,"uID":21213603
   ba10c:	3234 222c 7974 6570 3a22 2c31 7022 3a22     42,"type":1,"p":
   ba11c:	2c30 7022 2231 303a 222c 3270 3a22 2c30     0,"p1":0,"p2":0,
   ba12c:	7022 6e65 2264 303a 222c 6f63 746e 3a22     "pend":0,"cont":
   ba13c:	7d32 7b2c 6e22 646f 2265 333a 222c 4975     2},{"node":3,"uI
   ba14c:	2244 323a 3131 3333 3138 3938 2c31 7422     D":2113381891,"t
   ba15c:	7079 2265 313a 222c 2270 303a 222c 3170     ype":1,"p":0,"p1
   ba16c:	3a22 2c30 7022 2232 303a 222c 6570 646e     ":0,"p2":0,"pend
   ba17c:	3a22 2c30 6322 6e6f 2274 333a 2c7d 227b     ":0,"cont":3},{"
   ba18c:	6f6e 6564 3a22 2c34 7522 4449 3a22 3232     node":4,"uID":22
   ba19c:	3232 3930 3130 3432 222c 7974 6570 3a22     22090124,"type":
   ba1ac:	2c31 7022 3a22 2c30 7022 2231 303a 222c     1,"p":0,"p1":0,"
   ba1bc:	3270 3a22 2c30 7022 6e65 2264 303a 222c     p2":0,"pend":0,"
   ba1cc:	6f63 746e 3a22 7d34 7b2c 6e22 646f 2265     cont":4},{"node"
   ba1dc:	353a 222c 4975 2244 323a 3338 3639 3933     :5,"uID":2839639
   ba1ec:	3136 2c30 7422 7079 2265 313a 222c 2270     610,"type":1,"p"
   ba1fc:	303a 222c 3170 3a22 2c30 7022 2232 303a     :0,"p1":0,"p2":0
   ba20c:	222c 6570 646e 3a22 2c30 6322 6e6f 2274     ,"pend":0,"cont"
   ba21c:	353a 2c7d 227b 6f6e 6564 3a22 2c36 7522     :5},{"node":6,"u
   ba22c:	4449 3a22 3539 3338 3939 3236 222c 7974     ID":95839962,"ty
   ba23c:	6570 3a22 2c31 7022 3a22 2c30 7022 2231     pe":1,"p":0,"p1"
   ba24c:	303a 222c 3270 3a22 2c30 7022 6e65 2264     :0,"p2":0,"pend"
   ba25c:	303a 222c 6f63 746e 3a22 7d36 7b2c 6e22     :0,"cont":6},{"n
   ba26c:	646f 2265 373a 222c 4975 2244 333a 3138     ode":7,"uID":381
   ba27c:	3638 3837 3433 2c31 7422 7079 2265 313a     8678341,"type":1
   ba28c:	222c 2270 303a 222c 3170 3a22 2c30 7022     ,"p":0,"p1":0,"p
   ba29c:	2232 303a 222c 6570 646e 3a22 2c30 6322     2":0,"pend":0,"c
   ba2ac:	6e6f 2274 373a 2c7d 227b 6f6e 6564 3a22     ont":7},{"node":
   ba2bc:	2c38 7522 4449 3a22 3832 3432 3330 3239     8,"uID":28240392
   ba2cc:	3939 222c 7974 6570 3a22 2c31 7022 3a22     99,"type":1,"p":
   ba2dc:	2c30 7022 2231 303a 222c 3270 3a22 2c30     0,"p1":0,"p2":0,
   ba2ec:	7022 6e65 2264 303a 222c 6f63 746e 3a22     "pend":0,"cont":
   ba2fc:	7d38 7b2c 6e22 646f 2265 393a 222c 4975     8},{"node":9,"uI
   ba30c:	2244 323a 3635 3431 3533 3938 2c32 7422     D":2561435892,"t
   ba31c:	7079 2265 313a 222c 2270 303a 222c 3170     ype":1,"p":0,"p1
   ba32c:	3a22 2c30 7022 2232 303a 222c 6570 646e     ":0,"p2":0,"pend
   ba33c:	3a22 2c30 6322 6e6f 2274 393a 2c7d 227b     ":0,"cont":9},{"
   ba34c:	6f6e 6564 3a22 3031 222c 4975 2244 333a     node":10,"uID":3
   ba35c:	3336 3933 3333 3035 2c37 7422 7079 2265     633933507,"type"
   ba36c:	313a 222c 2270 303a 222c 3170 3a22 2c30     :1,"p":0,"p1":0,
   ba37c:	7022 2232 303a 222c 6570 646e 3a22 2c30     "p2":0,"pend":0,
   ba38c:	6322 6e6f 2274 313a 7d30 7b2c 6e22 646f     "cont":10},{"nod
   ba39c:	2265 313a 2c31 7522 4449 3a22 3632 3734     e":11,"uID":2647
   ba3ac:	3437 3434 3431 222c 7974 6570 3a22 2c31     744414,"type":1,
   ba3bc:	7022 3a22 2c30 7022 2231 303a 222c 3270     "p":0,"p1":0,"p2
   ba3cc:	3a22 2c30 7022 6e65 2264 303a 222c 6f63     ":0,"pend":0,"co
   ba3dc:	746e 3a22 3131 2c7d 227b 6f6e 6564 3a22     nt":11},{"node":
   ba3ec:	3231 222c 4975 2244 333a 3636 3532 3330     12,"uID":3662503
   ba3fc:	3535 2c34 7422 7079 2265 313a 222c 2270     554,"type":1,"p"
   ba40c:	303a 222c 3170 3a22 2c30 7022 2232 303a     :0,"p1":0,"p2":0
   ba41c:	222c 6570 646e 3a22 2c30 6322 6e6f 2274     ,"pend":0,"cont"
   ba42c:	313a 7d32 7b2c 6e22 646f 2265 313a 2c33     :12},{"node":13,
   ba43c:	7522 4449 3a22 3532 3538 3437 3536 3532     "uID":2585746525
   ba44c:	222c 7974 6570 3a22 2c31 7022 3a22 2c30     ,"type":1,"p":0,
   ba45c:	7022 2231 303a 222c 3270 3a22 2c30 7022     "p1":0,"p2":0,"p
   ba46c:	6e65 2264 303a 222c 6f63 746e 3a22 3331     end":0,"cont":13
   ba47c:	2c7d 227b 6f6e 6564 3a22 3431 222c 4975     },{"node":14,"uI
   ba48c:	2244 363a 3036 3132 3138 3431 222c 7974     D":660218114,"ty
   ba49c:	6570 3a22 2c31 7022 3a22 2c30 7022 2231     pe":1,"p":0,"p1"
   ba4ac:	303a 222c 3270 3a22 2c30 7022 6e65 2264     :0,"p2":0,"pend"
   ba4bc:	303a 222c 6f63 746e 3a22 3431 5d7d 007d     :0,"cont":14}]}.
   ba4cc:	6150 7372 6465 5320 6375 6563 7373 7566     Parsed Successfu
   ba4dc:	6c6c 0079 6150 7372 6e69 2067 7265 6f72     lly.Parsing erro
   ba4ec:	0072 654e 7478 202c 6577 7720 6c69 206c     r.Next, we will 
   ba4fc:	6f6c 6461 6120 646e 7320 6f74 6572 7420     load and store t
   ba50c:	6568 6e20 646f 2065 6164 6174 6162 6573     he node database
   ba51c:	6920 746e 206f 656d 6f6d 7972 4e00 746f      into memory.Not
   ba52c:	2065 6874 7461 6f20 7275 4a20 4f53 204e     e that our JSON 
   ba53c:	626f 656a 7463 6120 6c6c 636f 7461 6f69     object allocatio
   ba54c:	206e 7369 2520 2e34 6632 2525 6f20 2066     n is %4.2f%% of 
   ba55c:	6874 2065 656d 6f6d 7972 6120 6c6c 636f     the memory alloc
   ba56c:	7461 6465 2820 656c 7373 7420 6168 206e     ated (less than 
   ba57c:	3031 2530 2025 7369 4f20 294b 5400 6568     100%% is OK).The
   ba58c:	6e20 646f 2065 7473 6972 676e 6920 3a73      node string is:
   ba59c:	2520 0073 6946 616e 6c6c 2c79 7720 2065      %s.Finally, we 
   ba5ac:	6977 6c6c 6120 6464 6120 6e20 7765 6e20     will add a new n
   ba5bc:	646f 2065 6f74 7420 6568 6420 7461 6261     ode to the datab
   ba5cc:	7361 2065 6e61 2064 7270 6e69 2074 6874     ase and print th
   ba5dc:	2065 6164 6174 6162 6573 5400 6568 6e20     e database.The n
   ba5ec:	646f 2065 756e 626d 7265 6920 3a73 2520     ode number is: %
   ba5fc:	0064 6f4e 2077 6577 7720 6c69 206c 6863     d.Now we will ch
   ba60c:	6e61 6567 7420 6568 7420 7079 2065 666f     ange the type of
   ba61c:	7420 6568 6e20 646f 2065 6e61 2064 7270      the node and pr
   ba62c:	6e69 2074 6874 2065 6164 6174 6162 6573     int the database
   ba63c:	5400 6568 6320 7275 6572 746e 7420 7079     .The current typ
   ba64c:	2065 6f66 2072 6f6e 6564 6e20 6d75 6562     e for node numbe
   ba65c:	2072 6425 6920 3a73 2520 0064 6854 2065     r %d is: %d.The 
   ba66c:	656e 2077 7974 6570 6620 726f 6e20 646f     new type for nod
   ba67c:	2065 756e 626d 7265 2520 2064 7369 203a     e number %d is: 
   ba68c:	6425 4e00 776f 7720 2065 6977 6c6c 6320     %d.Now we will c
   ba69c:	6168 676e 2065 6874 2065 7974 6570 7720     hange the type w
   ba6ac:	6968 6863 7720 6c69 206c 6c61 6574 2072     hich will alter 
   ba6bc:	7469 2073 7473 7572 7463 7275 2065 6e61     its structure an
   ba6cc:	2064 7270 6e69 2074 6874 2065 6164 6174     d print the data
   ba6dc:	6162 6573 4e00 776f 7720 2065 6977 6c6c     base.Now we will
   ba6ec:	6320 6168 676e 2065 6874 2065 7974 6570      change the type
   ba6fc:	6f20 206e 2061 6f6e 6574 7420 6168 2074      on a note that 
   ba70c:	7369 6920 206e 6874 2065 696d 6464 656c     is in the middle
   ba71c:	6f20 2066 6874 2065 6170 6b63 6120 646e      of the pack and
   ba72c:	7420 6568 206e 6863 6e61 6567 6920 2074      then change it 
   ba73c:	6162 6b63 202e 4e00 746f 6369 2065 6f68     back. .Notice ho
   ba74c:	2077 6874 2065 656e 2077 6f6e 6564 6920     w the new node i
   ba75c:	2073 6f6e 2077 7461 7420 6568 6520 646e     s now at the end
   ba76c:	6f20 2066 6874 2065 756f 6574 2072 6a6f      of the outer oj
   ba77c:	6562 7463 2d20 7420 6968 2073 6977 6c6c     bect - this will
   ba78c:	6220 6572 6b61 6f20 7275 6320 646f 0065      break our code.
   ba79c:	6946 696e 6873 6465 5020 7261 6973 676e     Finished Parsing
   ba7ac:	5420 7365 2e74 5220 6e75 696e 676e 6420      Test. Running d
   ba7bc:	7461 2061 6572 6f70 7472 7420 7365 7374     ata report tests
   ba7cc:	6920 206e 2061 6f6c 706f 002e 7055 6164      in a loop..Upda
   ba7dc:	6974 676e 6a20 6f73 446e 7461 3161 7620     ting jsonData1 v
   ba7ec:	6c61 6575 6620 726f 6e20 646f 2065 6425     alue for node %d
   ba7fc:	6620 6f72 206d 6425 7420 206f 6425 5500      from %d to %d.U
   ba80c:	6470 7461 6e69 2067 736a 6e6f 6144 6174     pdating jsonData
   ba81c:	2032 6176 756c 2065 6f66 2072 6f6e 6564     2 value for node
   ba82c:	2520 2064 7266 6d6f 2520 2064 6f74 2520      %d from %d to %
   ba83c:	0064 6146 6c69 6465 7420 206f 6573 2074     d.Failed to set 
   ba84c:	734a 6e6f 4420 7461 2161 2021 6f54 656b     Json Data!! Toke
   ba85c:	736e 003a                                   ns:.

000ba860 <_ZTVN5spark10LogHandlerE>:
	...
   ba870:	40a1 000b 40c9 000b                         .@...@..

000ba878 <_ZTVN5spark16SerialLogHandlerE>:
	...
   ba880:	411d 000b 4151 000b 8919 000b 40cb 000b     .A..QA.......@..

000ba890 <_ZTV16JsonParserStaticILj3072ELj550EE>:
	...
   ba898:	40d5 000b 40e9 000b                         .@...@..

000ba8a0 <_ZL9uniqueIDs>:
   ba8a0:	655f 9bc6 63d6 7e71 a603 7df7 678c 8472     _e...cq~...}.gr.
   ba8b0:	763a a941 66da 05b6 6845 e39c 6b83 a853     :vA..f..Eh...kS.
   ba8c0:	68f4 98ac 6cc3 d899 5f9e 9dd1 5e82 da4d     .h...l..._...^M.
   ba8d0:	5c5d 9a1f 2102 275a 755c 3025 5834 0000     ]\...!Z'\u%04X..

000ba8e0 <_ZTV10JsonBuffer>:
	...
   ba8e8:	5071 000b 508d 000b                         qP...P..

000ba8f0 <_ZTV10JsonParser>:
	...
   ba8f8:	50f1 000b 5115 000b                         .P...Q..

000ba900 <_ZTV10JsonWriter>:
	...
   ba908:	50a1 000b 50b5 000b                         .P...P..

000ba910 <_ZTV12JsonModifier>:
	...
   ba918:	50c9 000b 50dd 000b 6f6e 2074 6176 696c     .P...P..not vali
   ba928:	0064 7563 7272 6e65 2074 6164 6174 6920     d.current data i
   ba938:	2073 7325 4300 7275 6572 746e 4420 7461     s %s.Current Dat
   ba948:	2061 6e49 7469 6169 696c 657a 0064 6f6e     a Initialized.no
   ba958:	6564 4449 6420 7461 2061 7369 2520 0073     deID data is %s.
   ba968:	2e25 732a 4e00 646f 2065 6144 6174 6162     %.*s.Node Databa
   ba978:	6573 6220 6665 726f 2065 6573 3a74 4e00     se before set:.N
   ba988:	646f 2065 6144 6174 6162 6573 6120 7466     ode Database aft
   ba998:	7265 7320 7465 003a 227b 6f6e 6564 2273     er set:.{"nodes"
   ba9a8:	5b3a 7d5d 5200 7365 7465 6974 2067 6f4e     :[]}.Resettig No
   ba9b8:	6564 4449 6320 6e6f 6966 2067 6f74 203a     deID config to: 
   ba9c8:	7325 4e00 646f 4965 2044 6164 6174 6920     %s.NodeID data i
   ba9d8:	2073 6f6e 2077 7325 4500 6172 6973 676e     s now %s.Erasing
   ba9e8:	4620 4152 204d 6572 6967 6e6f 4900 696e      FRAM region.Ini
   ba9f8:	6974 6c61 7a69 6e69 2067 6164 6174 0000     tializing data..

000baa08 <_ZTV8MB85RC64>:
	...
   baa10:	5cb9 000b 5ccd 000b 63bd 000b 6453 000b     .\...\...c..Sd..
   baa20:	64d5 000b                                   .d..

000baa24 <_ZTV10nodeIDData>:
	...
   baa2c:	5f95 000b 5d8b 000b 5d63 000b 658b 000b     ._...]..c]...e..
   baa3c:	65b3 000b 5d29 000b 613d 000b 5e05 000b     .e..)]..=a...^..
   baa4c:	5e19 000b                                   .^..

000baa50 <_ZTV17currentStatusData>:
	...
   baa58:	5e91 000b 5d8b 000b 5d63 000b 658b 000b     .^...]..c]...e..
   baa68:	65b3 000b 5ce1 000b 5d05 000b 5ddd 000b     .e...\...]...]..
   baa78:	5df1 000b                                   .]..

000baa7c <_ZTV6MB85RC>:
	...
   baa84:	637d 000b 637f 000b 63bd 000b 6453 000b     }c...c...c..Sd..
   baa94:	64d5 000b 6176 696c 6164 6974 676e 6420     .d..validating d
   baaa4:	7461 2061 6973 657a 253d 0064 6f67 3a74     ata size=%d.got:
   baab4:	6d20 6761 6369 253d 3830 2078 6576 7372      magic=%08x vers
   baac4:	6f69 3d6e 3025 7834 7320 7a69 3d65 3025     ion=%04x size=%0
   baad4:	7834 6820 7361 3d68 3025 7838 6500 7078     4x hash=%08x.exp
   baae4:	203a 616d 6967 3d63 3025 7838 7620 7265     : magic=%08x ver
   baaf4:	6973 6e6f 253d 3430 2078 6973 657a 253d     sion=%04x size=%
   bab04:	3430 2078 6168 6873 253d 3830 0078 6173     04x hash=%08x.sa
   bab14:	6976 676e 6420 7461 2061 6973 657a 253d     ving data size=%
   bab24:	0064 0000                                   d...

000bab28 <_ZTVN15StorageHelperRK18PersistentDataBaseE>:
	...
   bab30:	6585 000b 661d 000b 68a5 000b 658b 000b     .e...f...h...e..
   bab40:	65b3 000b 67a1 000b 6879 000b 6f4e 6564     .e...g..yh..Node
   bab50:	2520 2064 6977 6874 7520 696e 7571 4965      %d with uniqueI
   bab60:	2044 6c25 2075 6573 746e 6120 6420 7461     D %lu sent a dat
   bab70:	2061 6572 6f70 7472 6d20 7365 6173 6567     a report message
   bab80:	0000 0000                                   ....

000bab84 <_ZTV7Gateway>:
	...
   bab8c:	69c5 000b 69c7 000b                         .i...i..

000bab94 <_ZTVN5spark13CellularClassE>:
	...
   bab9c:	7197 000b 718d 000b 7183 000b 7139 000b     .q...q...q..9q..
   babac:	7177 000b 716b 000b 8c71 000b 8c79 000b     wq..kq..q...y...
   babbc:	715f 000b 7157 000b 714d 000b 7143 000b     _q..Wq..Mq..Cq..
   babcc:	8ca9 000b                                   ....

000babd0 <_ZTVSt15_Sp_counted_ptrIPN8particle6detail10FutureImplIbNS1_13FutureContextEEELN9__gnu_cxx12_Lock_policyE0EE>:
	...
   babd8:	71d1 000b 71d7 000b 7215 000b 71e5 000b     .q...q...r...q..
   babe8:	71d3 000b                                   .q..

000babec <_ZTVN5spark13EthernetClassE>:
	...
   babf4:	775f 000b 7755 000b 774b 000b 7741 000b     _w..Uw..Kw..Aw..
   bac04:	7735 000b 7729 000b 8c71 000b 8c79 000b     5w..)w..q...y...
   bac14:	771d 000b 7715 000b 770b 000b 7701 000b     .w...w...w...w..
   bac24:	8ca9 000b                                   ....

000bac28 <_ZTV7TwoWire>:
	...
   bac30:	777d 000b 77c7 000b 779f 000b 777f 000b     }w...w...w...w..
   bac40:	77a7 000b 77af 000b 77b7 000b 77bf 000b     .w...w...w...w..

000bac50 <_ZTV9IPAddress>:
	...
   bac58:	78b9 000b 78a9 000b 78ab 000b 7525 7500     .x...x...x..%u.u
   bac68:	3025 7834 6200 7561 0064 6553 6972 6c61     %04x.baud.Serial
   bac78:	5300 7265 6169 316c 4a00 4f53 534e 7274     .Serial1.JSONStr
   bac88:	6165 4c6d 676f 6148 646e 656c 0072 7061     eamLogHandler.ap
   bac98:	0070 3025 3031 2075 5d00 0020 202c 2800     p.%010u .] ., .(
   baca8:	3a29 0020 5b20 6300 646f 2065 203d 2500     ): . [.code = .%
   bacb8:	0069 6564 6174 6c69 2073 203d 0d00 000a     i.details = ....
   bacc8:	006d 0066 6e6c 6600 006e 6564 6174 6c69     m.f.ln.fn.detail
   bacd8:	0000 0000                                   ....

000bacdc <_ZTVN5spark16JSONStreamWriterE>:
	...
   bace4:	7d65 000b 7d8b 000b 7d49 000b 79c7 000b     e}...}..I}...y..

000bacf4 <_ZTVN5spark16StreamLogHandlerE>:
	...
   bacfc:	81c1 000b 81d9 000b 8919 000b 40cb 000b     .............@..

000bad0c <_ZTVN5spark20JSONStreamLogHandlerE>:
	...
   bad14:	81ed 000b 8201 000b 8abd 000b 7d51 000b     ............Q}..

000bad24 <_ZTVN5spark24DefaultLogHandlerFactoryE>:
	...
   bad2c:	7d63 000b 7d99 000b 887d 000b 7d53 000b     c}...}..}...S}..

000bad3c <_ZTVN5spark26DefaultOutputStreamFactoryE>:
	...
   bad44:	7d61 000b 7da7 000b 8129 000b 7dc9 000b     a}...}..)....}..

000bad54 <_ZTVN5spark12NetworkClassE>:
	...
   bad5c:	8c31 000b 8c3b 000b 8c45 000b 8c4f 000b     1...;...E...O...
   bad6c:	8c59 000b 8c65 000b 8c71 000b 8c79 000b     Y...e...q...y...
   bad7c:	8c81 000b 8c8d 000b 8c95 000b 8c9f 000b     ................
   bad8c:	8ca9 000b 5925 252d 2d6d 6425 2554 3a48     ....%Y-%m-%dT%H:
   bad9c:	4d25 253a 2553 007a 7361 7463 6d69 0065     %M:%S%z.asctime.

000badac <_ZTV11USARTSerial>:
	...
   badb4:	912d 000b 9199 000b 9171 000b 8d95 000b     -.......q.......
   badc4:	9141 000b 915d 000b 914f 000b 916b 000b     A...]...O...k...
   badd4:	912f 000b 9133 000b                         /...3...

000baddc <_ZTV9USBSerial>:
	...
   bade4:	91eb 000b 9253 000b 9229 000b 8d95 000b     ....S...).......
   badf4:	921b 000b 91ed 000b 91fd 000b 924d 000b     ............M...
   bae04:	920d 000b 91e5 000b                         ........

000bae0c <_ZSt7nothrow>:
   bae0c:	5200 4545 544e 6d20 6c61 6f6c 2063 7573     .REENT malloc su
   bae1c:	6363 6565 6564 0064 742f 706d 6a2f 6e65     cceeded./tmp/jen
   bae2c:	696b 736e 472d 4343 312d 2d30 6970 6570     kins-GCC-10-pipe
   bae3c:	696c 656e 342d 5f38 3032 3032 3131 3432     line-48_20201124
   bae4c:	315f 3036 3136 3038 3336 2f39 7273 2f63     _1606180639/src/
   bae5c:	656e 6c77 6269 6e2f 7765 696c 2f62 696c     newlib/newlib/li
   bae6c:	6362 732f 6474 696c 2f62 6172 646e 632e     bc/stdlib/rand.c
	...

000bae7d <_ctype_>:
   bae7d:	2000 2020 2020 2020 2020 2828 2828 2028     .         ((((( 
   bae8d:	2020 2020 2020 2020 2020 2020 2020 2020                     
   bae9d:	8820 1010 1010 1010 1010 1010 1010 1010      ...............
   baead:	0410 0404 0404 0404 0404 1004 1010 1010     ................
   baebd:	1010 4141 4141 4141 0101 0101 0101 0101     ..AAAAAA........
   baecd:	0101 0101 0101 0101 0101 0101 1010 1010     ................
   baedd:	1010 4242 4242 4242 0202 0202 0202 0202     ..BBBBBB........
   baeed:	0202 0202 0202 0202 0202 0202 1010 1010     ................
   baefd:	0020 0000 0000 0000 0000 0000 0000 0000      ...............
	...

000baf7e <link_const_variable_data_end>:
	...

000baf80 <link_constructors_location>:
   baf80:	000b47d5 	.word	0x000b47d5
   baf84:	000b634d 	.word	0x000b634d
   baf88:	000b7129 	.word	0x000b7129
   baf8c:	000b71a1 	.word	0x000b71a1
   baf90:	000b7769 	.word	0x000b7769
   baf94:	000b8909 	.word	0x000b8909
   baf98:	000b8d81 	.word	0x000b8d81
   baf9c:	000b8ea1 	.word	0x000b8ea1
   bafa0:	000b9081 	.word	0x000b9081
   bafa4:	000b9119 	.word	0x000b9119

000bafa8 <link_constructors_end>:
	...
